
caal3.elf:     file format elf32-littlearm

Sections:
Idx Name          Size      VMA       LMA       File off  Algn
  0 .isr_vector   00000188  08000000  08000000  00010000  2**0
                  CONTENTS, ALLOC, LOAD, READONLY, DATA
  1 .text         00005180  08000188  08000188  00010188  2**3
                  CONTENTS, ALLOC, LOAD, READONLY, CODE
  2 .rodata       00000028  08005308  08005308  00015308  2**0
                  CONTENTS, ALLOC, LOAD, READONLY, DATA
  3 .init_array   00000004  08005330  08005330  00015330  2**2
                  CONTENTS, ALLOC, LOAD, DATA
  4 .fini_array   00000004  08005334  08005334  00015334  2**2
                  CONTENTS, ALLOC, LOAD, DATA
  5 .data         00000278  20000000  08005338  00020000  2**3
                  CONTENTS, ALLOC, LOAD, DATA
  6 .ccmram       00000000  10000000  10000000  00020278  2**0
                  CONTENTS
  7 .bss          000008b0  20000278  20000278  00020278  2**3
                  ALLOC
  8 ._user_heap_stack 00000400  20000b28  20000b28  00020278  2**0
                  ALLOC
  9 .ARM.attributes 00000030  00000000  00000000  00020278  2**0
                  CONTENTS, READONLY
 10 .comment      0000007b  00000000  00000000  000202a8  2**0
                  CONTENTS, READONLY
 11 .debug_frame  0000014c  00000000  00000000  00020324  2**2
                  CONTENTS, READONLY, DEBUGGING

Disassembly of section .text:

08000188 <__do_global_dtors_aux>:
 8000188:	b510      	push	{r4, lr}
 800018a:	4c05      	ldr	r4, [pc, #20]	; (80001a0 <__do_global_dtors_aux+0x18>)
 800018c:	7823      	ldrb	r3, [r4, #0]
 800018e:	b933      	cbnz	r3, 800019e <__do_global_dtors_aux+0x16>
 8000190:	4b04      	ldr	r3, [pc, #16]	; (80001a4 <__do_global_dtors_aux+0x1c>)
 8000192:	b113      	cbz	r3, 800019a <__do_global_dtors_aux+0x12>
 8000194:	4804      	ldr	r0, [pc, #16]	; (80001a8 <__do_global_dtors_aux+0x20>)
 8000196:	f3af 8000 	nop.w
 800019a:	2301      	movs	r3, #1
 800019c:	7023      	strb	r3, [r4, #0]
 800019e:	bd10      	pop	{r4, pc}
 80001a0:	20000278 	.word	0x20000278
 80001a4:	00000000 	.word	0x00000000
 80001a8:	080052f0 	.word	0x080052f0

080001ac <frame_dummy>:
 80001ac:	b508      	push	{r3, lr}
 80001ae:	4b03      	ldr	r3, [pc, #12]	; (80001bc <frame_dummy+0x10>)
 80001b0:	b11b      	cbz	r3, 80001ba <frame_dummy+0xe>
 80001b2:	4903      	ldr	r1, [pc, #12]	; (80001c0 <frame_dummy+0x14>)
 80001b4:	4803      	ldr	r0, [pc, #12]	; (80001c4 <frame_dummy+0x18>)
 80001b6:	f3af 8000 	nop.w
 80001ba:	bd08      	pop	{r3, pc}
 80001bc:	00000000 	.word	0x00000000
 80001c0:	2000027c 	.word	0x2000027c
 80001c4:	080052f0 	.word	0x080052f0

080001c8 <__aeabi_drsub>:
 80001c8:	f081 4100 	eor.w	r1, r1, #2147483648	; 0x80000000
 80001cc:	e002      	b.n	80001d4 <__adddf3>
 80001ce:	bf00      	nop

080001d0 <__aeabi_dsub>:
 80001d0:	f083 4300 	eor.w	r3, r3, #2147483648	; 0x80000000

080001d4 <__adddf3>:
 80001d4:	b530      	push	{r4, r5, lr}
 80001d6:	ea4f 0441 	mov.w	r4, r1, lsl #1
 80001da:	ea4f 0543 	mov.w	r5, r3, lsl #1
 80001de:	ea94 0f05 	teq	r4, r5
 80001e2:	bf08      	it	eq
 80001e4:	ea90 0f02 	teqeq	r0, r2
 80001e8:	bf1f      	itttt	ne
 80001ea:	ea54 0c00 	orrsne.w	ip, r4, r0
 80001ee:	ea55 0c02 	orrsne.w	ip, r5, r2
 80001f2:	ea7f 5c64 	mvnsne.w	ip, r4, asr #21
 80001f6:	ea7f 5c65 	mvnsne.w	ip, r5, asr #21
 80001fa:	f000 80e2 	beq.w	80003c2 <__adddf3+0x1ee>
 80001fe:	ea4f 5454 	mov.w	r4, r4, lsr #21
 8000202:	ebd4 5555 	rsbs	r5, r4, r5, lsr #21
 8000206:	bfb8      	it	lt
 8000208:	426d      	neglt	r5, r5
 800020a:	dd0c      	ble.n	8000226 <__adddf3+0x52>
 800020c:	442c      	add	r4, r5
 800020e:	ea80 0202 	eor.w	r2, r0, r2
 8000212:	ea81 0303 	eor.w	r3, r1, r3
 8000216:	ea82 0000 	eor.w	r0, r2, r0
 800021a:	ea83 0101 	eor.w	r1, r3, r1
 800021e:	ea80 0202 	eor.w	r2, r0, r2
 8000222:	ea81 0303 	eor.w	r3, r1, r3
 8000226:	2d36      	cmp	r5, #54	; 0x36
 8000228:	bf88      	it	hi
 800022a:	bd30      	pophi	{r4, r5, pc}
 800022c:	f011 4f00 	tst.w	r1, #2147483648	; 0x80000000
 8000230:	ea4f 3101 	mov.w	r1, r1, lsl #12
 8000234:	f44f 1c80 	mov.w	ip, #1048576	; 0x100000
 8000238:	ea4c 3111 	orr.w	r1, ip, r1, lsr #12
 800023c:	d002      	beq.n	8000244 <__adddf3+0x70>
 800023e:	4240      	negs	r0, r0
 8000240:	eb61 0141 	sbc.w	r1, r1, r1, lsl #1
 8000244:	f013 4f00 	tst.w	r3, #2147483648	; 0x80000000
 8000248:	ea4f 3303 	mov.w	r3, r3, lsl #12
 800024c:	ea4c 3313 	orr.w	r3, ip, r3, lsr #12
 8000250:	d002      	beq.n	8000258 <__adddf3+0x84>
 8000252:	4252      	negs	r2, r2
 8000254:	eb63 0343 	sbc.w	r3, r3, r3, lsl #1
 8000258:	ea94 0f05 	teq	r4, r5
 800025c:	f000 80a7 	beq.w	80003ae <__adddf3+0x1da>
 8000260:	f1a4 0401 	sub.w	r4, r4, #1
 8000264:	f1d5 0e20 	rsbs	lr, r5, #32
 8000268:	db0d      	blt.n	8000286 <__adddf3+0xb2>
 800026a:	fa02 fc0e 	lsl.w	ip, r2, lr
 800026e:	fa22 f205 	lsr.w	r2, r2, r5
 8000272:	1880      	adds	r0, r0, r2
 8000274:	f141 0100 	adc.w	r1, r1, #0
 8000278:	fa03 f20e 	lsl.w	r2, r3, lr
 800027c:	1880      	adds	r0, r0, r2
 800027e:	fa43 f305 	asr.w	r3, r3, r5
 8000282:	4159      	adcs	r1, r3
 8000284:	e00e      	b.n	80002a4 <__adddf3+0xd0>
 8000286:	f1a5 0520 	sub.w	r5, r5, #32
 800028a:	f10e 0e20 	add.w	lr, lr, #32
 800028e:	2a01      	cmp	r2, #1
 8000290:	fa03 fc0e 	lsl.w	ip, r3, lr
 8000294:	bf28      	it	cs
 8000296:	f04c 0c02 	orrcs.w	ip, ip, #2
 800029a:	fa43 f305 	asr.w	r3, r3, r5
 800029e:	18c0      	adds	r0, r0, r3
 80002a0:	eb51 71e3 	adcs.w	r1, r1, r3, asr #31
 80002a4:	f001 4500 	and.w	r5, r1, #2147483648	; 0x80000000
 80002a8:	d507      	bpl.n	80002ba <__adddf3+0xe6>
 80002aa:	f04f 0e00 	mov.w	lr, #0
 80002ae:	f1dc 0c00 	rsbs	ip, ip, #0
 80002b2:	eb7e 0000 	sbcs.w	r0, lr, r0
 80002b6:	eb6e 0101 	sbc.w	r1, lr, r1
 80002ba:	f5b1 1f80 	cmp.w	r1, #1048576	; 0x100000
 80002be:	d31b      	bcc.n	80002f8 <__adddf3+0x124>
 80002c0:	f5b1 1f00 	cmp.w	r1, #2097152	; 0x200000
 80002c4:	d30c      	bcc.n	80002e0 <__adddf3+0x10c>
 80002c6:	0849      	lsrs	r1, r1, #1
 80002c8:	ea5f 0030 	movs.w	r0, r0, rrx
 80002cc:	ea4f 0c3c 	mov.w	ip, ip, rrx
 80002d0:	f104 0401 	add.w	r4, r4, #1
 80002d4:	ea4f 5244 	mov.w	r2, r4, lsl #21
 80002d8:	f512 0f80 	cmn.w	r2, #4194304	; 0x400000
 80002dc:	f080 809a 	bcs.w	8000414 <__adddf3+0x240>
 80002e0:	f1bc 4f00 	cmp.w	ip, #2147483648	; 0x80000000
 80002e4:	bf08      	it	eq
 80002e6:	ea5f 0c50 	movseq.w	ip, r0, lsr #1
 80002ea:	f150 0000 	adcs.w	r0, r0, #0
 80002ee:	eb41 5104 	adc.w	r1, r1, r4, lsl #20
 80002f2:	ea41 0105 	orr.w	r1, r1, r5
 80002f6:	bd30      	pop	{r4, r5, pc}
 80002f8:	ea5f 0c4c 	movs.w	ip, ip, lsl #1
 80002fc:	4140      	adcs	r0, r0
 80002fe:	eb41 0101 	adc.w	r1, r1, r1
 8000302:	f411 1f80 	tst.w	r1, #1048576	; 0x100000
 8000306:	f1a4 0401 	sub.w	r4, r4, #1
 800030a:	d1e9      	bne.n	80002e0 <__adddf3+0x10c>
 800030c:	f091 0f00 	teq	r1, #0
 8000310:	bf04      	itt	eq
 8000312:	4601      	moveq	r1, r0
 8000314:	2000      	moveq	r0, #0
 8000316:	fab1 f381 	clz	r3, r1
 800031a:	bf08      	it	eq
 800031c:	3320      	addeq	r3, #32
 800031e:	f1a3 030b 	sub.w	r3, r3, #11
 8000322:	f1b3 0220 	subs.w	r2, r3, #32
 8000326:	da0c      	bge.n	8000342 <__adddf3+0x16e>
 8000328:	320c      	adds	r2, #12
 800032a:	dd08      	ble.n	800033e <__adddf3+0x16a>
 800032c:	f102 0c14 	add.w	ip, r2, #20
 8000330:	f1c2 020c 	rsb	r2, r2, #12
 8000334:	fa01 f00c 	lsl.w	r0, r1, ip
 8000338:	fa21 f102 	lsr.w	r1, r1, r2
 800033c:	e00c      	b.n	8000358 <__adddf3+0x184>
 800033e:	f102 0214 	add.w	r2, r2, #20
 8000342:	bfd8      	it	le
 8000344:	f1c2 0c20 	rsble	ip, r2, #32
 8000348:	fa01 f102 	lsl.w	r1, r1, r2
 800034c:	fa20 fc0c 	lsr.w	ip, r0, ip
 8000350:	bfdc      	itt	le
 8000352:	ea41 010c 	orrle.w	r1, r1, ip
 8000356:	4090      	lslle	r0, r2
 8000358:	1ae4      	subs	r4, r4, r3
 800035a:	bfa2      	ittt	ge
 800035c:	eb01 5104 	addge.w	r1, r1, r4, lsl #20
 8000360:	4329      	orrge	r1, r5
 8000362:	bd30      	popge	{r4, r5, pc}
 8000364:	ea6f 0404 	mvn.w	r4, r4
 8000368:	3c1f      	subs	r4, #31
 800036a:	da1c      	bge.n	80003a6 <__adddf3+0x1d2>
 800036c:	340c      	adds	r4, #12
 800036e:	dc0e      	bgt.n	800038e <__adddf3+0x1ba>
 8000370:	f104 0414 	add.w	r4, r4, #20
 8000374:	f1c4 0220 	rsb	r2, r4, #32
 8000378:	fa20 f004 	lsr.w	r0, r0, r4
 800037c:	fa01 f302 	lsl.w	r3, r1, r2
 8000380:	ea40 0003 	orr.w	r0, r0, r3
 8000384:	fa21 f304 	lsr.w	r3, r1, r4
 8000388:	ea45 0103 	orr.w	r1, r5, r3
 800038c:	bd30      	pop	{r4, r5, pc}
 800038e:	f1c4 040c 	rsb	r4, r4, #12
 8000392:	f1c4 0220 	rsb	r2, r4, #32
 8000396:	fa20 f002 	lsr.w	r0, r0, r2
 800039a:	fa01 f304 	lsl.w	r3, r1, r4
 800039e:	ea40 0003 	orr.w	r0, r0, r3
 80003a2:	4629      	mov	r1, r5
 80003a4:	bd30      	pop	{r4, r5, pc}
 80003a6:	fa21 f004 	lsr.w	r0, r1, r4
 80003aa:	4629      	mov	r1, r5
 80003ac:	bd30      	pop	{r4, r5, pc}
 80003ae:	f094 0f00 	teq	r4, #0
 80003b2:	f483 1380 	eor.w	r3, r3, #1048576	; 0x100000
 80003b6:	bf06      	itte	eq
 80003b8:	f481 1180 	eoreq.w	r1, r1, #1048576	; 0x100000
 80003bc:	3401      	addeq	r4, #1
 80003be:	3d01      	subne	r5, #1
 80003c0:	e74e      	b.n	8000260 <__adddf3+0x8c>
 80003c2:	ea7f 5c64 	mvns.w	ip, r4, asr #21
 80003c6:	bf18      	it	ne
 80003c8:	ea7f 5c65 	mvnsne.w	ip, r5, asr #21
 80003cc:	d029      	beq.n	8000422 <__adddf3+0x24e>
 80003ce:	ea94 0f05 	teq	r4, r5
 80003d2:	bf08      	it	eq
 80003d4:	ea90 0f02 	teqeq	r0, r2
 80003d8:	d005      	beq.n	80003e6 <__adddf3+0x212>
 80003da:	ea54 0c00 	orrs.w	ip, r4, r0
 80003de:	bf04      	itt	eq
 80003e0:	4619      	moveq	r1, r3
 80003e2:	4610      	moveq	r0, r2
 80003e4:	bd30      	pop	{r4, r5, pc}
 80003e6:	ea91 0f03 	teq	r1, r3
 80003ea:	bf1e      	ittt	ne
 80003ec:	2100      	movne	r1, #0
 80003ee:	2000      	movne	r0, #0
 80003f0:	bd30      	popne	{r4, r5, pc}
 80003f2:	ea5f 5c54 	movs.w	ip, r4, lsr #21
 80003f6:	d105      	bne.n	8000404 <__adddf3+0x230>
 80003f8:	0040      	lsls	r0, r0, #1
 80003fa:	4149      	adcs	r1, r1
 80003fc:	bf28      	it	cs
 80003fe:	f041 4100 	orrcs.w	r1, r1, #2147483648	; 0x80000000
 8000402:	bd30      	pop	{r4, r5, pc}
 8000404:	f514 0480 	adds.w	r4, r4, #4194304	; 0x400000
 8000408:	bf3c      	itt	cc
 800040a:	f501 1180 	addcc.w	r1, r1, #1048576	; 0x100000
 800040e:	bd30      	popcc	{r4, r5, pc}
 8000410:	f001 4500 	and.w	r5, r1, #2147483648	; 0x80000000
 8000414:	f045 41fe 	orr.w	r1, r5, #2130706432	; 0x7f000000
 8000418:	f441 0170 	orr.w	r1, r1, #15728640	; 0xf00000
 800041c:	f04f 0000 	mov.w	r0, #0
 8000420:	bd30      	pop	{r4, r5, pc}
 8000422:	ea7f 5c64 	mvns.w	ip, r4, asr #21
 8000426:	bf1a      	itte	ne
 8000428:	4619      	movne	r1, r3
 800042a:	4610      	movne	r0, r2
 800042c:	ea7f 5c65 	mvnseq.w	ip, r5, asr #21
 8000430:	bf1c      	itt	ne
 8000432:	460b      	movne	r3, r1
 8000434:	4602      	movne	r2, r0
 8000436:	ea50 3401 	orrs.w	r4, r0, r1, lsl #12
 800043a:	bf06      	itte	eq
 800043c:	ea52 3503 	orrseq.w	r5, r2, r3, lsl #12
 8000440:	ea91 0f03 	teqeq	r1, r3
 8000444:	f441 2100 	orrne.w	r1, r1, #524288	; 0x80000
 8000448:	bd30      	pop	{r4, r5, pc}
 800044a:	bf00      	nop

0800044c <__aeabi_ui2d>:
 800044c:	f090 0f00 	teq	r0, #0
 8000450:	bf04      	itt	eq
 8000452:	2100      	moveq	r1, #0
 8000454:	4770      	bxeq	lr
 8000456:	b530      	push	{r4, r5, lr}
 8000458:	f44f 6480 	mov.w	r4, #1024	; 0x400
 800045c:	f104 0432 	add.w	r4, r4, #50	; 0x32
 8000460:	f04f 0500 	mov.w	r5, #0
 8000464:	f04f 0100 	mov.w	r1, #0
 8000468:	e750      	b.n	800030c <__adddf3+0x138>
 800046a:	bf00      	nop

0800046c <__aeabi_i2d>:
 800046c:	f090 0f00 	teq	r0, #0
 8000470:	bf04      	itt	eq
 8000472:	2100      	moveq	r1, #0
 8000474:	4770      	bxeq	lr
 8000476:	b530      	push	{r4, r5, lr}
 8000478:	f44f 6480 	mov.w	r4, #1024	; 0x400
 800047c:	f104 0432 	add.w	r4, r4, #50	; 0x32
 8000480:	f010 4500 	ands.w	r5, r0, #2147483648	; 0x80000000
 8000484:	bf48      	it	mi
 8000486:	4240      	negmi	r0, r0
 8000488:	f04f 0100 	mov.w	r1, #0
 800048c:	e73e      	b.n	800030c <__adddf3+0x138>
 800048e:	bf00      	nop

08000490 <__aeabi_f2d>:
 8000490:	0042      	lsls	r2, r0, #1
 8000492:	ea4f 01e2 	mov.w	r1, r2, asr #3
 8000496:	ea4f 0131 	mov.w	r1, r1, rrx
 800049a:	ea4f 7002 	mov.w	r0, r2, lsl #28
 800049e:	bf1f      	itttt	ne
 80004a0:	f012 437f 	andsne.w	r3, r2, #4278190080	; 0xff000000
 80004a4:	f093 4f7f 	teqne	r3, #4278190080	; 0xff000000
 80004a8:	f081 5160 	eorne.w	r1, r1, #939524096	; 0x38000000
 80004ac:	4770      	bxne	lr
 80004ae:	f032 427f 	bics.w	r2, r2, #4278190080	; 0xff000000
 80004b2:	bf08      	it	eq
 80004b4:	4770      	bxeq	lr
 80004b6:	f093 4f7f 	teq	r3, #4278190080	; 0xff000000
 80004ba:	bf04      	itt	eq
 80004bc:	f441 2100 	orreq.w	r1, r1, #524288	; 0x80000
 80004c0:	4770      	bxeq	lr
 80004c2:	b530      	push	{r4, r5, lr}
 80004c4:	f44f 7460 	mov.w	r4, #896	; 0x380
 80004c8:	f001 4500 	and.w	r5, r1, #2147483648	; 0x80000000
 80004cc:	f021 4100 	bic.w	r1, r1, #2147483648	; 0x80000000
 80004d0:	e71c      	b.n	800030c <__adddf3+0x138>
 80004d2:	bf00      	nop

080004d4 <__aeabi_ul2d>:
 80004d4:	ea50 0201 	orrs.w	r2, r0, r1
 80004d8:	bf08      	it	eq
 80004da:	4770      	bxeq	lr
 80004dc:	b530      	push	{r4, r5, lr}
 80004de:	f04f 0500 	mov.w	r5, #0
 80004e2:	e00a      	b.n	80004fa <__aeabi_l2d+0x16>

080004e4 <__aeabi_l2d>:
 80004e4:	ea50 0201 	orrs.w	r2, r0, r1
 80004e8:	bf08      	it	eq
 80004ea:	4770      	bxeq	lr
 80004ec:	b530      	push	{r4, r5, lr}
 80004ee:	f011 4500 	ands.w	r5, r1, #2147483648	; 0x80000000
 80004f2:	d502      	bpl.n	80004fa <__aeabi_l2d+0x16>
 80004f4:	4240      	negs	r0, r0
 80004f6:	eb61 0141 	sbc.w	r1, r1, r1, lsl #1
 80004fa:	f44f 6480 	mov.w	r4, #1024	; 0x400
 80004fe:	f104 0432 	add.w	r4, r4, #50	; 0x32
 8000502:	ea5f 5c91 	movs.w	ip, r1, lsr #22
 8000506:	f43f aed8 	beq.w	80002ba <__adddf3+0xe6>
 800050a:	f04f 0203 	mov.w	r2, #3
 800050e:	ea5f 0cdc 	movs.w	ip, ip, lsr #3
 8000512:	bf18      	it	ne
 8000514:	3203      	addne	r2, #3
 8000516:	ea5f 0cdc 	movs.w	ip, ip, lsr #3
 800051a:	bf18      	it	ne
 800051c:	3203      	addne	r2, #3
 800051e:	eb02 02dc 	add.w	r2, r2, ip, lsr #3
 8000522:	f1c2 0320 	rsb	r3, r2, #32
 8000526:	fa00 fc03 	lsl.w	ip, r0, r3
 800052a:	fa20 f002 	lsr.w	r0, r0, r2
 800052e:	fa01 fe03 	lsl.w	lr, r1, r3
 8000532:	ea40 000e 	orr.w	r0, r0, lr
 8000536:	fa21 f102 	lsr.w	r1, r1, r2
 800053a:	4414      	add	r4, r2
 800053c:	e6bd      	b.n	80002ba <__adddf3+0xe6>
 800053e:	bf00      	nop

08000540 <__aeabi_dmul>:
 8000540:	b570      	push	{r4, r5, r6, lr}
 8000542:	f04f 0cff 	mov.w	ip, #255	; 0xff
 8000546:	f44c 6ce0 	orr.w	ip, ip, #1792	; 0x700
 800054a:	ea1c 5411 	ands.w	r4, ip, r1, lsr #20
 800054e:	bf1d      	ittte	ne
 8000550:	ea1c 5513 	andsne.w	r5, ip, r3, lsr #20
 8000554:	ea94 0f0c 	teqne	r4, ip
 8000558:	ea95 0f0c 	teqne	r5, ip
 800055c:	f000 f8de 	bleq	800071c <__aeabi_dmul+0x1dc>
 8000560:	442c      	add	r4, r5
 8000562:	ea81 0603 	eor.w	r6, r1, r3
 8000566:	ea21 514c 	bic.w	r1, r1, ip, lsl #21
 800056a:	ea23 534c 	bic.w	r3, r3, ip, lsl #21
 800056e:	ea50 3501 	orrs.w	r5, r0, r1, lsl #12
 8000572:	bf18      	it	ne
 8000574:	ea52 3503 	orrsne.w	r5, r2, r3, lsl #12
 8000578:	f441 1180 	orr.w	r1, r1, #1048576	; 0x100000
 800057c:	f443 1380 	orr.w	r3, r3, #1048576	; 0x100000
 8000580:	d038      	beq.n	80005f4 <__aeabi_dmul+0xb4>
 8000582:	fba0 ce02 	umull	ip, lr, r0, r2
 8000586:	f04f 0500 	mov.w	r5, #0
 800058a:	fbe1 e502 	umlal	lr, r5, r1, r2
 800058e:	f006 4200 	and.w	r2, r6, #2147483648	; 0x80000000
 8000592:	fbe0 e503 	umlal	lr, r5, r0, r3
 8000596:	f04f 0600 	mov.w	r6, #0
 800059a:	fbe1 5603 	umlal	r5, r6, r1, r3
 800059e:	f09c 0f00 	teq	ip, #0
 80005a2:	bf18      	it	ne
 80005a4:	f04e 0e01 	orrne.w	lr, lr, #1
 80005a8:	f1a4 04ff 	sub.w	r4, r4, #255	; 0xff
 80005ac:	f5b6 7f00 	cmp.w	r6, #512	; 0x200
 80005b0:	f564 7440 	sbc.w	r4, r4, #768	; 0x300
 80005b4:	d204      	bcs.n	80005c0 <__aeabi_dmul+0x80>
 80005b6:	ea5f 0e4e 	movs.w	lr, lr, lsl #1
 80005ba:	416d      	adcs	r5, r5
 80005bc:	eb46 0606 	adc.w	r6, r6, r6
 80005c0:	ea42 21c6 	orr.w	r1, r2, r6, lsl #11
 80005c4:	ea41 5155 	orr.w	r1, r1, r5, lsr #21
 80005c8:	ea4f 20c5 	mov.w	r0, r5, lsl #11
 80005cc:	ea40 505e 	orr.w	r0, r0, lr, lsr #21
 80005d0:	ea4f 2ece 	mov.w	lr, lr, lsl #11
 80005d4:	f1b4 0cfd 	subs.w	ip, r4, #253	; 0xfd
 80005d8:	bf88      	it	hi
 80005da:	f5bc 6fe0 	cmphi.w	ip, #1792	; 0x700
 80005de:	d81e      	bhi.n	800061e <__aeabi_dmul+0xde>
 80005e0:	f1be 4f00 	cmp.w	lr, #2147483648	; 0x80000000
 80005e4:	bf08      	it	eq
 80005e6:	ea5f 0e50 	movseq.w	lr, r0, lsr #1
 80005ea:	f150 0000 	adcs.w	r0, r0, #0
 80005ee:	eb41 5104 	adc.w	r1, r1, r4, lsl #20
 80005f2:	bd70      	pop	{r4, r5, r6, pc}
 80005f4:	f006 4600 	and.w	r6, r6, #2147483648	; 0x80000000
 80005f8:	ea46 0101 	orr.w	r1, r6, r1
 80005fc:	ea40 0002 	orr.w	r0, r0, r2
 8000600:	ea81 0103 	eor.w	r1, r1, r3
 8000604:	ebb4 045c 	subs.w	r4, r4, ip, lsr #1
 8000608:	bfc2      	ittt	gt
 800060a:	ebd4 050c 	rsbsgt	r5, r4, ip
 800060e:	ea41 5104 	orrgt.w	r1, r1, r4, lsl #20
 8000612:	bd70      	popgt	{r4, r5, r6, pc}
 8000614:	f441 1180 	orr.w	r1, r1, #1048576	; 0x100000
 8000618:	f04f 0e00 	mov.w	lr, #0
 800061c:	3c01      	subs	r4, #1
 800061e:	f300 80ab 	bgt.w	8000778 <__aeabi_dmul+0x238>
 8000622:	f114 0f36 	cmn.w	r4, #54	; 0x36
 8000626:	bfde      	ittt	le
 8000628:	2000      	movle	r0, #0
 800062a:	f001 4100 	andle.w	r1, r1, #2147483648	; 0x80000000
 800062e:	bd70      	pople	{r4, r5, r6, pc}
 8000630:	f1c4 0400 	rsb	r4, r4, #0
 8000634:	3c20      	subs	r4, #32
 8000636:	da35      	bge.n	80006a4 <__aeabi_dmul+0x164>
 8000638:	340c      	adds	r4, #12
 800063a:	dc1b      	bgt.n	8000674 <__aeabi_dmul+0x134>
 800063c:	f104 0414 	add.w	r4, r4, #20
 8000640:	f1c4 0520 	rsb	r5, r4, #32
 8000644:	fa00 f305 	lsl.w	r3, r0, r5
 8000648:	fa20 f004 	lsr.w	r0, r0, r4
 800064c:	fa01 f205 	lsl.w	r2, r1, r5
 8000650:	ea40 0002 	orr.w	r0, r0, r2
 8000654:	f001 4200 	and.w	r2, r1, #2147483648	; 0x80000000
 8000658:	f021 4100 	bic.w	r1, r1, #2147483648	; 0x80000000
 800065c:	eb10 70d3 	adds.w	r0, r0, r3, lsr #31
 8000660:	fa21 f604 	lsr.w	r6, r1, r4
 8000664:	eb42 0106 	adc.w	r1, r2, r6
 8000668:	ea5e 0e43 	orrs.w	lr, lr, r3, lsl #1
 800066c:	bf08      	it	eq
 800066e:	ea20 70d3 	biceq.w	r0, r0, r3, lsr #31
 8000672:	bd70      	pop	{r4, r5, r6, pc}
 8000674:	f1c4 040c 	rsb	r4, r4, #12
 8000678:	f1c4 0520 	rsb	r5, r4, #32
 800067c:	fa00 f304 	lsl.w	r3, r0, r4
 8000680:	fa20 f005 	lsr.w	r0, r0, r5
 8000684:	fa01 f204 	lsl.w	r2, r1, r4
 8000688:	ea40 0002 	orr.w	r0, r0, r2
 800068c:	f001 4100 	and.w	r1, r1, #2147483648	; 0x80000000
 8000690:	eb10 70d3 	adds.w	r0, r0, r3, lsr #31
 8000694:	f141 0100 	adc.w	r1, r1, #0
 8000698:	ea5e 0e43 	orrs.w	lr, lr, r3, lsl #1
 800069c:	bf08      	it	eq
 800069e:	ea20 70d3 	biceq.w	r0, r0, r3, lsr #31
 80006a2:	bd70      	pop	{r4, r5, r6, pc}
 80006a4:	f1c4 0520 	rsb	r5, r4, #32
 80006a8:	fa00 f205 	lsl.w	r2, r0, r5
 80006ac:	ea4e 0e02 	orr.w	lr, lr, r2
 80006b0:	fa20 f304 	lsr.w	r3, r0, r4
 80006b4:	fa01 f205 	lsl.w	r2, r1, r5
 80006b8:	ea43 0302 	orr.w	r3, r3, r2
 80006bc:	fa21 f004 	lsr.w	r0, r1, r4
 80006c0:	f001 4100 	and.w	r1, r1, #2147483648	; 0x80000000
 80006c4:	fa21 f204 	lsr.w	r2, r1, r4
 80006c8:	ea20 0002 	bic.w	r0, r0, r2
 80006cc:	eb00 70d3 	add.w	r0, r0, r3, lsr #31
 80006d0:	ea5e 0e43 	orrs.w	lr, lr, r3, lsl #1
 80006d4:	bf08      	it	eq
 80006d6:	ea20 70d3 	biceq.w	r0, r0, r3, lsr #31
 80006da:	bd70      	pop	{r4, r5, r6, pc}
 80006dc:	f094 0f00 	teq	r4, #0
 80006e0:	d10f      	bne.n	8000702 <__aeabi_dmul+0x1c2>
 80006e2:	f001 4600 	and.w	r6, r1, #2147483648	; 0x80000000
 80006e6:	0040      	lsls	r0, r0, #1
 80006e8:	eb41 0101 	adc.w	r1, r1, r1
 80006ec:	f411 1f80 	tst.w	r1, #1048576	; 0x100000
 80006f0:	bf08      	it	eq
 80006f2:	3c01      	subeq	r4, #1
 80006f4:	d0f7      	beq.n	80006e6 <__aeabi_dmul+0x1a6>
 80006f6:	ea41 0106 	orr.w	r1, r1, r6
 80006fa:	f095 0f00 	teq	r5, #0
 80006fe:	bf18      	it	ne
 8000700:	4770      	bxne	lr
 8000702:	f003 4600 	and.w	r6, r3, #2147483648	; 0x80000000
 8000706:	0052      	lsls	r2, r2, #1
 8000708:	eb43 0303 	adc.w	r3, r3, r3
 800070c:	f413 1f80 	tst.w	r3, #1048576	; 0x100000
 8000710:	bf08      	it	eq
 8000712:	3d01      	subeq	r5, #1
 8000714:	d0f7      	beq.n	8000706 <__aeabi_dmul+0x1c6>
 8000716:	ea43 0306 	orr.w	r3, r3, r6
 800071a:	4770      	bx	lr
 800071c:	ea94 0f0c 	teq	r4, ip
 8000720:	ea0c 5513 	and.w	r5, ip, r3, lsr #20
 8000724:	bf18      	it	ne
 8000726:	ea95 0f0c 	teqne	r5, ip
 800072a:	d00c      	beq.n	8000746 <__aeabi_dmul+0x206>
 800072c:	ea50 0641 	orrs.w	r6, r0, r1, lsl #1
 8000730:	bf18      	it	ne
 8000732:	ea52 0643 	orrsne.w	r6, r2, r3, lsl #1
 8000736:	d1d1      	bne.n	80006dc <__aeabi_dmul+0x19c>
 8000738:	ea81 0103 	eor.w	r1, r1, r3
 800073c:	f001 4100 	and.w	r1, r1, #2147483648	; 0x80000000
 8000740:	f04f 0000 	mov.w	r0, #0
 8000744:	bd70      	pop	{r4, r5, r6, pc}
 8000746:	ea50 0641 	orrs.w	r6, r0, r1, lsl #1
 800074a:	bf06      	itte	eq
 800074c:	4610      	moveq	r0, r2
 800074e:	4619      	moveq	r1, r3
 8000750:	ea52 0643 	orrsne.w	r6, r2, r3, lsl #1
 8000754:	d019      	beq.n	800078a <__aeabi_dmul+0x24a>
 8000756:	ea94 0f0c 	teq	r4, ip
 800075a:	d102      	bne.n	8000762 <__aeabi_dmul+0x222>
 800075c:	ea50 3601 	orrs.w	r6, r0, r1, lsl #12
 8000760:	d113      	bne.n	800078a <__aeabi_dmul+0x24a>
 8000762:	ea95 0f0c 	teq	r5, ip
 8000766:	d105      	bne.n	8000774 <__aeabi_dmul+0x234>
 8000768:	ea52 3603 	orrs.w	r6, r2, r3, lsl #12
 800076c:	bf1c      	itt	ne
 800076e:	4610      	movne	r0, r2
 8000770:	4619      	movne	r1, r3
 8000772:	d10a      	bne.n	800078a <__aeabi_dmul+0x24a>
 8000774:	ea81 0103 	eor.w	r1, r1, r3
 8000778:	f001 4100 	and.w	r1, r1, #2147483648	; 0x80000000
 800077c:	f041 41fe 	orr.w	r1, r1, #2130706432	; 0x7f000000
 8000780:	f441 0170 	orr.w	r1, r1, #15728640	; 0xf00000
 8000784:	f04f 0000 	mov.w	r0, #0
 8000788:	bd70      	pop	{r4, r5, r6, pc}
 800078a:	f041 41fe 	orr.w	r1, r1, #2130706432	; 0x7f000000
 800078e:	f441 0178 	orr.w	r1, r1, #16252928	; 0xf80000
 8000792:	bd70      	pop	{r4, r5, r6, pc}

08000794 <__aeabi_ddiv>:
 8000794:	b570      	push	{r4, r5, r6, lr}
 8000796:	f04f 0cff 	mov.w	ip, #255	; 0xff
 800079a:	f44c 6ce0 	orr.w	ip, ip, #1792	; 0x700
 800079e:	ea1c 5411 	ands.w	r4, ip, r1, lsr #20
 80007a2:	bf1d      	ittte	ne
 80007a4:	ea1c 5513 	andsne.w	r5, ip, r3, lsr #20
 80007a8:	ea94 0f0c 	teqne	r4, ip
 80007ac:	ea95 0f0c 	teqne	r5, ip
 80007b0:	f000 f8a7 	bleq	8000902 <__aeabi_ddiv+0x16e>
 80007b4:	eba4 0405 	sub.w	r4, r4, r5
 80007b8:	ea81 0e03 	eor.w	lr, r1, r3
 80007bc:	ea52 3503 	orrs.w	r5, r2, r3, lsl #12
 80007c0:	ea4f 3101 	mov.w	r1, r1, lsl #12
 80007c4:	f000 8088 	beq.w	80008d8 <__aeabi_ddiv+0x144>
 80007c8:	ea4f 3303 	mov.w	r3, r3, lsl #12
 80007cc:	f04f 5580 	mov.w	r5, #268435456	; 0x10000000
 80007d0:	ea45 1313 	orr.w	r3, r5, r3, lsr #4
 80007d4:	ea43 6312 	orr.w	r3, r3, r2, lsr #24
 80007d8:	ea4f 2202 	mov.w	r2, r2, lsl #8
 80007dc:	ea45 1511 	orr.w	r5, r5, r1, lsr #4
 80007e0:	ea45 6510 	orr.w	r5, r5, r0, lsr #24
 80007e4:	ea4f 2600 	mov.w	r6, r0, lsl #8
 80007e8:	f00e 4100 	and.w	r1, lr, #2147483648	; 0x80000000
 80007ec:	429d      	cmp	r5, r3
 80007ee:	bf08      	it	eq
 80007f0:	4296      	cmpeq	r6, r2
 80007f2:	f144 04fd 	adc.w	r4, r4, #253	; 0xfd
 80007f6:	f504 7440 	add.w	r4, r4, #768	; 0x300
 80007fa:	d202      	bcs.n	8000802 <__aeabi_ddiv+0x6e>
 80007fc:	085b      	lsrs	r3, r3, #1
 80007fe:	ea4f 0232 	mov.w	r2, r2, rrx
 8000802:	1ab6      	subs	r6, r6, r2
 8000804:	eb65 0503 	sbc.w	r5, r5, r3
 8000808:	085b      	lsrs	r3, r3, #1
 800080a:	ea4f 0232 	mov.w	r2, r2, rrx
 800080e:	f44f 1080 	mov.w	r0, #1048576	; 0x100000
 8000812:	f44f 2c00 	mov.w	ip, #524288	; 0x80000
 8000816:	ebb6 0e02 	subs.w	lr, r6, r2
 800081a:	eb75 0e03 	sbcs.w	lr, r5, r3
 800081e:	bf22      	ittt	cs
 8000820:	1ab6      	subcs	r6, r6, r2
 8000822:	4675      	movcs	r5, lr
 8000824:	ea40 000c 	orrcs.w	r0, r0, ip
 8000828:	085b      	lsrs	r3, r3, #1
 800082a:	ea4f 0232 	mov.w	r2, r2, rrx
 800082e:	ebb6 0e02 	subs.w	lr, r6, r2
 8000832:	eb75 0e03 	sbcs.w	lr, r5, r3
 8000836:	bf22      	ittt	cs
 8000838:	1ab6      	subcs	r6, r6, r2
 800083a:	4675      	movcs	r5, lr
 800083c:	ea40 005c 	orrcs.w	r0, r0, ip, lsr #1
 8000840:	085b      	lsrs	r3, r3, #1
 8000842:	ea4f 0232 	mov.w	r2, r2, rrx
 8000846:	ebb6 0e02 	subs.w	lr, r6, r2
 800084a:	eb75 0e03 	sbcs.w	lr, r5, r3
 800084e:	bf22      	ittt	cs
 8000850:	1ab6      	subcs	r6, r6, r2
 8000852:	4675      	movcs	r5, lr
 8000854:	ea40 009c 	orrcs.w	r0, r0, ip, lsr #2
 8000858:	085b      	lsrs	r3, r3, #1
 800085a:	ea4f 0232 	mov.w	r2, r2, rrx
 800085e:	ebb6 0e02 	subs.w	lr, r6, r2
 8000862:	eb75 0e03 	sbcs.w	lr, r5, r3
 8000866:	bf22      	ittt	cs
 8000868:	1ab6      	subcs	r6, r6, r2
 800086a:	4675      	movcs	r5, lr
 800086c:	ea40 00dc 	orrcs.w	r0, r0, ip, lsr #3
 8000870:	ea55 0e06 	orrs.w	lr, r5, r6
 8000874:	d018      	beq.n	80008a8 <__aeabi_ddiv+0x114>
 8000876:	ea4f 1505 	mov.w	r5, r5, lsl #4
 800087a:	ea45 7516 	orr.w	r5, r5, r6, lsr #28
 800087e:	ea4f 1606 	mov.w	r6, r6, lsl #4
 8000882:	ea4f 03c3 	mov.w	r3, r3, lsl #3
 8000886:	ea43 7352 	orr.w	r3, r3, r2, lsr #29
 800088a:	ea4f 02c2 	mov.w	r2, r2, lsl #3
 800088e:	ea5f 1c1c 	movs.w	ip, ip, lsr #4
 8000892:	d1c0      	bne.n	8000816 <__aeabi_ddiv+0x82>
 8000894:	f411 1f80 	tst.w	r1, #1048576	; 0x100000
 8000898:	d10b      	bne.n	80008b2 <__aeabi_ddiv+0x11e>
 800089a:	ea41 0100 	orr.w	r1, r1, r0
 800089e:	f04f 0000 	mov.w	r0, #0
 80008a2:	f04f 4c00 	mov.w	ip, #2147483648	; 0x80000000
 80008a6:	e7b6      	b.n	8000816 <__aeabi_ddiv+0x82>
 80008a8:	f411 1f80 	tst.w	r1, #1048576	; 0x100000
 80008ac:	bf04      	itt	eq
 80008ae:	4301      	orreq	r1, r0
 80008b0:	2000      	moveq	r0, #0
 80008b2:	f1b4 0cfd 	subs.w	ip, r4, #253	; 0xfd
 80008b6:	bf88      	it	hi
 80008b8:	f5bc 6fe0 	cmphi.w	ip, #1792	; 0x700
 80008bc:	f63f aeaf 	bhi.w	800061e <__aeabi_dmul+0xde>
 80008c0:	ebb5 0c03 	subs.w	ip, r5, r3
 80008c4:	bf04      	itt	eq
 80008c6:	ebb6 0c02 	subseq.w	ip, r6, r2
 80008ca:	ea5f 0c50 	movseq.w	ip, r0, lsr #1
 80008ce:	f150 0000 	adcs.w	r0, r0, #0
 80008d2:	eb41 5104 	adc.w	r1, r1, r4, lsl #20
 80008d6:	bd70      	pop	{r4, r5, r6, pc}
 80008d8:	f00e 4e00 	and.w	lr, lr, #2147483648	; 0x80000000
 80008dc:	ea4e 3111 	orr.w	r1, lr, r1, lsr #12
 80008e0:	eb14 045c 	adds.w	r4, r4, ip, lsr #1
 80008e4:	bfc2      	ittt	gt
 80008e6:	ebd4 050c 	rsbsgt	r5, r4, ip
 80008ea:	ea41 5104 	orrgt.w	r1, r1, r4, lsl #20
 80008ee:	bd70      	popgt	{r4, r5, r6, pc}
 80008f0:	f441 1180 	orr.w	r1, r1, #1048576	; 0x100000
 80008f4:	f04f 0e00 	mov.w	lr, #0
 80008f8:	3c01      	subs	r4, #1
 80008fa:	e690      	b.n	800061e <__aeabi_dmul+0xde>
 80008fc:	ea45 0e06 	orr.w	lr, r5, r6
 8000900:	e68d      	b.n	800061e <__aeabi_dmul+0xde>
 8000902:	ea0c 5513 	and.w	r5, ip, r3, lsr #20
 8000906:	ea94 0f0c 	teq	r4, ip
 800090a:	bf08      	it	eq
 800090c:	ea95 0f0c 	teqeq	r5, ip
 8000910:	f43f af3b 	beq.w	800078a <__aeabi_dmul+0x24a>
 8000914:	ea94 0f0c 	teq	r4, ip
 8000918:	d10a      	bne.n	8000930 <__aeabi_ddiv+0x19c>
 800091a:	ea50 3401 	orrs.w	r4, r0, r1, lsl #12
 800091e:	f47f af34 	bne.w	800078a <__aeabi_dmul+0x24a>
 8000922:	ea95 0f0c 	teq	r5, ip
 8000926:	f47f af25 	bne.w	8000774 <__aeabi_dmul+0x234>
 800092a:	4610      	mov	r0, r2
 800092c:	4619      	mov	r1, r3
 800092e:	e72c      	b.n	800078a <__aeabi_dmul+0x24a>
 8000930:	ea95 0f0c 	teq	r5, ip
 8000934:	d106      	bne.n	8000944 <__aeabi_ddiv+0x1b0>
 8000936:	ea52 3503 	orrs.w	r5, r2, r3, lsl #12
 800093a:	f43f aefd 	beq.w	8000738 <__aeabi_dmul+0x1f8>
 800093e:	4610      	mov	r0, r2
 8000940:	4619      	mov	r1, r3
 8000942:	e722      	b.n	800078a <__aeabi_dmul+0x24a>
 8000944:	ea50 0641 	orrs.w	r6, r0, r1, lsl #1
 8000948:	bf18      	it	ne
 800094a:	ea52 0643 	orrsne.w	r6, r2, r3, lsl #1
 800094e:	f47f aec5 	bne.w	80006dc <__aeabi_dmul+0x19c>
 8000952:	ea50 0441 	orrs.w	r4, r0, r1, lsl #1
 8000956:	f47f af0d 	bne.w	8000774 <__aeabi_dmul+0x234>
 800095a:	ea52 0543 	orrs.w	r5, r2, r3, lsl #1
 800095e:	f47f aeeb 	bne.w	8000738 <__aeabi_dmul+0x1f8>
 8000962:	e712      	b.n	800078a <__aeabi_dmul+0x24a>

08000964 <__aeabi_d2uiz>:
 8000964:	004a      	lsls	r2, r1, #1
 8000966:	d211      	bcs.n	800098c <__aeabi_d2uiz+0x28>
 8000968:	f512 1200 	adds.w	r2, r2, #2097152	; 0x200000
 800096c:	d211      	bcs.n	8000992 <__aeabi_d2uiz+0x2e>
 800096e:	d50d      	bpl.n	800098c <__aeabi_d2uiz+0x28>
 8000970:	f46f 7378 	mvn.w	r3, #992	; 0x3e0
 8000974:	ebb3 5262 	subs.w	r2, r3, r2, asr #21
 8000978:	d40e      	bmi.n	8000998 <__aeabi_d2uiz+0x34>
 800097a:	ea4f 23c1 	mov.w	r3, r1, lsl #11
 800097e:	f043 4300 	orr.w	r3, r3, #2147483648	; 0x80000000
 8000982:	ea43 5350 	orr.w	r3, r3, r0, lsr #21
 8000986:	fa23 f002 	lsr.w	r0, r3, r2
 800098a:	4770      	bx	lr
 800098c:	f04f 0000 	mov.w	r0, #0
 8000990:	4770      	bx	lr
 8000992:	ea50 3001 	orrs.w	r0, r0, r1, lsl #12
 8000996:	d102      	bne.n	800099e <__aeabi_d2uiz+0x3a>
 8000998:	f04f 30ff 	mov.w	r0, #4294967295	; 0xffffffff
 800099c:	4770      	bx	lr
 800099e:	f04f 0000 	mov.w	r0, #0
 80009a2:	4770      	bx	lr

080009a4 <NVIC_Init>:
 80009a4:	7801      	ldrb	r1, [r0, #0]
 80009a6:	b570      	push	{r4, r5, r6, lr}
 80009a8:	f001 031f 	and.w	r3, r1, #31
 80009ac:	2601      	movs	r6, #1
 80009ae:	409e      	lsls	r6, r3
 80009b0:	78c3      	ldrb	r3, [r0, #3]
 80009b2:	094d      	lsrs	r5, r1, #5
 80009b4:	b1cb      	cbz	r3, 80009ea <NVIC_Init+0x46>
 80009b6:	4b0f      	ldr	r3, [pc, #60]	; (80009f4 <NVIC_Init+0x50>)
 80009b8:	68da      	ldr	r2, [r3, #12]
 80009ba:	7843      	ldrb	r3, [r0, #1]
 80009bc:	43d2      	mvns	r2, r2
 80009be:	f3c2 2202 	ubfx	r2, r2, #8, #3
 80009c2:	f1c2 0404 	rsb	r4, r2, #4
 80009c6:	b2e4      	uxtb	r4, r4
 80009c8:	40a3      	lsls	r3, r4
 80009ca:	b2dc      	uxtb	r4, r3
 80009cc:	230f      	movs	r3, #15
 80009ce:	fa43 f202 	asr.w	r2, r3, r2
 80009d2:	7883      	ldrb	r3, [r0, #2]
 80009d4:	4013      	ands	r3, r2
 80009d6:	4a08      	ldr	r2, [pc, #32]	; (80009f8 <NVIC_Init+0x54>)
 80009d8:	4323      	orrs	r3, r4
 80009da:	011b      	lsls	r3, r3, #4
 80009dc:	4411      	add	r1, r2
 80009de:	b2db      	uxtb	r3, r3
 80009e0:	f881 3300 	strb.w	r3, [r1, #768]	; 0x300
 80009e4:	f842 6025 	str.w	r6, [r2, r5, lsl #2]
 80009e8:	bd70      	pop	{r4, r5, r6, pc}
 80009ea:	3520      	adds	r5, #32
 80009ec:	4b02      	ldr	r3, [pc, #8]	; (80009f8 <NVIC_Init+0x54>)
 80009ee:	f843 6025 	str.w	r6, [r3, r5, lsl #2]
 80009f2:	e7f9      	b.n	80009e8 <NVIC_Init+0x44>
 80009f4:	e000ed00 	.word	0xe000ed00
 80009f8:	e000e100 	.word	0xe000e100

080009fc <ADC_Init>:
 80009fc:	6843      	ldr	r3, [r0, #4]
 80009fe:	790a      	ldrb	r2, [r1, #4]
 8000a00:	f023 7340 	bic.w	r3, r3, #50331648	; 0x3000000
 8000a04:	f423 7380 	bic.w	r3, r3, #256	; 0x100
 8000a08:	ea43 2302 	orr.w	r3, r3, r2, lsl #8
 8000a0c:	680a      	ldr	r2, [r1, #0]
 8000a0e:	4313      	orrs	r3, r2
 8000a10:	6043      	str	r3, [r0, #4]
 8000a12:	e9d1 2303 	ldrd	r2, r3, [r1, #12]
 8000a16:	4313      	orrs	r3, r2
 8000a18:	688a      	ldr	r2, [r1, #8]
 8000a1a:	b510      	push	{r4, lr}
 8000a1c:	4313      	orrs	r3, r2
 8000a1e:	6884      	ldr	r4, [r0, #8]
 8000a20:	4a08      	ldr	r2, [pc, #32]	; (8000a44 <ADC_Init+0x48>)
 8000a22:	4022      	ands	r2, r4
 8000a24:	4313      	orrs	r3, r2
 8000a26:	794a      	ldrb	r2, [r1, #5]
 8000a28:	ea43 0342 	orr.w	r3, r3, r2, lsl #1
 8000a2c:	6083      	str	r3, [r0, #8]
 8000a2e:	7d0a      	ldrb	r2, [r1, #20]
 8000a30:	6ac3      	ldr	r3, [r0, #44]	; 0x2c
 8000a32:	3a01      	subs	r2, #1
 8000a34:	f423 0370 	bic.w	r3, r3, #15728640	; 0xf00000
 8000a38:	b2d2      	uxtb	r2, r2
 8000a3a:	ea43 5302 	orr.w	r3, r3, r2, lsl #20
 8000a3e:	62c3      	str	r3, [r0, #44]	; 0x2c
 8000a40:	bd10      	pop	{r4, pc}
 8000a42:	bf00      	nop
 8000a44:	c0fff7fd 	.word	0xc0fff7fd

08000a48 <ADC_StructInit>:
 8000a48:	2300      	movs	r3, #0
 8000a4a:	6003      	str	r3, [r0, #0]
 8000a4c:	7103      	strb	r3, [r0, #4]
 8000a4e:	7143      	strb	r3, [r0, #5]
 8000a50:	e9c0 3302 	strd	r3, r3, [r0, #8]
 8000a54:	6103      	str	r3, [r0, #16]
 8000a56:	2301      	movs	r3, #1
 8000a58:	7503      	strb	r3, [r0, #20]
 8000a5a:	4770      	bx	lr

08000a5c <ADC_Cmd>:
 8000a5c:	6883      	ldr	r3, [r0, #8]
 8000a5e:	b119      	cbz	r1, 8000a68 <ADC_Cmd+0xc>
 8000a60:	f043 0301 	orr.w	r3, r3, #1
 8000a64:	6083      	str	r3, [r0, #8]
 8000a66:	4770      	bx	lr
 8000a68:	f023 0301 	bic.w	r3, r3, #1
 8000a6c:	e7fa      	b.n	8000a64 <ADC_Cmd+0x8>

08000a6e <ADC_RegularChannelConfig>:
 8000a6e:	2909      	cmp	r1, #9
 8000a70:	b570      	push	{r4, r5, r6, lr}
 8000a72:	d91b      	bls.n	8000aac <ADC_RegularChannelConfig+0x3e>
 8000a74:	f1a1 040a 	sub.w	r4, r1, #10
 8000a78:	68c5      	ldr	r5, [r0, #12]
 8000a7a:	eb04 0444 	add.w	r4, r4, r4, lsl #1
 8000a7e:	2607      	movs	r6, #7
 8000a80:	40a6      	lsls	r6, r4
 8000a82:	ea25 0506 	bic.w	r5, r5, r6
 8000a86:	fa03 f404 	lsl.w	r4, r3, r4
 8000a8a:	432c      	orrs	r4, r5
 8000a8c:	60c4      	str	r4, [r0, #12]
 8000a8e:	2a06      	cmp	r2, #6
 8000a90:	d818      	bhi.n	8000ac4 <ADC_RegularChannelConfig+0x56>
 8000a92:	3a01      	subs	r2, #1
 8000a94:	6b43      	ldr	r3, [r0, #52]	; 0x34
 8000a96:	eb02 0282 	add.w	r2, r2, r2, lsl #2
 8000a9a:	241f      	movs	r4, #31
 8000a9c:	4094      	lsls	r4, r2
 8000a9e:	ea23 0304 	bic.w	r3, r3, r4
 8000aa2:	fa01 f202 	lsl.w	r2, r1, r2
 8000aa6:	431a      	orrs	r2, r3
 8000aa8:	6342      	str	r2, [r0, #52]	; 0x34
 8000aaa:	bd70      	pop	{r4, r5, r6, pc}
 8000aac:	6905      	ldr	r5, [r0, #16]
 8000aae:	eb01 0641 	add.w	r6, r1, r1, lsl #1
 8000ab2:	2407      	movs	r4, #7
 8000ab4:	40b4      	lsls	r4, r6
 8000ab6:	ea25 0504 	bic.w	r5, r5, r4
 8000aba:	fa03 f406 	lsl.w	r4, r3, r6
 8000abe:	432c      	orrs	r4, r5
 8000ac0:	6104      	str	r4, [r0, #16]
 8000ac2:	e7e4      	b.n	8000a8e <ADC_RegularChannelConfig+0x20>
 8000ac4:	2a0c      	cmp	r2, #12
 8000ac6:	d80c      	bhi.n	8000ae2 <ADC_RegularChannelConfig+0x74>
 8000ac8:	3a07      	subs	r2, #7
 8000aca:	6b03      	ldr	r3, [r0, #48]	; 0x30
 8000acc:	eb02 0282 	add.w	r2, r2, r2, lsl #2
 8000ad0:	241f      	movs	r4, #31
 8000ad2:	4094      	lsls	r4, r2
 8000ad4:	ea23 0304 	bic.w	r3, r3, r4
 8000ad8:	fa01 f202 	lsl.w	r2, r1, r2
 8000adc:	431a      	orrs	r2, r3
 8000ade:	6302      	str	r2, [r0, #48]	; 0x30
 8000ae0:	e7e3      	b.n	8000aaa <ADC_RegularChannelConfig+0x3c>
 8000ae2:	3a0d      	subs	r2, #13
 8000ae4:	6ac3      	ldr	r3, [r0, #44]	; 0x2c
 8000ae6:	eb02 0282 	add.w	r2, r2, r2, lsl #2
 8000aea:	241f      	movs	r4, #31
 8000aec:	4094      	lsls	r4, r2
 8000aee:	ea23 0304 	bic.w	r3, r3, r4
 8000af2:	4091      	lsls	r1, r2
 8000af4:	4319      	orrs	r1, r3
 8000af6:	62c1      	str	r1, [r0, #44]	; 0x2c
 8000af8:	e7d7      	b.n	8000aaa <ADC_RegularChannelConfig+0x3c>

08000afa <ADC_ITConfig>:
 8000afa:	2301      	movs	r3, #1
 8000afc:	b2c9      	uxtb	r1, r1
 8000afe:	fa03 f101 	lsl.w	r1, r3, r1
 8000b02:	6843      	ldr	r3, [r0, #4]
 8000b04:	b112      	cbz	r2, 8000b0c <ADC_ITConfig+0x12>
 8000b06:	4319      	orrs	r1, r3
 8000b08:	6041      	str	r1, [r0, #4]
 8000b0a:	4770      	bx	lr
 8000b0c:	ea23 0101 	bic.w	r1, r3, r1
 8000b10:	e7fa      	b.n	8000b08 <ADC_ITConfig+0xe>

08000b12 <ADC_GetFlagStatus>:
 8000b12:	6803      	ldr	r3, [r0, #0]
 8000b14:	4219      	tst	r1, r3
 8000b16:	bf14      	ite	ne
 8000b18:	2001      	movne	r0, #1
 8000b1a:	2000      	moveq	r0, #0
 8000b1c:	4770      	bx	lr

08000b1e <ADC_ClearFlag>:
 8000b1e:	43c9      	mvns	r1, r1
 8000b20:	6001      	str	r1, [r0, #0]
 8000b22:	4770      	bx	lr

08000b24 <DAC_DeInit>:
 8000b24:	b508      	push	{r3, lr}
 8000b26:	2101      	movs	r1, #1
 8000b28:	f04f 5000 	mov.w	r0, #536870912	; 0x20000000
 8000b2c:	f000 f976 	bl	8000e1c <RCC_APB1PeriphResetCmd>
 8000b30:	2100      	movs	r1, #0
 8000b32:	f04f 5000 	mov.w	r0, #536870912	; 0x20000000
 8000b36:	e8bd 4008 	ldmia.w	sp!, {r3, lr}
 8000b3a:	f000 b96f 	b.w	8000e1c <RCC_APB1PeriphResetCmd>
	...

08000b40 <DAC_Init>:
 8000b40:	b530      	push	{r4, r5, lr}
 8000b42:	4c09      	ldr	r4, [pc, #36]	; (8000b68 <DAC_Init+0x28>)
 8000b44:	f640 73fe 	movw	r3, #4094	; 0xffe
 8000b48:	6822      	ldr	r2, [r4, #0]
 8000b4a:	4083      	lsls	r3, r0
 8000b4c:	ea22 0203 	bic.w	r2, r2, r3
 8000b50:	e9d1 3500 	ldrd	r3, r5, [r1]
 8000b54:	432b      	orrs	r3, r5
 8000b56:	688d      	ldr	r5, [r1, #8]
 8000b58:	68c9      	ldr	r1, [r1, #12]
 8000b5a:	432b      	orrs	r3, r5
 8000b5c:	430b      	orrs	r3, r1
 8000b5e:	fa03 f000 	lsl.w	r0, r3, r0
 8000b62:	4310      	orrs	r0, r2
 8000b64:	6020      	str	r0, [r4, #0]
 8000b66:	bd30      	pop	{r4, r5, pc}
 8000b68:	40007400 	.word	0x40007400

08000b6c <DAC_StructInit>:
 8000b6c:	2300      	movs	r3, #0
 8000b6e:	e9c0 3300 	strd	r3, r3, [r0]
 8000b72:	e9c0 3302 	strd	r3, r3, [r0, #8]
 8000b76:	4770      	bx	lr

08000b78 <DAC_Cmd>:
 8000b78:	2301      	movs	r3, #1
 8000b7a:	fa03 f000 	lsl.w	r0, r3, r0
 8000b7e:	4b04      	ldr	r3, [pc, #16]	; (8000b90 <DAC_Cmd+0x18>)
 8000b80:	681a      	ldr	r2, [r3, #0]
 8000b82:	b111      	cbz	r1, 8000b8a <DAC_Cmd+0x12>
 8000b84:	4310      	orrs	r0, r2
 8000b86:	6018      	str	r0, [r3, #0]
 8000b88:	4770      	bx	lr
 8000b8a:	ea22 0000 	bic.w	r0, r2, r0
 8000b8e:	e7fa      	b.n	8000b86 <DAC_Cmd+0xe>
 8000b90:	40007400 	.word	0x40007400

08000b94 <DAC_SetChannel1Data>:
 8000b94:	b082      	sub	sp, #8
 8000b96:	2300      	movs	r3, #0
 8000b98:	9301      	str	r3, [sp, #4]
 8000b9a:	4b05      	ldr	r3, [pc, #20]	; (8000bb0 <DAC_SetChannel1Data+0x1c>)
 8000b9c:	9301      	str	r3, [sp, #4]
 8000b9e:	9b01      	ldr	r3, [sp, #4]
 8000ba0:	3308      	adds	r3, #8
 8000ba2:	4418      	add	r0, r3
 8000ba4:	9001      	str	r0, [sp, #4]
 8000ba6:	9b01      	ldr	r3, [sp, #4]
 8000ba8:	6019      	str	r1, [r3, #0]
 8000baa:	b002      	add	sp, #8
 8000bac:	4770      	bx	lr
 8000bae:	bf00      	nop
 8000bb0:	40007400 	.word	0x40007400

08000bb4 <DAC_SetChannel2Data>:
 8000bb4:	b082      	sub	sp, #8
 8000bb6:	2300      	movs	r3, #0
 8000bb8:	9301      	str	r3, [sp, #4]
 8000bba:	4b05      	ldr	r3, [pc, #20]	; (8000bd0 <DAC_SetChannel2Data+0x1c>)
 8000bbc:	9301      	str	r3, [sp, #4]
 8000bbe:	9b01      	ldr	r3, [sp, #4]
 8000bc0:	3314      	adds	r3, #20
 8000bc2:	4418      	add	r0, r3
 8000bc4:	9001      	str	r0, [sp, #4]
 8000bc6:	9b01      	ldr	r3, [sp, #4]
 8000bc8:	6019      	str	r1, [r3, #0]
 8000bca:	b002      	add	sp, #8
 8000bcc:	4770      	bx	lr
 8000bce:	bf00      	nop
 8000bd0:	40007400 	.word	0x40007400

08000bd4 <EXTI_DeInit>:
 8000bd4:	4b04      	ldr	r3, [pc, #16]	; (8000be8 <EXTI_DeInit+0x14>)
 8000bd6:	2200      	movs	r2, #0
 8000bd8:	601a      	str	r2, [r3, #0]
 8000bda:	605a      	str	r2, [r3, #4]
 8000bdc:	609a      	str	r2, [r3, #8]
 8000bde:	60da      	str	r2, [r3, #12]
 8000be0:	4a02      	ldr	r2, [pc, #8]	; (8000bec <EXTI_DeInit+0x18>)
 8000be2:	615a      	str	r2, [r3, #20]
 8000be4:	4770      	bx	lr
 8000be6:	bf00      	nop
 8000be8:	40013c00 	.word	0x40013c00
 8000bec:	007fffff 	.word	0x007fffff

08000bf0 <EXTI_Init>:
 8000bf0:	7902      	ldrb	r2, [r0, #4]
 8000bf2:	7983      	ldrb	r3, [r0, #6]
 8000bf4:	b530      	push	{r4, r5, lr}
 8000bf6:	6805      	ldr	r5, [r0, #0]
 8000bf8:	f102 4280 	add.w	r2, r2, #1073741824	; 0x40000000
 8000bfc:	f502 329e 	add.w	r2, r2, #80896	; 0x13c00
 8000c00:	43e9      	mvns	r1, r5
 8000c02:	b31b      	cbz	r3, 8000c4c <EXTI_Init+0x5c>
 8000c04:	4b13      	ldr	r3, [pc, #76]	; (8000c54 <EXTI_Init+0x64>)
 8000c06:	681c      	ldr	r4, [r3, #0]
 8000c08:	400c      	ands	r4, r1
 8000c0a:	601c      	str	r4, [r3, #0]
 8000c0c:	685c      	ldr	r4, [r3, #4]
 8000c0e:	4021      	ands	r1, r4
 8000c10:	6059      	str	r1, [r3, #4]
 8000c12:	6811      	ldr	r1, [r2, #0]
 8000c14:	4329      	orrs	r1, r5
 8000c16:	6011      	str	r1, [r2, #0]
 8000c18:	6802      	ldr	r2, [r0, #0]
 8000c1a:	689c      	ldr	r4, [r3, #8]
 8000c1c:	43d1      	mvns	r1, r2
 8000c1e:	400c      	ands	r4, r1
 8000c20:	609c      	str	r4, [r3, #8]
 8000c22:	68dc      	ldr	r4, [r3, #12]
 8000c24:	4021      	ands	r1, r4
 8000c26:	60d9      	str	r1, [r3, #12]
 8000c28:	7941      	ldrb	r1, [r0, #5]
 8000c2a:	2910      	cmp	r1, #16
 8000c2c:	d106      	bne.n	8000c3c <EXTI_Init+0x4c>
 8000c2e:	6899      	ldr	r1, [r3, #8]
 8000c30:	4311      	orrs	r1, r2
 8000c32:	6099      	str	r1, [r3, #8]
 8000c34:	68d9      	ldr	r1, [r3, #12]
 8000c36:	430a      	orrs	r2, r1
 8000c38:	60da      	str	r2, [r3, #12]
 8000c3a:	bd30      	pop	{r4, r5, pc}
 8000c3c:	f101 4380 	add.w	r3, r1, #1073741824	; 0x40000000
 8000c40:	f503 339e 	add.w	r3, r3, #80896	; 0x13c00
 8000c44:	6819      	ldr	r1, [r3, #0]
 8000c46:	430a      	orrs	r2, r1
 8000c48:	601a      	str	r2, [r3, #0]
 8000c4a:	e7f6      	b.n	8000c3a <EXTI_Init+0x4a>
 8000c4c:	6813      	ldr	r3, [r2, #0]
 8000c4e:	400b      	ands	r3, r1
 8000c50:	6013      	str	r3, [r2, #0]
 8000c52:	e7f2      	b.n	8000c3a <EXTI_Init+0x4a>
 8000c54:	40013c00 	.word	0x40013c00

08000c58 <EXTI_ClearITPendingBit>:
 8000c58:	4b01      	ldr	r3, [pc, #4]	; (8000c60 <EXTI_ClearITPendingBit+0x8>)
 8000c5a:	6158      	str	r0, [r3, #20]
 8000c5c:	4770      	bx	lr
 8000c5e:	bf00      	nop
 8000c60:	40013c00 	.word	0x40013c00

08000c64 <GPIO_Init>:
 8000c64:	e92d 43f0 	stmdb	sp!, {r4, r5, r6, r7, r8, r9, lr}
 8000c68:	680d      	ldr	r5, [r1, #0]
 8000c6a:	2200      	movs	r2, #0
 8000c6c:	2601      	movs	r6, #1
 8000c6e:	2403      	movs	r4, #3
 8000c70:	fa06 fe02 	lsl.w	lr, r6, r2
 8000c74:	ea3e 0305 	bics.w	r3, lr, r5
 8000c78:	d13d      	bne.n	8000cf6 <GPIO_Init+0x92>
 8000c7a:	0057      	lsls	r7, r2, #1
 8000c7c:	f8d0 c000 	ldr.w	ip, [r0]
 8000c80:	fa04 f307 	lsl.w	r3, r4, r7
 8000c84:	43db      	mvns	r3, r3
 8000c86:	ea0c 0c03 	and.w	ip, ip, r3
 8000c8a:	f8c0 c000 	str.w	ip, [r0]
 8000c8e:	f891 c004 	ldrb.w	ip, [r1, #4]
 8000c92:	f8d0 9000 	ldr.w	r9, [r0]
 8000c96:	fa0c f807 	lsl.w	r8, ip, r7
 8000c9a:	f10c 3cff 	add.w	ip, ip, #4294967295	; 0xffffffff
 8000c9e:	ea48 0809 	orr.w	r8, r8, r9
 8000ca2:	f1bc 0f01 	cmp.w	ip, #1
 8000ca6:	f8c0 8000 	str.w	r8, [r0]
 8000caa:	d817      	bhi.n	8000cdc <GPIO_Init+0x78>
 8000cac:	f8d0 c008 	ldr.w	ip, [r0, #8]
 8000cb0:	ea03 030c 	and.w	r3, r3, ip
 8000cb4:	6083      	str	r3, [r0, #8]
 8000cb6:	794b      	ldrb	r3, [r1, #5]
 8000cb8:	f8d0 c008 	ldr.w	ip, [r0, #8]
 8000cbc:	40bb      	lsls	r3, r7
 8000cbe:	ea43 030c 	orr.w	r3, r3, ip
 8000cc2:	6083      	str	r3, [r0, #8]
 8000cc4:	6843      	ldr	r3, [r0, #4]
 8000cc6:	ea23 030e 	bic.w	r3, r3, lr
 8000cca:	6043      	str	r3, [r0, #4]
 8000ccc:	798b      	ldrb	r3, [r1, #6]
 8000cce:	f8d0 c004 	ldr.w	ip, [r0, #4]
 8000cd2:	4093      	lsls	r3, r2
 8000cd4:	b29b      	uxth	r3, r3
 8000cd6:	ea43 030c 	orr.w	r3, r3, ip
 8000cda:	6043      	str	r3, [r0, #4]
 8000cdc:	68c3      	ldr	r3, [r0, #12]
 8000cde:	fa04 fc07 	lsl.w	ip, r4, r7
 8000ce2:	ea23 030c 	bic.w	r3, r3, ip
 8000ce6:	60c3      	str	r3, [r0, #12]
 8000ce8:	79cb      	ldrb	r3, [r1, #7]
 8000cea:	f8d0 c00c 	ldr.w	ip, [r0, #12]
 8000cee:	40bb      	lsls	r3, r7
 8000cf0:	ea43 030c 	orr.w	r3, r3, ip
 8000cf4:	60c3      	str	r3, [r0, #12]
 8000cf6:	3201      	adds	r2, #1
 8000cf8:	2a10      	cmp	r2, #16
 8000cfa:	d1b9      	bne.n	8000c70 <GPIO_Init+0xc>
 8000cfc:	e8bd 83f0 	ldmia.w	sp!, {r4, r5, r6, r7, r8, r9, pc}

08000d00 <GPIO_StructInit>:
 8000d00:	f64f 73ff 	movw	r3, #65535	; 0xffff
 8000d04:	6003      	str	r3, [r0, #0]
 8000d06:	2300      	movs	r3, #0
 8000d08:	7103      	strb	r3, [r0, #4]
 8000d0a:	7143      	strb	r3, [r0, #5]
 8000d0c:	7183      	strb	r3, [r0, #6]
 8000d0e:	71c3      	strb	r3, [r0, #7]
 8000d10:	4770      	bx	lr

08000d12 <GPIO_ReadInputDataBit>:
 8000d12:	6903      	ldr	r3, [r0, #16]
 8000d14:	4219      	tst	r1, r3
 8000d16:	bf14      	ite	ne
 8000d18:	2001      	movne	r0, #1
 8000d1a:	2000      	moveq	r0, #0
 8000d1c:	4770      	bx	lr

08000d1e <GPIO_SetBits>:
 8000d1e:	8301      	strh	r1, [r0, #24]
 8000d20:	4770      	bx	lr

08000d22 <GPIO_ResetBits>:
 8000d22:	8341      	strh	r1, [r0, #26]
 8000d24:	4770      	bx	lr

08000d26 <GPIO_PinAFConfig>:
 8000d26:	f001 0307 	and.w	r3, r1, #7
 8000d2a:	08c9      	lsrs	r1, r1, #3
 8000d2c:	eb00 0081 	add.w	r0, r0, r1, lsl #2
 8000d30:	b510      	push	{r4, lr}
 8000d32:	6a01      	ldr	r1, [r0, #32]
 8000d34:	009b      	lsls	r3, r3, #2
 8000d36:	240f      	movs	r4, #15
 8000d38:	409c      	lsls	r4, r3
 8000d3a:	ea21 0104 	bic.w	r1, r1, r4
 8000d3e:	6201      	str	r1, [r0, #32]
 8000d40:	6a01      	ldr	r1, [r0, #32]
 8000d42:	409a      	lsls	r2, r3
 8000d44:	430a      	orrs	r2, r1
 8000d46:	6202      	str	r2, [r0, #32]
 8000d48:	bd10      	pop	{r4, pc}
	...

08000d4c <RCC_GetClocksFreq>:
 8000d4c:	4a1d      	ldr	r2, [pc, #116]	; (8000dc4 <RCC_GetClocksFreq+0x78>)
 8000d4e:	6893      	ldr	r3, [r2, #8]
 8000d50:	f003 030c 	and.w	r3, r3, #12
 8000d54:	2b04      	cmp	r3, #4
 8000d56:	b510      	push	{r4, lr}
 8000d58:	d01a      	beq.n	8000d90 <RCC_GetClocksFreq+0x44>
 8000d5a:	2b08      	cmp	r3, #8
 8000d5c:	d01a      	beq.n	8000d94 <RCC_GetClocksFreq+0x48>
 8000d5e:	4b1a      	ldr	r3, [pc, #104]	; (8000dc8 <RCC_GetClocksFreq+0x7c>)
 8000d60:	4a18      	ldr	r2, [pc, #96]	; (8000dc4 <RCC_GetClocksFreq+0x78>)
 8000d62:	6003      	str	r3, [r0, #0]
 8000d64:	6893      	ldr	r3, [r2, #8]
 8000d66:	4919      	ldr	r1, [pc, #100]	; (8000dcc <RCC_GetClocksFreq+0x80>)
 8000d68:	f3c3 1303 	ubfx	r3, r3, #4, #4
 8000d6c:	5ccc      	ldrb	r4, [r1, r3]
 8000d6e:	6803      	ldr	r3, [r0, #0]
 8000d70:	40e3      	lsrs	r3, r4
 8000d72:	6043      	str	r3, [r0, #4]
 8000d74:	6894      	ldr	r4, [r2, #8]
 8000d76:	f3c4 2482 	ubfx	r4, r4, #10, #3
 8000d7a:	5d0c      	ldrb	r4, [r1, r4]
 8000d7c:	fa23 f404 	lsr.w	r4, r3, r4
 8000d80:	6084      	str	r4, [r0, #8]
 8000d82:	6892      	ldr	r2, [r2, #8]
 8000d84:	f3c2 3242 	ubfx	r2, r2, #13, #3
 8000d88:	5c8a      	ldrb	r2, [r1, r2]
 8000d8a:	40d3      	lsrs	r3, r2
 8000d8c:	60c3      	str	r3, [r0, #12]
 8000d8e:	bd10      	pop	{r4, pc}
 8000d90:	4b0f      	ldr	r3, [pc, #60]	; (8000dd0 <RCC_GetClocksFreq+0x84>)
 8000d92:	e7e5      	b.n	8000d60 <RCC_GetClocksFreq+0x14>
 8000d94:	6854      	ldr	r4, [r2, #4]
 8000d96:	6851      	ldr	r1, [r2, #4]
 8000d98:	6852      	ldr	r2, [r2, #4]
 8000d9a:	0263      	lsls	r3, r4, #9
 8000d9c:	f3c2 1288 	ubfx	r2, r2, #6, #9
 8000da0:	f001 013f 	and.w	r1, r1, #63	; 0x3f
 8000da4:	bf4c      	ite	mi
 8000da6:	4b0a      	ldrmi	r3, [pc, #40]	; (8000dd0 <RCC_GetClocksFreq+0x84>)
 8000da8:	4b07      	ldrpl	r3, [pc, #28]	; (8000dc8 <RCC_GetClocksFreq+0x7c>)
 8000daa:	fbb3 f3f1 	udiv	r3, r3, r1
 8000dae:	4353      	muls	r3, r2
 8000db0:	4a04      	ldr	r2, [pc, #16]	; (8000dc4 <RCC_GetClocksFreq+0x78>)
 8000db2:	6852      	ldr	r2, [r2, #4]
 8000db4:	f3c2 4201 	ubfx	r2, r2, #16, #2
 8000db8:	3201      	adds	r2, #1
 8000dba:	0052      	lsls	r2, r2, #1
 8000dbc:	fbb3 f3f2 	udiv	r3, r3, r2
 8000dc0:	e7ce      	b.n	8000d60 <RCC_GetClocksFreq+0x14>
 8000dc2:	bf00      	nop
 8000dc4:	40023800 	.word	0x40023800
 8000dc8:	00f42400 	.word	0x00f42400
 8000dcc:	20000000 	.word	0x20000000
 8000dd0:	017d7840 	.word	0x017d7840

08000dd4 <RCC_AHB1PeriphClockCmd>:
 8000dd4:	4b04      	ldr	r3, [pc, #16]	; (8000de8 <RCC_AHB1PeriphClockCmd+0x14>)
 8000dd6:	6b1a      	ldr	r2, [r3, #48]	; 0x30
 8000dd8:	b111      	cbz	r1, 8000de0 <RCC_AHB1PeriphClockCmd+0xc>
 8000dda:	4310      	orrs	r0, r2
 8000ddc:	6318      	str	r0, [r3, #48]	; 0x30
 8000dde:	4770      	bx	lr
 8000de0:	ea22 0000 	bic.w	r0, r2, r0
 8000de4:	e7fa      	b.n	8000ddc <RCC_AHB1PeriphClockCmd+0x8>
 8000de6:	bf00      	nop
 8000de8:	40023800 	.word	0x40023800

08000dec <RCC_APB1PeriphClockCmd>:
 8000dec:	4b04      	ldr	r3, [pc, #16]	; (8000e00 <RCC_APB1PeriphClockCmd+0x14>)
 8000dee:	6c1a      	ldr	r2, [r3, #64]	; 0x40
 8000df0:	b111      	cbz	r1, 8000df8 <RCC_APB1PeriphClockCmd+0xc>
 8000df2:	4310      	orrs	r0, r2
 8000df4:	6418      	str	r0, [r3, #64]	; 0x40
 8000df6:	4770      	bx	lr
 8000df8:	ea22 0000 	bic.w	r0, r2, r0
 8000dfc:	e7fa      	b.n	8000df4 <RCC_APB1PeriphClockCmd+0x8>
 8000dfe:	bf00      	nop
 8000e00:	40023800 	.word	0x40023800

08000e04 <RCC_APB2PeriphClockCmd>:
 8000e04:	4b04      	ldr	r3, [pc, #16]	; (8000e18 <RCC_APB2PeriphClockCmd+0x14>)
 8000e06:	6c5a      	ldr	r2, [r3, #68]	; 0x44
 8000e08:	b111      	cbz	r1, 8000e10 <RCC_APB2PeriphClockCmd+0xc>
 8000e0a:	4310      	orrs	r0, r2
 8000e0c:	6458      	str	r0, [r3, #68]	; 0x44
 8000e0e:	4770      	bx	lr
 8000e10:	ea22 0000 	bic.w	r0, r2, r0
 8000e14:	e7fa      	b.n	8000e0c <RCC_APB2PeriphClockCmd+0x8>
 8000e16:	bf00      	nop
 8000e18:	40023800 	.word	0x40023800

08000e1c <RCC_APB1PeriphResetCmd>:
 8000e1c:	4b04      	ldr	r3, [pc, #16]	; (8000e30 <RCC_APB1PeriphResetCmd+0x14>)
 8000e1e:	6a1a      	ldr	r2, [r3, #32]
 8000e20:	b111      	cbz	r1, 8000e28 <RCC_APB1PeriphResetCmd+0xc>
 8000e22:	4310      	orrs	r0, r2
 8000e24:	6218      	str	r0, [r3, #32]
 8000e26:	4770      	bx	lr
 8000e28:	ea22 0000 	bic.w	r0, r2, r0
 8000e2c:	e7fa      	b.n	8000e24 <RCC_APB1PeriphResetCmd+0x8>
 8000e2e:	bf00      	nop
 8000e30:	40023800 	.word	0x40023800

08000e34 <RCC_APB2PeriphResetCmd>:
 8000e34:	4b04      	ldr	r3, [pc, #16]	; (8000e48 <RCC_APB2PeriphResetCmd+0x14>)
 8000e36:	6a5a      	ldr	r2, [r3, #36]	; 0x24
 8000e38:	b111      	cbz	r1, 8000e40 <RCC_APB2PeriphResetCmd+0xc>
 8000e3a:	4310      	orrs	r0, r2
 8000e3c:	6258      	str	r0, [r3, #36]	; 0x24
 8000e3e:	4770      	bx	lr
 8000e40:	ea22 0000 	bic.w	r0, r2, r0
 8000e44:	e7fa      	b.n	8000e3c <RCC_APB2PeriphResetCmd+0x8>
 8000e46:	bf00      	nop
 8000e48:	40023800 	.word	0x40023800

08000e4c <SPI_I2S_DeInit>:
 8000e4c:	b508      	push	{r3, lr}
 8000e4e:	4b27      	ldr	r3, [pc, #156]	; (8000eec <SPI_I2S_DeInit+0xa0>)
 8000e50:	4298      	cmp	r0, r3
 8000e52:	d10b      	bne.n	8000e6c <SPI_I2S_DeInit+0x20>
 8000e54:	2101      	movs	r1, #1
 8000e56:	f44f 5080 	mov.w	r0, #4096	; 0x1000
 8000e5a:	f7ff ffeb 	bl	8000e34 <RCC_APB2PeriphResetCmd>
 8000e5e:	2100      	movs	r1, #0
 8000e60:	f44f 5080 	mov.w	r0, #4096	; 0x1000
 8000e64:	e8bd 4008 	ldmia.w	sp!, {r3, lr}
 8000e68:	f7ff bfe4 	b.w	8000e34 <RCC_APB2PeriphResetCmd>
 8000e6c:	4b20      	ldr	r3, [pc, #128]	; (8000ef0 <SPI_I2S_DeInit+0xa4>)
 8000e6e:	4298      	cmp	r0, r3
 8000e70:	d10b      	bne.n	8000e8a <SPI_I2S_DeInit+0x3e>
 8000e72:	2101      	movs	r1, #1
 8000e74:	f44f 4080 	mov.w	r0, #16384	; 0x4000
 8000e78:	f7ff ffd0 	bl	8000e1c <RCC_APB1PeriphResetCmd>
 8000e7c:	2100      	movs	r1, #0
 8000e7e:	f44f 4080 	mov.w	r0, #16384	; 0x4000
 8000e82:	e8bd 4008 	ldmia.w	sp!, {r3, lr}
 8000e86:	f7ff bfc9 	b.w	8000e1c <RCC_APB1PeriphResetCmd>
 8000e8a:	4b1a      	ldr	r3, [pc, #104]	; (8000ef4 <SPI_I2S_DeInit+0xa8>)
 8000e8c:	4298      	cmp	r0, r3
 8000e8e:	d108      	bne.n	8000ea2 <SPI_I2S_DeInit+0x56>
 8000e90:	2101      	movs	r1, #1
 8000e92:	f44f 4000 	mov.w	r0, #32768	; 0x8000
 8000e96:	f7ff ffc1 	bl	8000e1c <RCC_APB1PeriphResetCmd>
 8000e9a:	2100      	movs	r1, #0
 8000e9c:	f44f 4000 	mov.w	r0, #32768	; 0x8000
 8000ea0:	e7ef      	b.n	8000e82 <SPI_I2S_DeInit+0x36>
 8000ea2:	4b15      	ldr	r3, [pc, #84]	; (8000ef8 <SPI_I2S_DeInit+0xac>)
 8000ea4:	4298      	cmp	r0, r3
 8000ea6:	d108      	bne.n	8000eba <SPI_I2S_DeInit+0x6e>
 8000ea8:	2101      	movs	r1, #1
 8000eaa:	f44f 5000 	mov.w	r0, #8192	; 0x2000
 8000eae:	f7ff ffc1 	bl	8000e34 <RCC_APB2PeriphResetCmd>
 8000eb2:	2100      	movs	r1, #0
 8000eb4:	f44f 5000 	mov.w	r0, #8192	; 0x2000
 8000eb8:	e7d4      	b.n	8000e64 <SPI_I2S_DeInit+0x18>
 8000eba:	4b10      	ldr	r3, [pc, #64]	; (8000efc <SPI_I2S_DeInit+0xb0>)
 8000ebc:	4298      	cmp	r0, r3
 8000ebe:	d108      	bne.n	8000ed2 <SPI_I2S_DeInit+0x86>
 8000ec0:	2101      	movs	r1, #1
 8000ec2:	f44f 1080 	mov.w	r0, #1048576	; 0x100000
 8000ec6:	f7ff ffb5 	bl	8000e34 <RCC_APB2PeriphResetCmd>
 8000eca:	2100      	movs	r1, #0
 8000ecc:	f44f 1080 	mov.w	r0, #1048576	; 0x100000
 8000ed0:	e7c8      	b.n	8000e64 <SPI_I2S_DeInit+0x18>
 8000ed2:	4b0b      	ldr	r3, [pc, #44]	; (8000f00 <SPI_I2S_DeInit+0xb4>)
 8000ed4:	4298      	cmp	r0, r3
 8000ed6:	d108      	bne.n	8000eea <SPI_I2S_DeInit+0x9e>
 8000ed8:	2101      	movs	r1, #1
 8000eda:	f44f 1000 	mov.w	r0, #2097152	; 0x200000
 8000ede:	f7ff ffa9 	bl	8000e34 <RCC_APB2PeriphResetCmd>
 8000ee2:	2100      	movs	r1, #0
 8000ee4:	f44f 1000 	mov.w	r0, #2097152	; 0x200000
 8000ee8:	e7bc      	b.n	8000e64 <SPI_I2S_DeInit+0x18>
 8000eea:	bd08      	pop	{r3, pc}
 8000eec:	40013000 	.word	0x40013000
 8000ef0:	40003800 	.word	0x40003800
 8000ef4:	40003c00 	.word	0x40003c00
 8000ef8:	40013400 	.word	0x40013400
 8000efc:	40015000 	.word	0x40015000
 8000f00:	40015400 	.word	0x40015400

08000f04 <SPI_Init>:
 8000f04:	8803      	ldrh	r3, [r0, #0]
 8000f06:	b510      	push	{r4, lr}
 8000f08:	f403 5241 	and.w	r2, r3, #12352	; 0x3040
 8000f0c:	884c      	ldrh	r4, [r1, #2]
 8000f0e:	880b      	ldrh	r3, [r1, #0]
 8000f10:	4323      	orrs	r3, r4
 8000f12:	888c      	ldrh	r4, [r1, #4]
 8000f14:	4323      	orrs	r3, r4
 8000f16:	88cc      	ldrh	r4, [r1, #6]
 8000f18:	4323      	orrs	r3, r4
 8000f1a:	890c      	ldrh	r4, [r1, #8]
 8000f1c:	4323      	orrs	r3, r4
 8000f1e:	894c      	ldrh	r4, [r1, #10]
 8000f20:	4323      	orrs	r3, r4
 8000f22:	898c      	ldrh	r4, [r1, #12]
 8000f24:	4323      	orrs	r3, r4
 8000f26:	89cc      	ldrh	r4, [r1, #14]
 8000f28:	4323      	orrs	r3, r4
 8000f2a:	4313      	orrs	r3, r2
 8000f2c:	8003      	strh	r3, [r0, #0]
 8000f2e:	8b83      	ldrh	r3, [r0, #28]
 8000f30:	f423 6300 	bic.w	r3, r3, #2048	; 0x800
 8000f34:	041b      	lsls	r3, r3, #16
 8000f36:	0c1b      	lsrs	r3, r3, #16
 8000f38:	8383      	strh	r3, [r0, #28]
 8000f3a:	8a0b      	ldrh	r3, [r1, #16]
 8000f3c:	8203      	strh	r3, [r0, #16]
 8000f3e:	bd10      	pop	{r4, pc}

08000f40 <SPI_StructInit>:
 8000f40:	2300      	movs	r3, #0
 8000f42:	8003      	strh	r3, [r0, #0]
 8000f44:	8043      	strh	r3, [r0, #2]
 8000f46:	8083      	strh	r3, [r0, #4]
 8000f48:	80c3      	strh	r3, [r0, #6]
 8000f4a:	8103      	strh	r3, [r0, #8]
 8000f4c:	8143      	strh	r3, [r0, #10]
 8000f4e:	8183      	strh	r3, [r0, #12]
 8000f50:	81c3      	strh	r3, [r0, #14]
 8000f52:	2307      	movs	r3, #7
 8000f54:	8203      	strh	r3, [r0, #16]
 8000f56:	4770      	bx	lr

08000f58 <SPI_Cmd>:
 8000f58:	8803      	ldrh	r3, [r0, #0]
 8000f5a:	b119      	cbz	r1, 8000f64 <SPI_Cmd+0xc>
 8000f5c:	f043 0340 	orr.w	r3, r3, #64	; 0x40
 8000f60:	8003      	strh	r3, [r0, #0]
 8000f62:	4770      	bx	lr
 8000f64:	f023 0340 	bic.w	r3, r3, #64	; 0x40
 8000f68:	041b      	lsls	r3, r3, #16
 8000f6a:	0c1b      	lsrs	r3, r3, #16
 8000f6c:	e7f8      	b.n	8000f60 <SPI_Cmd+0x8>

08000f6e <SPI_NSSInternalSoftwareConfig>:
 8000f6e:	f64f 63ff 	movw	r3, #65279	; 0xfeff
 8000f72:	4299      	cmp	r1, r3
 8000f74:	8803      	ldrh	r3, [r0, #0]
 8000f76:	bf05      	ittet	eq
 8000f78:	f423 7380 	biceq.w	r3, r3, #256	; 0x100
 8000f7c:	041b      	lsleq	r3, r3, #16
 8000f7e:	f443 7380 	orrne.w	r3, r3, #256	; 0x100
 8000f82:	0c1b      	lsreq	r3, r3, #16
 8000f84:	8003      	strh	r3, [r0, #0]
 8000f86:	4770      	bx	lr

08000f88 <SPI_I2S_ReceiveData>:
 8000f88:	8980      	ldrh	r0, [r0, #12]
 8000f8a:	4770      	bx	lr

08000f8c <SPI_I2S_SendData>:
 8000f8c:	8181      	strh	r1, [r0, #12]
 8000f8e:	4770      	bx	lr

08000f90 <SPI_I2S_GetFlagStatus>:
 8000f90:	8903      	ldrh	r3, [r0, #8]
 8000f92:	4219      	tst	r1, r3
 8000f94:	bf14      	ite	ne
 8000f96:	2001      	movne	r0, #1
 8000f98:	2000      	moveq	r0, #0
 8000f9a:	4770      	bx	lr

08000f9c <SYSCFG_EXTILineConfig>:
 8000f9c:	f001 0303 	and.w	r3, r1, #3
 8000fa0:	f001 01fc 	and.w	r1, r1, #252	; 0xfc
 8000fa4:	f101 4180 	add.w	r1, r1, #1073741824	; 0x40000000
 8000fa8:	f501 319c 	add.w	r1, r1, #79872	; 0x13800
 8000fac:	b510      	push	{r4, lr}
 8000fae:	688a      	ldr	r2, [r1, #8]
 8000fb0:	009b      	lsls	r3, r3, #2
 8000fb2:	240f      	movs	r4, #15
 8000fb4:	409c      	lsls	r4, r3
 8000fb6:	ea22 0204 	bic.w	r2, r2, r4
 8000fba:	608a      	str	r2, [r1, #8]
 8000fbc:	688a      	ldr	r2, [r1, #8]
 8000fbe:	4098      	lsls	r0, r3
 8000fc0:	4310      	orrs	r0, r2
 8000fc2:	6088      	str	r0, [r1, #8]
 8000fc4:	bd10      	pop	{r4, pc}
	...

08000fc8 <TIM_TimeBaseInit>:
 8000fc8:	4a1c      	ldr	r2, [pc, #112]	; (800103c <TIM_TimeBaseInit+0x74>)
 8000fca:	8803      	ldrh	r3, [r0, #0]
 8000fcc:	4290      	cmp	r0, r2
 8000fce:	b29b      	uxth	r3, r3
 8000fd0:	d012      	beq.n	8000ff8 <TIM_TimeBaseInit+0x30>
 8000fd2:	f502 6280 	add.w	r2, r2, #1024	; 0x400
 8000fd6:	4290      	cmp	r0, r2
 8000fd8:	d00e      	beq.n	8000ff8 <TIM_TimeBaseInit+0x30>
 8000fda:	f1b0 4f80 	cmp.w	r0, #1073741824	; 0x40000000
 8000fde:	d00b      	beq.n	8000ff8 <TIM_TimeBaseInit+0x30>
 8000fe0:	f5a2 3280 	sub.w	r2, r2, #65536	; 0x10000
 8000fe4:	4290      	cmp	r0, r2
 8000fe6:	d007      	beq.n	8000ff8 <TIM_TimeBaseInit+0x30>
 8000fe8:	f502 6280 	add.w	r2, r2, #1024	; 0x400
 8000fec:	4290      	cmp	r0, r2
 8000fee:	d003      	beq.n	8000ff8 <TIM_TimeBaseInit+0x30>
 8000ff0:	f502 6280 	add.w	r2, r2, #1024	; 0x400
 8000ff4:	4290      	cmp	r0, r2
 8000ff6:	d103      	bne.n	8001000 <TIM_TimeBaseInit+0x38>
 8000ff8:	884a      	ldrh	r2, [r1, #2]
 8000ffa:	f023 0370 	bic.w	r3, r3, #112	; 0x70
 8000ffe:	4313      	orrs	r3, r2
 8001000:	4a0f      	ldr	r2, [pc, #60]	; (8001040 <TIM_TimeBaseInit+0x78>)
 8001002:	4290      	cmp	r0, r2
 8001004:	d008      	beq.n	8001018 <TIM_TimeBaseInit+0x50>
 8001006:	f502 6280 	add.w	r2, r2, #1024	; 0x400
 800100a:	4290      	cmp	r0, r2
 800100c:	bf1f      	itttt	ne
 800100e:	f423 7340 	bicne.w	r3, r3, #768	; 0x300
 8001012:	890a      	ldrhne	r2, [r1, #8]
 8001014:	b29b      	uxthne	r3, r3
 8001016:	4313      	orrne	r3, r2
 8001018:	8003      	strh	r3, [r0, #0]
 800101a:	684b      	ldr	r3, [r1, #4]
 800101c:	62c3      	str	r3, [r0, #44]	; 0x2c
 800101e:	880b      	ldrh	r3, [r1, #0]
 8001020:	8503      	strh	r3, [r0, #40]	; 0x28
 8001022:	4b06      	ldr	r3, [pc, #24]	; (800103c <TIM_TimeBaseInit+0x74>)
 8001024:	4298      	cmp	r0, r3
 8001026:	d003      	beq.n	8001030 <TIM_TimeBaseInit+0x68>
 8001028:	f503 6380 	add.w	r3, r3, #1024	; 0x400
 800102c:	4298      	cmp	r0, r3
 800102e:	d101      	bne.n	8001034 <TIM_TimeBaseInit+0x6c>
 8001030:	7a8b      	ldrb	r3, [r1, #10]
 8001032:	8603      	strh	r3, [r0, #48]	; 0x30
 8001034:	2301      	movs	r3, #1
 8001036:	8283      	strh	r3, [r0, #20]
 8001038:	4770      	bx	lr
 800103a:	bf00      	nop
 800103c:	40010000 	.word	0x40010000
 8001040:	40001000 	.word	0x40001000

08001044 <TIM_TimeBaseStructInit>:
 8001044:	2300      	movs	r3, #0
 8001046:	f04f 32ff 	mov.w	r2, #4294967295	; 0xffffffff
 800104a:	e9c0 3200 	strd	r3, r2, [r0]
 800104e:	8103      	strh	r3, [r0, #8]
 8001050:	7283      	strb	r3, [r0, #10]
 8001052:	4770      	bx	lr

08001054 <TIM_SetCounter>:
 8001054:	6241      	str	r1, [r0, #36]	; 0x24
 8001056:	4770      	bx	lr

08001058 <TIM_ARRPreloadConfig>:
 8001058:	8803      	ldrh	r3, [r0, #0]
 800105a:	b119      	cbz	r1, 8001064 <TIM_ARRPreloadConfig+0xc>
 800105c:	f043 0380 	orr.w	r3, r3, #128	; 0x80
 8001060:	8003      	strh	r3, [r0, #0]
 8001062:	4770      	bx	lr
 8001064:	f023 0380 	bic.w	r3, r3, #128	; 0x80
 8001068:	041b      	lsls	r3, r3, #16
 800106a:	0c1b      	lsrs	r3, r3, #16
 800106c:	e7f8      	b.n	8001060 <TIM_ARRPreloadConfig+0x8>

0800106e <TIM_Cmd>:
 800106e:	8803      	ldrh	r3, [r0, #0]
 8001070:	b119      	cbz	r1, 800107a <TIM_Cmd+0xc>
 8001072:	f043 0301 	orr.w	r3, r3, #1
 8001076:	8003      	strh	r3, [r0, #0]
 8001078:	4770      	bx	lr
 800107a:	f023 0301 	bic.w	r3, r3, #1
 800107e:	041b      	lsls	r3, r3, #16
 8001080:	0c1b      	lsrs	r3, r3, #16
 8001082:	e7f8      	b.n	8001076 <TIM_Cmd+0x8>

08001084 <TIM_SetCompare2>:
 8001084:	6381      	str	r1, [r0, #56]	; 0x38
 8001086:	4770      	bx	lr

08001088 <TIM_CCxCmd>:
 8001088:	8c03      	ldrh	r3, [r0, #32]
 800108a:	b510      	push	{r4, lr}
 800108c:	2401      	movs	r4, #1
 800108e:	408c      	lsls	r4, r1
 8001090:	ea23 0304 	bic.w	r3, r3, r4
 8001094:	8403      	strh	r3, [r0, #32]
 8001096:	8c03      	ldrh	r3, [r0, #32]
 8001098:	fa02 f101 	lsl.w	r1, r2, r1
 800109c:	4319      	orrs	r1, r3
 800109e:	b289      	uxth	r1, r1
 80010a0:	8401      	strh	r1, [r0, #32]
 80010a2:	bd10      	pop	{r4, pc}

080010a4 <TIM_ITConfig>:
 80010a4:	8983      	ldrh	r3, [r0, #12]
 80010a6:	b112      	cbz	r2, 80010ae <TIM_ITConfig+0xa>
 80010a8:	4319      	orrs	r1, r3
 80010aa:	8181      	strh	r1, [r0, #12]
 80010ac:	4770      	bx	lr
 80010ae:	ea23 0101 	bic.w	r1, r3, r1
 80010b2:	e7fa      	b.n	80010aa <TIM_ITConfig+0x6>

080010b4 <TIM_GetITStatus>:
 80010b4:	8a03      	ldrh	r3, [r0, #16]
 80010b6:	8982      	ldrh	r2, [r0, #12]
 80010b8:	ea11 0003 	ands.w	r0, r1, r3
 80010bc:	b292      	uxth	r2, r2
 80010be:	d003      	beq.n	80010c8 <TIM_GetITStatus+0x14>
 80010c0:	420a      	tst	r2, r1
 80010c2:	bf14      	ite	ne
 80010c4:	2001      	movne	r0, #1
 80010c6:	2000      	moveq	r0, #0
 80010c8:	4770      	bx	lr

080010ca <TIM_ClearITPendingBit>:
 80010ca:	43c9      	mvns	r1, r1
 80010cc:	b289      	uxth	r1, r1
 80010ce:	8201      	strh	r1, [r0, #16]
 80010d0:	4770      	bx	lr

080010d2 <TIM_SelectOutputTrigger>:
 80010d2:	8883      	ldrh	r3, [r0, #4]
 80010d4:	f023 0370 	bic.w	r3, r3, #112	; 0x70
 80010d8:	041b      	lsls	r3, r3, #16
 80010da:	0c1b      	lsrs	r3, r3, #16
 80010dc:	8083      	strh	r3, [r0, #4]
 80010de:	8883      	ldrh	r3, [r0, #4]
 80010e0:	4319      	orrs	r1, r3
 80010e2:	8081      	strh	r1, [r0, #4]
 80010e4:	4770      	bx	lr
	...

080010e8 <CAT25512_SendByte>:
 80010e8:	b538      	push	{r3, r4, r5, lr}
 80010ea:	4d0c      	ldr	r5, [pc, #48]	; (800111c <CAT25512_SendByte+0x34>)
 80010ec:	4604      	mov	r4, r0
 80010ee:	2102      	movs	r1, #2
 80010f0:	4628      	mov	r0, r5
 80010f2:	f7ff ff4d 	bl	8000f90 <SPI_I2S_GetFlagStatus>
 80010f6:	2800      	cmp	r0, #0
 80010f8:	d0f9      	beq.n	80010ee <CAT25512_SendByte+0x6>
 80010fa:	4621      	mov	r1, r4
 80010fc:	4807      	ldr	r0, [pc, #28]	; (800111c <CAT25512_SendByte+0x34>)
 80010fe:	4c07      	ldr	r4, [pc, #28]	; (800111c <CAT25512_SendByte+0x34>)
 8001100:	f7ff ff44 	bl	8000f8c <SPI_I2S_SendData>
 8001104:	2101      	movs	r1, #1
 8001106:	4620      	mov	r0, r4
 8001108:	f7ff ff42 	bl	8000f90 <SPI_I2S_GetFlagStatus>
 800110c:	2800      	cmp	r0, #0
 800110e:	d0f9      	beq.n	8001104 <CAT25512_SendByte+0x1c>
 8001110:	4802      	ldr	r0, [pc, #8]	; (800111c <CAT25512_SendByte+0x34>)
 8001112:	e8bd 4038 	ldmia.w	sp!, {r3, r4, r5, lr}
 8001116:	f7ff bf37 	b.w	8000f88 <SPI_I2S_ReceiveData>
 800111a:	bf00      	nop
 800111c:	40003c00 	.word	0x40003c00

08001120 <CAT25512_RecieveData>:
 8001120:	b510      	push	{r4, lr}
 8001122:	4c0b      	ldr	r4, [pc, #44]	; (8001150 <CAT25512_RecieveData+0x30>)
 8001124:	2102      	movs	r1, #2
 8001126:	4620      	mov	r0, r4
 8001128:	f7ff ff32 	bl	8000f90 <SPI_I2S_GetFlagStatus>
 800112c:	2800      	cmp	r0, #0
 800112e:	d0f9      	beq.n	8001124 <CAT25512_RecieveData+0x4>
 8001130:	2100      	movs	r1, #0
 8001132:	4807      	ldr	r0, [pc, #28]	; (8001150 <CAT25512_RecieveData+0x30>)
 8001134:	4c06      	ldr	r4, [pc, #24]	; (8001150 <CAT25512_RecieveData+0x30>)
 8001136:	f7ff ff29 	bl	8000f8c <SPI_I2S_SendData>
 800113a:	2101      	movs	r1, #1
 800113c:	4620      	mov	r0, r4
 800113e:	f7ff ff27 	bl	8000f90 <SPI_I2S_GetFlagStatus>
 8001142:	2800      	cmp	r0, #0
 8001144:	d0f9      	beq.n	800113a <CAT25512_RecieveData+0x1a>
 8001146:	4802      	ldr	r0, [pc, #8]	; (8001150 <CAT25512_RecieveData+0x30>)
 8001148:	e8bd 4010 	ldmia.w	sp!, {r4, lr}
 800114c:	f7ff bf1c 	b.w	8000f88 <SPI_I2S_ReceiveData>
 8001150:	40003c00 	.word	0x40003c00

08001154 <CAT25512_init>:
 8001154:	b5f0      	push	{r4, r5, r6, r7, lr}
 8001156:	2101      	movs	r1, #1
 8001158:	b089      	sub	sp, #36	; 0x24
 800115a:	2004      	movs	r0, #4
 800115c:	f7ff fe3a 	bl	8000dd4 <RCC_AHB1PeriphClockCmd>
 8001160:	4d33      	ldr	r5, [pc, #204]	; (8001230 <CAT25512_init+0xdc>)
 8001162:	a801      	add	r0, sp, #4
 8001164:	f7ff fdcc 	bl	8000d00 <GPIO_StructInit>
 8001168:	f44f 53e0 	mov.w	r3, #7168	; 0x1c00
 800116c:	2401      	movs	r4, #1
 800116e:	9301      	str	r3, [sp, #4]
 8001170:	2600      	movs	r6, #0
 8001172:	2302      	movs	r3, #2
 8001174:	a901      	add	r1, sp, #4
 8001176:	4628      	mov	r0, r5
 8001178:	f88d 3008 	strb.w	r3, [sp, #8]
 800117c:	f88d 3009 	strb.w	r3, [sp, #9]
 8001180:	f88d 600a 	strb.w	r6, [sp, #10]
 8001184:	f88d 400b 	strb.w	r4, [sp, #11]
 8001188:	f7ff fd6c 	bl	8000c64 <GPIO_Init>
 800118c:	4621      	mov	r1, r4
 800118e:	2008      	movs	r0, #8
 8001190:	f7ff fe20 	bl	8000dd4 <RCC_AHB1PeriphClockCmd>
 8001194:	a801      	add	r0, sp, #4
 8001196:	f7ff fdb3 	bl	8000d00 <GPIO_StructInit>
 800119a:	f88d 600a 	strb.w	r6, [sp, #10]
 800119e:	4e25      	ldr	r6, [pc, #148]	; (8001234 <CAT25512_init+0xe0>)
 80011a0:	f88d 4008 	strb.w	r4, [sp, #8]
 80011a4:	2704      	movs	r7, #4
 80011a6:	2303      	movs	r3, #3
 80011a8:	eb0d 0107 	add.w	r1, sp, r7
 80011ac:	4630      	mov	r0, r6
 80011ae:	f88d 3009 	strb.w	r3, [sp, #9]
 80011b2:	9701      	str	r7, [sp, #4]
 80011b4:	f88d 400b 	strb.w	r4, [sp, #11]
 80011b8:	f7ff fd54 	bl	8000c64 <GPIO_Init>
 80011bc:	4628      	mov	r0, r5
 80011be:	2206      	movs	r2, #6
 80011c0:	210a      	movs	r1, #10
 80011c2:	f7ff fdb0 	bl	8000d26 <GPIO_PinAFConfig>
 80011c6:	4628      	mov	r0, r5
 80011c8:	2206      	movs	r2, #6
 80011ca:	210b      	movs	r1, #11
 80011cc:	f7ff fdab 	bl	8000d26 <GPIO_PinAFConfig>
 80011d0:	2206      	movs	r2, #6
 80011d2:	4628      	mov	r0, r5
 80011d4:	210c      	movs	r1, #12
 80011d6:	f7ff fda6 	bl	8000d26 <GPIO_PinAFConfig>
 80011da:	4639      	mov	r1, r7
 80011dc:	4630      	mov	r0, r6
 80011de:	f7ff fd9e 	bl	8000d1e <GPIO_SetBits>
 80011e2:	f5a5 35e6 	sub.w	r5, r5, #117760	; 0x1cc00
 80011e6:	4621      	mov	r1, r4
 80011e8:	f44f 4000 	mov.w	r0, #32768	; 0x8000
 80011ec:	f7ff fdfe 	bl	8000dec <RCC_APB1PeriphClockCmd>
 80011f0:	4628      	mov	r0, r5
 80011f2:	f7ff fe2b 	bl	8000e4c <SPI_I2S_DeInit>
 80011f6:	a803      	add	r0, sp, #12
 80011f8:	f7ff fea2 	bl	8000f40 <SPI_StructInit>
 80011fc:	f04f 7282 	mov.w	r2, #17039360	; 0x1040000
 8001200:	f44f 3300 	mov.w	r3, #131072	; 0x20000
 8001204:	490c      	ldr	r1, [pc, #48]	; (8001238 <CAT25512_init+0xe4>)
 8001206:	e9cd 2303 	strd	r2, r3, [sp, #12]
 800120a:	2310      	movs	r3, #16
 800120c:	e9cd 1305 	strd	r1, r3, [sp, #20]
 8001210:	4628      	mov	r0, r5
 8001212:	a903      	add	r1, sp, #12
 8001214:	f7ff fe76 	bl	8000f04 <SPI_Init>
 8001218:	4621      	mov	r1, r4
 800121a:	4628      	mov	r0, r5
 800121c:	f7ff fe9c 	bl	8000f58 <SPI_Cmd>
 8001220:	f44f 7180 	mov.w	r1, #256	; 0x100
 8001224:	4628      	mov	r0, r5
 8001226:	f7ff fea2 	bl	8000f6e <SPI_NSSInternalSoftwareConfig>
 800122a:	b009      	add	sp, #36	; 0x24
 800122c:	bdf0      	pop	{r4, r5, r6, r7, pc}
 800122e:	bf00      	nop
 8001230:	40020800 	.word	0x40020800
 8001234:	40020c00 	.word	0x40020c00
 8001238:	02000001 	.word	0x02000001

0800123c <CAT25512_ReadStatusRegister>:
 800123c:	b538      	push	{r3, r4, r5, lr}
 800123e:	4c0b      	ldr	r4, [pc, #44]	; (800126c <CAT25512_ReadStatusRegister+0x30>)
 8001240:	2104      	movs	r1, #4
 8001242:	4620      	mov	r0, r4
 8001244:	f7ff fd6d 	bl	8000d22 <GPIO_ResetBits>
 8001248:	2005      	movs	r0, #5
 800124a:	f7ff ff4d 	bl	80010e8 <CAT25512_SendByte>
 800124e:	2002      	movs	r0, #2
 8001250:	f003 fe84 	bl	8004f5c <delay_ns>
 8001254:	f7ff ff64 	bl	8001120 <CAT25512_RecieveData>
 8001258:	4605      	mov	r5, r0
 800125a:	20c8      	movs	r0, #200	; 0xc8
 800125c:	f003 fe7e 	bl	8004f5c <delay_ns>
 8001260:	4620      	mov	r0, r4
 8001262:	2104      	movs	r1, #4
 8001264:	f7ff fd5b 	bl	8000d1e <GPIO_SetBits>
 8001268:	b2e8      	uxtb	r0, r5
 800126a:	bd38      	pop	{r3, r4, r5, pc}
 800126c:	40020c00 	.word	0x40020c00

08001270 <CAT25512_WREN>:
 8001270:	b510      	push	{r4, lr}
 8001272:	4c08      	ldr	r4, [pc, #32]	; (8001294 <CAT25512_WREN+0x24>)
 8001274:	2104      	movs	r1, #4
 8001276:	4620      	mov	r0, r4
 8001278:	f7ff fd53 	bl	8000d22 <GPIO_ResetBits>
 800127c:	2006      	movs	r0, #6
 800127e:	f7ff ff33 	bl	80010e8 <CAT25512_SendByte>
 8001282:	20c8      	movs	r0, #200	; 0xc8
 8001284:	f003 fe6a 	bl	8004f5c <delay_ns>
 8001288:	4620      	mov	r0, r4
 800128a:	2104      	movs	r1, #4
 800128c:	e8bd 4010 	ldmia.w	sp!, {r4, lr}
 8001290:	f7ff bd45 	b.w	8000d1e <GPIO_SetBits>
 8001294:	40020c00 	.word	0x40020c00

08001298 <CAT25512_write_block>:
 8001298:	e92d 47f0 	stmdb	sp!, {r4, r5, r6, r7, r8, r9, sl, lr}
 800129c:	4691      	mov	r9, r2
 800129e:	4606      	mov	r6, r0
 80012a0:	468a      	mov	sl, r1
 80012a2:	f7ff ffe5 	bl	8001270 <CAT25512_WREN>
 80012a6:	2104      	movs	r1, #4
 80012a8:	4827      	ldr	r0, [pc, #156]	; (8001348 <CAT25512_write_block+0xb0>)
 80012aa:	f8df 809c 	ldr.w	r8, [pc, #156]	; 8001348 <CAT25512_write_block+0xb0>
 80012ae:	f7ff fd38 	bl	8000d22 <GPIO_ResetBits>
 80012b2:	2002      	movs	r0, #2
 80012b4:	f7ff ff18 	bl	80010e8 <CAT25512_SendByte>
 80012b8:	b2f7      	uxtb	r7, r6
 80012ba:	0a30      	lsrs	r0, r6, #8
 80012bc:	f7ff ff14 	bl	80010e8 <CAT25512_SendByte>
 80012c0:	4638      	mov	r0, r7
 80012c2:	f7ff ff11 	bl	80010e8 <CAT25512_SendByte>
 80012c6:	2400      	movs	r4, #0
 80012c8:	45a1      	cmp	r9, r4
 80012ca:	b2a5      	uxth	r5, r4
 80012cc:	d10f      	bne.n	80012ee <CAT25512_write_block+0x56>
 80012ce:	20c8      	movs	r0, #200	; 0xc8
 80012d0:	f003 fe44 	bl	8004f5c <delay_ns>
 80012d4:	2104      	movs	r1, #4
 80012d6:	481c      	ldr	r0, [pc, #112]	; (8001348 <CAT25512_write_block+0xb0>)
 80012d8:	f7ff fd21 	bl	8000d1e <GPIO_SetBits>
 80012dc:	2001      	movs	r0, #1
 80012de:	f003 f971 	bl	80045c4 <delay_ms>
 80012e2:	f7ff ffab 	bl	800123c <CAT25512_ReadStatusRegister>
 80012e6:	07c3      	lsls	r3, r0, #31
 80012e8:	d4f8      	bmi.n	80012dc <CAT25512_write_block+0x44>
 80012ea:	e8bd 87f0 	ldmia.w	sp!, {r4, r5, r6, r7, r8, r9, sl, pc}
 80012ee:	0669      	lsls	r1, r5, #25
 80012f0:	d123      	bne.n	800133a <CAT25512_write_block+0xa2>
 80012f2:	b315      	cbz	r5, 800133a <CAT25512_write_block+0xa2>
 80012f4:	20c8      	movs	r0, #200	; 0xc8
 80012f6:	f003 fe31 	bl	8004f5c <delay_ns>
 80012fa:	2104      	movs	r1, #4
 80012fc:	4640      	mov	r0, r8
 80012fe:	f7ff fd0e 	bl	8000d1e <GPIO_SetBits>
 8001302:	2001      	movs	r0, #1
 8001304:	f003 f95e 	bl	80045c4 <delay_ms>
 8001308:	f7ff ff98 	bl	800123c <CAT25512_ReadStatusRegister>
 800130c:	07c2      	lsls	r2, r0, #31
 800130e:	d4f8      	bmi.n	8001302 <CAT25512_write_block+0x6a>
 8001310:	2001      	movs	r0, #1
 8001312:	f003 f957 	bl	80045c4 <delay_ms>
 8001316:	f7ff ffab 	bl	8001270 <CAT25512_WREN>
 800131a:	2104      	movs	r1, #4
 800131c:	4640      	mov	r0, r8
 800131e:	f7ff fd00 	bl	8000d22 <GPIO_ResetBits>
 8001322:	2002      	movs	r0, #2
 8001324:	f7ff fee0 	bl	80010e8 <CAT25512_SendByte>
 8001328:	19a8      	adds	r0, r5, r6
 800132a:	f3c0 2007 	ubfx	r0, r0, #8, #8
 800132e:	f7ff fedb 	bl	80010e8 <CAT25512_SendByte>
 8001332:	1938      	adds	r0, r7, r4
 8001334:	b2c0      	uxtb	r0, r0
 8001336:	f7ff fed7 	bl	80010e8 <CAT25512_SendByte>
 800133a:	f81a 0004 	ldrb.w	r0, [sl, r4]
 800133e:	f7ff fed3 	bl	80010e8 <CAT25512_SendByte>
 8001342:	3401      	adds	r4, #1
 8001344:	e7c0      	b.n	80012c8 <CAT25512_write_block+0x30>
 8001346:	bf00      	nop
 8001348:	40020c00 	.word	0x40020c00

0800134c <CAT25512_read_block>:
 800134c:	b570      	push	{r4, r5, r6, lr}
 800134e:	4606      	mov	r6, r0
 8001350:	460c      	mov	r4, r1
 8001352:	4810      	ldr	r0, [pc, #64]	; (8001394 <CAT25512_read_block+0x48>)
 8001354:	2104      	movs	r1, #4
 8001356:	4615      	mov	r5, r2
 8001358:	f7ff fce3 	bl	8000d22 <GPIO_ResetBits>
 800135c:	2003      	movs	r0, #3
 800135e:	f7ff fec3 	bl	80010e8 <CAT25512_SendByte>
 8001362:	0a30      	lsrs	r0, r6, #8
 8001364:	f7ff fec0 	bl	80010e8 <CAT25512_SendByte>
 8001368:	b2f0      	uxtb	r0, r6
 800136a:	f7ff febd 	bl	80010e8 <CAT25512_SendByte>
 800136e:	3c01      	subs	r4, #1
 8001370:	4425      	add	r5, r4
 8001372:	42ac      	cmp	r4, r5
 8001374:	d108      	bne.n	8001388 <CAT25512_read_block+0x3c>
 8001376:	20c8      	movs	r0, #200	; 0xc8
 8001378:	f003 fdf0 	bl	8004f5c <delay_ns>
 800137c:	2104      	movs	r1, #4
 800137e:	4805      	ldr	r0, [pc, #20]	; (8001394 <CAT25512_read_block+0x48>)
 8001380:	e8bd 4070 	ldmia.w	sp!, {r4, r5, r6, lr}
 8001384:	f7ff bccb 	b.w	8000d1e <GPIO_SetBits>
 8001388:	f7ff feca 	bl	8001120 <CAT25512_RecieveData>
 800138c:	f804 0f01 	strb.w	r0, [r4, #1]!
 8001390:	e7ef      	b.n	8001372 <CAT25512_read_block+0x26>
 8001392:	bf00      	nop
 8001394:	40020c00 	.word	0x40020c00

08001398 <init_HC165>:
 8001398:	b57f      	push	{r0, r1, r2, r3, r4, r5, r6, lr}
 800139a:	4c14      	ldr	r4, [pc, #80]	; (80013ec <init_HC165+0x54>)
 800139c:	2101      	movs	r1, #1
 800139e:	2004      	movs	r0, #4
 80013a0:	f7ff fd18 	bl	8000dd4 <RCC_AHB1PeriphClockCmd>
 80013a4:	230e      	movs	r3, #14
 80013a6:	2600      	movs	r6, #0
 80013a8:	9300      	str	r3, [sp, #0]
 80013aa:	2501      	movs	r5, #1
 80013ac:	2303      	movs	r3, #3
 80013ae:	4669      	mov	r1, sp
 80013b0:	4620      	mov	r0, r4
 80013b2:	f88d 3005 	strb.w	r3, [sp, #5]
 80013b6:	f8ad 6006 	strh.w	r6, [sp, #6]
 80013ba:	f88d 5004 	strb.w	r5, [sp, #4]
 80013be:	f7ff fc51 	bl	8000c64 <GPIO_Init>
 80013c2:	a902      	add	r1, sp, #8
 80013c4:	4620      	mov	r0, r4
 80013c6:	e9cd 5602 	strd	r5, r6, [sp, #8]
 80013ca:	f7ff fc4b 	bl	8000c64 <GPIO_Init>
 80013ce:	4620      	mov	r0, r4
 80013d0:	2108      	movs	r1, #8
 80013d2:	f7ff fca4 	bl	8000d1e <GPIO_SetBits>
 80013d6:	4620      	mov	r0, r4
 80013d8:	2104      	movs	r1, #4
 80013da:	f7ff fca2 	bl	8000d22 <GPIO_ResetBits>
 80013de:	2102      	movs	r1, #2
 80013e0:	4620      	mov	r0, r4
 80013e2:	f7ff fc9e 	bl	8000d22 <GPIO_ResetBits>
 80013e6:	b004      	add	sp, #16
 80013e8:	bd70      	pop	{r4, r5, r6, pc}
 80013ea:	bf00      	nop
 80013ec:	40020800 	.word	0x40020800

080013f0 <HC165_LatchUp>:
 80013f0:	b510      	push	{r4, lr}
 80013f2:	4c0b      	ldr	r4, [pc, #44]	; (8001420 <HC165_LatchUp+0x30>)
 80013f4:	2104      	movs	r1, #4
 80013f6:	4620      	mov	r0, r4
 80013f8:	f7ff fc93 	bl	8000d22 <GPIO_ResetBits>
 80013fc:	4620      	mov	r0, r4
 80013fe:	2102      	movs	r1, #2
 8001400:	f7ff fc8f 	bl	8000d22 <GPIO_ResetBits>
 8001404:	2108      	movs	r1, #8
 8001406:	4620      	mov	r0, r4
 8001408:	f7ff fc8b 	bl	8000d22 <GPIO_ResetBits>
 800140c:	2001      	movs	r0, #1
 800140e:	f003 fba1 	bl	8004b54 <delay_us>
 8001412:	4620      	mov	r0, r4
 8001414:	2108      	movs	r1, #8
 8001416:	e8bd 4010 	ldmia.w	sp!, {r4, lr}
 800141a:	f7ff bc80 	b.w	8000d1e <GPIO_SetBits>
 800141e:	bf00      	nop
 8001420:	40020800 	.word	0x40020800

08001424 <HC165_GetByte>:
 8001424:	b570      	push	{r4, r5, r6, lr}
 8001426:	2101      	movs	r1, #1
 8001428:	4817      	ldr	r0, [pc, #92]	; (8001488 <HC165_GetByte+0x64>)
 800142a:	4e17      	ldr	r6, [pc, #92]	; (8001488 <HC165_GetByte+0x64>)
 800142c:	f7ff fc71 	bl	8000d12 <GPIO_ReadInputDataBit>
 8001430:	1e43      	subs	r3, r0, #1
 8001432:	425c      	negs	r4, r3
 8001434:	f04f 0102 	mov.w	r1, #2
 8001438:	4813      	ldr	r0, [pc, #76]	; (8001488 <HC165_GetByte+0x64>)
 800143a:	415c      	adcs	r4, r3
 800143c:	f7ff fc6f 	bl	8000d1e <GPIO_SetBits>
 8001440:	2507      	movs	r5, #7
 8001442:	2102      	movs	r1, #2
 8001444:	4630      	mov	r0, r6
 8001446:	f7ff fc6c 	bl	8000d22 <GPIO_ResetBits>
 800144a:	2001      	movs	r0, #1
 800144c:	f003 fb82 	bl	8004b54 <delay_us>
 8001450:	2101      	movs	r1, #1
 8001452:	4630      	mov	r0, r6
 8001454:	f7ff fc5d 	bl	8000d12 <GPIO_ReadInputDataBit>
 8001458:	0064      	lsls	r4, r4, #1
 800145a:	2801      	cmp	r0, #1
 800145c:	f04f 0102 	mov.w	r1, #2
 8001460:	4809      	ldr	r0, [pc, #36]	; (8001488 <HC165_GetByte+0x64>)
 8001462:	b2e4      	uxtb	r4, r4
 8001464:	bf08      	it	eq
 8001466:	f044 0401 	orreq.w	r4, r4, #1
 800146a:	3d01      	subs	r5, #1
 800146c:	f7ff fc57 	bl	8000d1e <GPIO_SetBits>
 8001470:	2001      	movs	r0, #1
 8001472:	f003 fb6f 	bl	8004b54 <delay_us>
 8001476:	f015 05ff 	ands.w	r5, r5, #255	; 0xff
 800147a:	d1e2      	bne.n	8001442 <HC165_GetByte+0x1e>
 800147c:	2102      	movs	r1, #2
 800147e:	4802      	ldr	r0, [pc, #8]	; (8001488 <HC165_GetByte+0x64>)
 8001480:	f7ff fc4f 	bl	8000d22 <GPIO_ResetBits>
 8001484:	4620      	mov	r0, r4
 8001486:	bd70      	pop	{r4, r5, r6, pc}
 8001488:	40020800 	.word	0x40020800

0800148c <HC165_GetDWord>:
 800148c:	b570      	push	{r4, r5, r6, lr}
 800148e:	f7ff ffc9 	bl	8001424 <HC165_GetByte>
 8001492:	4606      	mov	r6, r0
 8001494:	f7ff ffc6 	bl	8001424 <HC165_GetByte>
 8001498:	4605      	mov	r5, r0
 800149a:	f7ff ffc3 	bl	8001424 <HC165_GetByte>
 800149e:	4604      	mov	r4, r0
 80014a0:	f7ff ffc0 	bl	8001424 <HC165_GetByte>
 80014a4:	0424      	lsls	r4, r4, #16
 80014a6:	ea44 6000 	orr.w	r0, r4, r0, lsl #24
 80014aa:	4330      	orrs	r0, r6
 80014ac:	ea40 2005 	orr.w	r0, r0, r5, lsl #8
 80014b0:	bd70      	pop	{r4, r5, r6, pc}

080014b2 <HC165_GetDWord1>:
 80014b2:	b538      	push	{r3, r4, r5, lr}
 80014b4:	f7ff ffb6 	bl	8001424 <HC165_GetByte>
 80014b8:	4605      	mov	r5, r0
 80014ba:	f7ff ffb3 	bl	8001424 <HC165_GetByte>
 80014be:	4604      	mov	r4, r0
 80014c0:	f7ff ffb0 	bl	8001424 <HC165_GetByte>
 80014c4:	0224      	lsls	r4, r4, #8
 80014c6:	ea44 4000 	orr.w	r0, r4, r0, lsl #16
 80014ca:	4328      	orrs	r0, r5
 80014cc:	bd38      	pop	{r3, r4, r5, pc}
	...

080014d0 <GetButton>:
 80014d0:	b570      	push	{r4, r5, r6, lr}
 80014d2:	4c0c      	ldr	r4, [pc, #48]	; (8001504 <GetButton+0x34>)
 80014d4:	2104      	movs	r1, #4
 80014d6:	4620      	mov	r0, r4
 80014d8:	f7ff fc23 	bl	8000d22 <GPIO_ResetBits>
 80014dc:	200a      	movs	r0, #10
 80014de:	f003 fb39 	bl	8004b54 <delay_us>
 80014e2:	f7ff ff85 	bl	80013f0 <HC165_LatchUp>
 80014e6:	f7ff ffd1 	bl	800148c <HC165_GetDWord>
 80014ea:	4605      	mov	r5, r0
 80014ec:	f7ff ffe1 	bl	80014b2 <HC165_GetDWord1>
 80014f0:	2104      	movs	r1, #4
 80014f2:	4606      	mov	r6, r0
 80014f4:	4620      	mov	r0, r4
 80014f6:	f7ff fc12 	bl	8000d1e <GPIO_SetBits>
 80014fa:	2300      	movs	r3, #0
 80014fc:	ea43 0005 	orr.w	r0, r3, r5
 8001500:	4631      	mov	r1, r6
 8001502:	bd70      	pop	{r4, r5, r6, pc}
 8001504:	40020800 	.word	0x40020800

08001508 <SendData>:
 8001508:	b538      	push	{r3, r4, r5, lr}
 800150a:	4d0c      	ldr	r5, [pc, #48]	; (800153c <SendData+0x34>)
 800150c:	4604      	mov	r4, r0
 800150e:	2102      	movs	r1, #2
 8001510:	4628      	mov	r0, r5
 8001512:	f7ff fd3d 	bl	8000f90 <SPI_I2S_GetFlagStatus>
 8001516:	2800      	cmp	r0, #0
 8001518:	d0f9      	beq.n	800150e <SendData+0x6>
 800151a:	4621      	mov	r1, r4
 800151c:	4807      	ldr	r0, [pc, #28]	; (800153c <SendData+0x34>)
 800151e:	4c07      	ldr	r4, [pc, #28]	; (800153c <SendData+0x34>)
 8001520:	f7ff fd34 	bl	8000f8c <SPI_I2S_SendData>
 8001524:	2101      	movs	r1, #1
 8001526:	4620      	mov	r0, r4
 8001528:	f7ff fd32 	bl	8000f90 <SPI_I2S_GetFlagStatus>
 800152c:	2800      	cmp	r0, #0
 800152e:	d0f9      	beq.n	8001524 <SendData+0x1c>
 8001530:	4802      	ldr	r0, [pc, #8]	; (800153c <SendData+0x34>)
 8001532:	e8bd 4038 	ldmia.w	sp!, {r3, r4, r5, lr}
 8001536:	f7ff bd27 	b.w	8000f88 <SPI_I2S_ReceiveData>
 800153a:	bf00      	nop
 800153c:	40003800 	.word	0x40003800

08001540 <MAX5135_SendPack>:
 8001540:	b570      	push	{r4, r5, r6, lr}
 8001542:	4c0a      	ldr	r4, [pc, #40]	; (800156c <MAX5135_SendPack+0x2c>)
 8001544:	4606      	mov	r6, r0
 8001546:	460d      	mov	r5, r1
 8001548:	4620      	mov	r0, r4
 800154a:	f44f 5180 	mov.w	r1, #4096	; 0x1000
 800154e:	f7ff fbe8 	bl	8000d22 <GPIO_ResetBits>
 8001552:	4630      	mov	r0, r6
 8001554:	f7ff ffd8 	bl	8001508 <SendData>
 8001558:	4628      	mov	r0, r5
 800155a:	f7ff ffd5 	bl	8001508 <SendData>
 800155e:	4620      	mov	r0, r4
 8001560:	f44f 5180 	mov.w	r1, #4096	; 0x1000
 8001564:	e8bd 4070 	ldmia.w	sp!, {r4, r5, r6, lr}
 8001568:	f7ff bbd9 	b.w	8000d1e <GPIO_SetBits>
 800156c:	40020400 	.word	0x40020400

08001570 <MAX5135init>:
 8001570:	b5f0      	push	{r4, r5, r6, r7, lr}
 8001572:	4c2a      	ldr	r4, [pc, #168]	; (800161c <MAX5135init+0xac>)
 8001574:	b089      	sub	sp, #36	; 0x24
 8001576:	2101      	movs	r1, #1
 8001578:	2002      	movs	r0, #2
 800157a:	f7ff fc2b 	bl	8000dd4 <RCC_AHB1PeriphClockCmd>
 800157e:	4620      	mov	r0, r4
 8001580:	2205      	movs	r2, #5
 8001582:	210d      	movs	r1, #13
 8001584:	f7ff fbcf 	bl	8000d26 <GPIO_PinAFConfig>
 8001588:	2205      	movs	r2, #5
 800158a:	4620      	mov	r0, r4
 800158c:	210f      	movs	r1, #15
 800158e:	f7ff fbca 	bl	8000d26 <GPIO_PinAFConfig>
 8001592:	2600      	movs	r6, #0
 8001594:	2702      	movs	r7, #2
 8001596:	f44f 4320 	mov.w	r3, #40960	; 0xa000
 800159a:	a901      	add	r1, sp, #4
 800159c:	4620      	mov	r0, r4
 800159e:	2501      	movs	r5, #1
 80015a0:	9301      	str	r3, [sp, #4]
 80015a2:	f88d 7008 	strb.w	r7, [sp, #8]
 80015a6:	f88d 600a 	strb.w	r6, [sp, #10]
 80015aa:	f88d 600b 	strb.w	r6, [sp, #11]
 80015ae:	f88d 7009 	strb.w	r7, [sp, #9]
 80015b2:	f7ff fb57 	bl	8000c64 <GPIO_Init>
 80015b6:	f44f 5380 	mov.w	r3, #4096	; 0x1000
 80015ba:	a901      	add	r1, sp, #4
 80015bc:	4620      	mov	r0, r4
 80015be:	9301      	str	r3, [sp, #4]
 80015c0:	f5a4 34e6 	sub.w	r4, r4, #117760	; 0x1cc00
 80015c4:	f88d 5008 	strb.w	r5, [sp, #8]
 80015c8:	f88d 600a 	strb.w	r6, [sp, #10]
 80015cc:	f88d 500b 	strb.w	r5, [sp, #11]
 80015d0:	f88d 7009 	strb.w	r7, [sp, #9]
 80015d4:	f7ff fb46 	bl	8000c64 <GPIO_Init>
 80015d8:	4629      	mov	r1, r5
 80015da:	f44f 4080 	mov.w	r0, #16384	; 0x4000
 80015de:	f7ff fc05 	bl	8000dec <RCC_APB1PeriphClockCmd>
 80015e2:	4620      	mov	r0, r4
 80015e4:	f7ff fc32 	bl	8000e4c <SPI_I2S_DeInit>
 80015e8:	a803      	add	r0, sp, #12
 80015ea:	f7ff fca9 	bl	8000f40 <SPI_StructInit>
 80015ee:	4a0c      	ldr	r2, [pc, #48]	; (8001620 <MAX5135init+0xb0>)
 80015f0:	2308      	movs	r3, #8
 80015f2:	e9cd 2303 	strd	r2, r3, [sp, #12]
 80015f6:	a903      	add	r1, sp, #12
 80015f8:	f04f 7300 	mov.w	r3, #33554432	; 0x2000000
 80015fc:	4620      	mov	r0, r4
 80015fe:	e9cd 3605 	strd	r3, r6, [sp, #20]
 8001602:	f7ff fc7f 	bl	8000f04 <SPI_Init>
 8001606:	4629      	mov	r1, r5
 8001608:	4620      	mov	r0, r4
 800160a:	f7ff fca5 	bl	8000f58 <SPI_Cmd>
 800160e:	f44f 7180 	mov.w	r1, #256	; 0x100
 8001612:	4620      	mov	r0, r4
 8001614:	f7ff fcab 	bl	8000f6e <SPI_NSSInternalSoftwareConfig>
 8001618:	b009      	add	sp, #36	; 0x24
 800161a:	bdf0      	pop	{r4, r5, r6, r7, pc}
 800161c:	40020400 	.word	0x40020400
 8001620:	01044000 	.word	0x01044000

08001624 <MAX5135_DAC_send>:
 8001624:	f240 32ff 	movw	r2, #1023	; 0x3ff
 8001628:	4291      	cmp	r1, r2
 800162a:	b410      	push	{r4}
 800162c:	bf28      	it	cs
 800162e:	4611      	movcs	r1, r2
 8001630:	2803      	cmp	r0, #3
 8001632:	d809      	bhi.n	8001648 <MAX5135_DAC_send+0x24>
 8001634:	e8df f000 	tbb	[pc, r0]
 8001638:	16120e02 	.word	0x16120e02
 800163c:	098b      	lsrs	r3, r1, #6
 800163e:	f043 0330 	orr.w	r3, r3, #48	; 0x30
 8001642:	b2db      	uxtb	r3, r3
 8001644:	0089      	lsls	r1, r1, #2
 8001646:	b2cc      	uxtb	r4, r1
 8001648:	4621      	mov	r1, r4
 800164a:	4618      	mov	r0, r3
 800164c:	f85d 4b04 	ldr.w	r4, [sp], #4
 8001650:	f7ff bf76 	b.w	8001540 <MAX5135_SendPack>
 8001654:	098b      	lsrs	r3, r1, #6
 8001656:	f043 0370 	orr.w	r3, r3, #112	; 0x70
 800165a:	e7f2      	b.n	8001642 <MAX5135_DAC_send+0x1e>
 800165c:	098b      	lsrs	r3, r1, #6
 800165e:	f063 034f 	orn	r3, r3, #79	; 0x4f
 8001662:	e7ee      	b.n	8001642 <MAX5135_DAC_send+0x1e>
 8001664:	f3c1 1383 	ubfx	r3, r1, #6, #4
 8001668:	f043 03f0 	orr.w	r3, r3, #240	; 0xf0
 800166c:	e7ea      	b.n	8001644 <MAX5135_DAC_send+0x20>
	...

08001670 <ADC_POTS_selector_init>:
 8001670:	b507      	push	{r0, r1, r2, lr}
 8001672:	2101      	movs	r1, #1
 8001674:	2004      	movs	r0, #4
 8001676:	f7ff fbad 	bl	8000dd4 <RCC_AHB1PeriphClockCmd>
 800167a:	2300      	movs	r3, #0
 800167c:	f8ad 3006 	strh.w	r3, [sp, #6]
 8001680:	f44f 4360 	mov.w	r3, #57344	; 0xe000
 8001684:	9300      	str	r3, [sp, #0]
 8001686:	2302      	movs	r3, #2
 8001688:	f88d 3005 	strb.w	r3, [sp, #5]
 800168c:	4669      	mov	r1, sp
 800168e:	2301      	movs	r3, #1
 8001690:	4804      	ldr	r0, [pc, #16]	; (80016a4 <ADC_POTS_selector_init+0x34>)
 8001692:	f88d 3004 	strb.w	r3, [sp, #4]
 8001696:	f88d 3007 	strb.w	r3, [sp, #7]
 800169a:	f7ff fae3 	bl	8000c64 <GPIO_Init>
 800169e:	b003      	add	sp, #12
 80016a0:	f85d fb04 	ldr.w	pc, [sp], #4
 80016a4:	40020800 	.word	0x40020800

080016a8 <ADC_POTS_selector_SendByte>:
 80016a8:	4b0c      	ldr	r3, [pc, #48]	; (80016dc <ADC_POTS_selector_SendByte+0x34>)
 80016aa:	b510      	push	{r4, lr}
 80016ac:	2208      	movs	r2, #8
 80016ae:	f44f 4480 	mov.w	r4, #16384	; 0x4000
 80016b2:	f44f 5100 	mov.w	r1, #8192	; 0x2000
 80016b6:	f010 0f80 	tst.w	r0, #128	; 0x80
 80016ba:	f102 32ff 	add.w	r2, r2, #4294967295	; 0xffffffff
 80016be:	bf14      	ite	ne
 80016c0:	831c      	strhne	r4, [r3, #24]
 80016c2:	835c      	strheq	r4, [r3, #26]
 80016c4:	0040      	lsls	r0, r0, #1
 80016c6:	f012 02ff 	ands.w	r2, r2, #255	; 0xff
 80016ca:	8359      	strh	r1, [r3, #26]
 80016cc:	b2c0      	uxtb	r0, r0
 80016ce:	8319      	strh	r1, [r3, #24]
 80016d0:	d1f1      	bne.n	80016b6 <ADC_POTS_selector_SendByte+0xe>
 80016d2:	f44f 4280 	mov.w	r2, #16384	; 0x4000
 80016d6:	835a      	strh	r2, [r3, #26]
 80016d8:	bd10      	pop	{r4, pc}
 80016da:	bf00      	nop
 80016dc:	40020800 	.word	0x40020800

080016e0 <ADC_POTS_selector_SendDWord>:
 80016e0:	b510      	push	{r4, lr}
 80016e2:	4604      	mov	r4, r0
 80016e4:	b2c8      	uxtb	r0, r1
 80016e6:	f7ff ffdf 	bl	80016a8 <ADC_POTS_selector_SendByte>
 80016ea:	0e20      	lsrs	r0, r4, #24
 80016ec:	f7ff ffdc 	bl	80016a8 <ADC_POTS_selector_SendByte>
 80016f0:	b2e0      	uxtb	r0, r4
 80016f2:	f7ff ffd9 	bl	80016a8 <ADC_POTS_selector_SendByte>
 80016f6:	f3c4 2007 	ubfx	r0, r4, #8, #8
 80016fa:	f7ff ffd5 	bl	80016a8 <ADC_POTS_selector_SendByte>
 80016fe:	f3c4 4007 	ubfx	r0, r4, #16, #8
 8001702:	f7ff ffd1 	bl	80016a8 <ADC_POTS_selector_SendByte>
 8001706:	4b03      	ldr	r3, [pc, #12]	; (8001714 <ADC_POTS_selector_SendDWord+0x34>)
 8001708:	f44f 4200 	mov.w	r2, #32768	; 0x8000
 800170c:	835a      	strh	r2, [r3, #26]
 800170e:	831a      	strh	r2, [r3, #24]
 8001710:	bd10      	pop	{r4, pc}
 8001712:	bf00      	nop
 8001714:	40020800 	.word	0x40020800

08001718 <ADC_POTS_selector_Ch>:
 8001718:	4b03      	ldr	r3, [pc, #12]	; (8001728 <ADC_POTS_selector_Ch+0x10>)
 800171a:	eb03 00c0 	add.w	r0, r3, r0, lsl #3
 800171e:	e9d0 0100 	ldrd	r0, r1, [r0]
 8001722:	f7ff bfdd 	b.w	80016e0 <ADC_POTS_selector_SendDWord>
 8001726:	bf00      	nop
 8001728:	20000010 	.word	0x20000010

0800172c <DipConfig_init>:
 800172c:	b507      	push	{r0, r1, r2, lr}
 800172e:	2101      	movs	r1, #1
 8001730:	4608      	mov	r0, r1
 8001732:	f7ff fb4f 	bl	8000dd4 <RCC_AHB1PeriphClockCmd>
 8001736:	f44f 4309 	mov.w	r3, #35072	; 0x8900
 800173a:	9300      	str	r3, [sp, #0]
 800173c:	2201      	movs	r2, #1
 800173e:	2300      	movs	r3, #0
 8001740:	4669      	mov	r1, sp
 8001742:	4806      	ldr	r0, [pc, #24]	; (800175c <DipConfig_init+0x30>)
 8001744:	f88d 3004 	strb.w	r3, [sp, #4]
 8001748:	f88d 2007 	strb.w	r2, [sp, #7]
 800174c:	f88d 3005 	strb.w	r3, [sp, #5]
 8001750:	f7ff fa88 	bl	8000c64 <GPIO_Init>
 8001754:	b003      	add	sp, #12
 8001756:	f85d fb04 	ldr.w	pc, [sp], #4
 800175a:	bf00      	nop
 800175c:	40020000 	.word	0x40020000

08001760 <GetDipConfig>:
 8001760:	b570      	push	{r4, r5, r6, lr}
 8001762:	4e10      	ldr	r6, [pc, #64]	; (80017a4 <GetDipConfig+0x44>)
 8001764:	f44f 6100 	mov.w	r1, #2048	; 0x800
 8001768:	4630      	mov	r0, r6
 800176a:	f7ff fad2 	bl	8000d12 <GPIO_ReadInputDataBit>
 800176e:	f44f 4100 	mov.w	r1, #32768	; 0x8000
 8001772:	4605      	mov	r5, r0
 8001774:	4630      	mov	r0, r6
 8001776:	f7ff facc 	bl	8000d12 <GPIO_ReadInputDataBit>
 800177a:	f44f 7180 	mov.w	r1, #256	; 0x100
 800177e:	4604      	mov	r4, r0
 8001780:	4630      	mov	r0, r6
 8001782:	f7ff fac6 	bl	8000d12 <GPIO_ReadInputDataBit>
 8001786:	43ed      	mvns	r5, r5
 8001788:	f04f 0300 	mov.w	r3, #0
 800178c:	f365 0300 	bfi	r3, r5, #0, #1
 8001790:	43e4      	mvns	r4, r4
 8001792:	f364 0341 	bfi	r3, r4, #1, #1
 8001796:	43c0      	mvns	r0, r0
 8001798:	f043 0304 	orr.w	r3, r3, #4
 800179c:	f360 03c3 	bfi	r3, r0, #3, #1
 80017a0:	4618      	mov	r0, r3
 80017a2:	bd70      	pop	{r4, r5, r6, pc}
 80017a4:	40020000 	.word	0x40020000

080017a8 <Init_Expander_GPIO>:
 80017a8:	b507      	push	{r0, r1, r2, lr}
 80017aa:	2101      	movs	r1, #1
 80017ac:	2002      	movs	r0, #2
 80017ae:	f7ff fb11 	bl	8000dd4 <RCC_AHB1PeriphClockCmd>
 80017b2:	f44f 4380 	mov.w	r3, #16384	; 0x4000
 80017b6:	9300      	str	r3, [sp, #0]
 80017b8:	2202      	movs	r2, #2
 80017ba:	2300      	movs	r3, #0
 80017bc:	4669      	mov	r1, sp
 80017be:	4806      	ldr	r0, [pc, #24]	; (80017d8 <Init_Expander_GPIO+0x30>)
 80017c0:	f88d 3004 	strb.w	r3, [sp, #4]
 80017c4:	f88d 2007 	strb.w	r2, [sp, #7]
 80017c8:	f88d 3005 	strb.w	r3, [sp, #5]
 80017cc:	f7ff fa4a 	bl	8000c64 <GPIO_Init>
 80017d0:	b003      	add	sp, #12
 80017d2:	f85d fb04 	ldr.w	pc, [sp], #4
 80017d6:	bf00      	nop
 80017d8:	40020400 	.word	0x40020400

080017dc <Is_Expander_Present>:
 80017dc:	b508      	push	{r3, lr}
 80017de:	f7ff ffbf 	bl	8001760 <GetDipConfig>
 80017e2:	f3c0 00c0 	ubfx	r0, r0, #3, #1
 80017e6:	bd08      	pop	{r3, pc}

080017e8 <LEDS_modes_init>:
 80017e8:	b507      	push	{r0, r1, r2, lr}
 80017ea:	2101      	movs	r1, #1
 80017ec:	2004      	movs	r0, #4
 80017ee:	f7ff faf1 	bl	8000dd4 <RCC_AHB1PeriphClockCmd>
 80017f2:	2300      	movs	r3, #0
 80017f4:	f8ad 3006 	strh.w	r3, [sp, #6]
 80017f8:	2370      	movs	r3, #112	; 0x70
 80017fa:	9300      	str	r3, [sp, #0]
 80017fc:	2302      	movs	r3, #2
 80017fe:	f88d 3005 	strb.w	r3, [sp, #5]
 8001802:	4669      	mov	r1, sp
 8001804:	2301      	movs	r3, #1
 8001806:	4805      	ldr	r0, [pc, #20]	; (800181c <LEDS_modes_init+0x34>)
 8001808:	f88d 3004 	strb.w	r3, [sp, #4]
 800180c:	f88d 3007 	strb.w	r3, [sp, #7]
 8001810:	f7ff fa28 	bl	8000c64 <GPIO_Init>
 8001814:	b003      	add	sp, #12
 8001816:	f85d fb04 	ldr.w	pc, [sp], #4
 800181a:	bf00      	nop
 800181c:	40020800 	.word	0x40020800

08001820 <LEDS_modes_SendByte>:
 8001820:	b570      	push	{r4, r5, r6, lr}
 8001822:	4e10      	ldr	r6, [pc, #64]	; (8001864 <LEDS_modes_SendByte+0x44>)
 8001824:	4605      	mov	r5, r0
 8001826:	2408      	movs	r4, #8
 8001828:	062b      	lsls	r3, r5, #24
 800182a:	f04f 0120 	mov.w	r1, #32
 800182e:	4630      	mov	r0, r6
 8001830:	d515      	bpl.n	800185e <LEDS_modes_SendByte+0x3e>
 8001832:	f7ff fa74 	bl	8000d1e <GPIO_SetBits>
 8001836:	2110      	movs	r1, #16
 8001838:	480a      	ldr	r0, [pc, #40]	; (8001864 <LEDS_modes_SendByte+0x44>)
 800183a:	f7ff fa72 	bl	8000d22 <GPIO_ResetBits>
 800183e:	3c01      	subs	r4, #1
 8001840:	2110      	movs	r1, #16
 8001842:	4808      	ldr	r0, [pc, #32]	; (8001864 <LEDS_modes_SendByte+0x44>)
 8001844:	f7ff fa6b 	bl	8000d1e <GPIO_SetBits>
 8001848:	006d      	lsls	r5, r5, #1
 800184a:	f014 04ff 	ands.w	r4, r4, #255	; 0xff
 800184e:	b2ed      	uxtb	r5, r5
 8001850:	d1ea      	bne.n	8001828 <LEDS_modes_SendByte+0x8>
 8001852:	2120      	movs	r1, #32
 8001854:	4803      	ldr	r0, [pc, #12]	; (8001864 <LEDS_modes_SendByte+0x44>)
 8001856:	e8bd 4070 	ldmia.w	sp!, {r4, r5, r6, lr}
 800185a:	f7ff ba62 	b.w	8000d22 <GPIO_ResetBits>
 800185e:	f7ff fa60 	bl	8000d22 <GPIO_ResetBits>
 8001862:	e7e8      	b.n	8001836 <LEDS_modes_SendByte+0x16>
 8001864:	40020800 	.word	0x40020800

08001868 <LEDS_modes_SendStruct>:
 8001868:	b510      	push	{r4, lr}
 800186a:	4604      	mov	r4, r0
 800186c:	7800      	ldrb	r0, [r0, #0]
 800186e:	f7ff ffd7 	bl	8001820 <LEDS_modes_SendByte>
 8001872:	7860      	ldrb	r0, [r4, #1]
 8001874:	f7ff ffd4 	bl	8001820 <LEDS_modes_SendByte>
 8001878:	78a0      	ldrb	r0, [r4, #2]
 800187a:	f7ff ffd1 	bl	8001820 <LEDS_modes_SendByte>
 800187e:	78e0      	ldrb	r0, [r4, #3]
 8001880:	4c06      	ldr	r4, [pc, #24]	; (800189c <LEDS_modes_SendStruct+0x34>)
 8001882:	f7ff ffcd 	bl	8001820 <LEDS_modes_SendByte>
 8001886:	4620      	mov	r0, r4
 8001888:	2140      	movs	r1, #64	; 0x40
 800188a:	f7ff fa4a 	bl	8000d22 <GPIO_ResetBits>
 800188e:	4620      	mov	r0, r4
 8001890:	2140      	movs	r1, #64	; 0x40
 8001892:	e8bd 4010 	ldmia.w	sp!, {r4, lr}
 8001896:	f7ff ba42 	b.w	8000d1e <GPIO_SetBits>
 800189a:	bf00      	nop
 800189c:	40020800 	.word	0x40020800

080018a0 <LED_STEP_init>:
 80018a0:	b507      	push	{r0, r1, r2, lr}
 80018a2:	2101      	movs	r1, #1
 80018a4:	2004      	movs	r0, #4
 80018a6:	f7ff fa95 	bl	8000dd4 <RCC_AHB1PeriphClockCmd>
 80018aa:	2300      	movs	r3, #0
 80018ac:	f8ad 3006 	strh.w	r3, [sp, #6]
 80018b0:	f44f 7360 	mov.w	r3, #896	; 0x380
 80018b4:	9300      	str	r3, [sp, #0]
 80018b6:	2303      	movs	r3, #3
 80018b8:	f88d 3005 	strb.w	r3, [sp, #5]
 80018bc:	4669      	mov	r1, sp
 80018be:	2301      	movs	r3, #1
 80018c0:	4804      	ldr	r0, [pc, #16]	; (80018d4 <LED_STEP_init+0x34>)
 80018c2:	f88d 3004 	strb.w	r3, [sp, #4]
 80018c6:	f88d 3007 	strb.w	r3, [sp, #7]
 80018ca:	f7ff f9cb 	bl	8000c64 <GPIO_Init>
 80018ce:	b003      	add	sp, #12
 80018d0:	f85d fb04 	ldr.w	pc, [sp], #4
 80018d4:	40020800 	.word	0x40020800

080018d8 <LED_STEP_SendByte>:
 80018d8:	b570      	push	{r4, r5, r6, lr}
 80018da:	4e11      	ldr	r6, [pc, #68]	; (8001920 <LED_STEP_SendByte+0x48>)
 80018dc:	4605      	mov	r5, r0
 80018de:	2408      	movs	r4, #8
 80018e0:	062b      	lsls	r3, r5, #24
 80018e2:	f44f 7180 	mov.w	r1, #256	; 0x100
 80018e6:	4630      	mov	r0, r6
 80018e8:	d516      	bpl.n	8001918 <LED_STEP_SendByte+0x40>
 80018ea:	f7ff fa18 	bl	8000d1e <GPIO_SetBits>
 80018ee:	2180      	movs	r1, #128	; 0x80
 80018f0:	480b      	ldr	r0, [pc, #44]	; (8001920 <LED_STEP_SendByte+0x48>)
 80018f2:	f7ff fa16 	bl	8000d22 <GPIO_ResetBits>
 80018f6:	3c01      	subs	r4, #1
 80018f8:	2180      	movs	r1, #128	; 0x80
 80018fa:	4809      	ldr	r0, [pc, #36]	; (8001920 <LED_STEP_SendByte+0x48>)
 80018fc:	f7ff fa0f 	bl	8000d1e <GPIO_SetBits>
 8001900:	006d      	lsls	r5, r5, #1
 8001902:	f014 04ff 	ands.w	r4, r4, #255	; 0xff
 8001906:	b2ed      	uxtb	r5, r5
 8001908:	d1ea      	bne.n	80018e0 <LED_STEP_SendByte+0x8>
 800190a:	f44f 7180 	mov.w	r1, #256	; 0x100
 800190e:	4804      	ldr	r0, [pc, #16]	; (8001920 <LED_STEP_SendByte+0x48>)
 8001910:	e8bd 4070 	ldmia.w	sp!, {r4, r5, r6, lr}
 8001914:	f7ff ba05 	b.w	8000d22 <GPIO_ResetBits>
 8001918:	f7ff fa03 	bl	8000d22 <GPIO_ResetBits>
 800191c:	e7e7      	b.n	80018ee <LED_STEP_SendByte+0x16>
 800191e:	bf00      	nop
 8001920:	40020800 	.word	0x40020800

08001924 <LED_STEP_SendWord>:
 8001924:	b510      	push	{r4, lr}
 8001926:	4604      	mov	r4, r0
 8001928:	f3c0 2007 	ubfx	r0, r0, #8, #8
 800192c:	f7ff ffd4 	bl	80018d8 <LED_STEP_SendByte>
 8001930:	b2e0      	uxtb	r0, r4
 8001932:	4c07      	ldr	r4, [pc, #28]	; (8001950 <LED_STEP_SendWord+0x2c>)
 8001934:	f7ff ffd0 	bl	80018d8 <LED_STEP_SendByte>
 8001938:	4620      	mov	r0, r4
 800193a:	f44f 7100 	mov.w	r1, #512	; 0x200
 800193e:	f7ff f9f0 	bl	8000d22 <GPIO_ResetBits>
 8001942:	4620      	mov	r0, r4
 8001944:	f44f 7100 	mov.w	r1, #512	; 0x200
 8001948:	e8bd 4010 	ldmia.w	sp!, {r4, lr}
 800194c:	f7ff b9e7 	b.w	8000d1e <GPIO_SetBits>
 8001950:	40020800 	.word	0x40020800

08001954 <LED_STEP_LightStep>:
 8001954:	b510      	push	{r4, lr}
 8001956:	2300      	movs	r3, #0
 8001958:	f06f 0401 	mvn.w	r4, #1
 800195c:	b2da      	uxtb	r2, r3
 800195e:	4290      	cmp	r0, r2
 8001960:	f103 0301 	add.w	r3, r3, #1
 8001964:	d807      	bhi.n	8001976 <LED_STEP_LightStep+0x22>
 8001966:	f7ff ff39 	bl	80017dc <Is_Expander_Present>
 800196a:	b940      	cbnz	r0, 800197e <LED_STEP_LightStep+0x2a>
 800196c:	b2a0      	uxth	r0, r4
 800196e:	e8bd 4010 	ldmia.w	sp!, {r4, lr}
 8001972:	f7ff bfd7 	b.w	8001924 <LED_STEP_SendWord>
 8001976:	0064      	lsls	r4, r4, #1
 8001978:	f044 0401 	orr.w	r4, r4, #1
 800197c:	e7ee      	b.n	800195c <LED_STEP_LightStep+0x8>
 800197e:	f3c4 4007 	ubfx	r0, r4, #16, #8
 8001982:	f7ff ffa9 	bl	80018d8 <LED_STEP_SendByte>
 8001986:	0e20      	lsrs	r0, r4, #24
 8001988:	f7ff ffa6 	bl	80018d8 <LED_STEP_SendByte>
 800198c:	f3c4 2007 	ubfx	r0, r4, #8, #8
 8001990:	f7ff ffa2 	bl	80018d8 <LED_STEP_SendByte>
 8001994:	b2e0      	uxtb	r0, r4
 8001996:	f7ff ff9f 	bl	80018d8 <LED_STEP_SendByte>
 800199a:	f44f 7100 	mov.w	r1, #512	; 0x200
 800199e:	4805      	ldr	r0, [pc, #20]	; (80019b4 <LED_STEP_LightStep+0x60>)
 80019a0:	f7ff f9bf 	bl	8000d22 <GPIO_ResetBits>
 80019a4:	f44f 7100 	mov.w	r1, #512	; 0x200
 80019a8:	4802      	ldr	r0, [pc, #8]	; (80019b4 <LED_STEP_LightStep+0x60>)
 80019aa:	e8bd 4010 	ldmia.w	sp!, {r4, lr}
 80019ae:	f7ff b9b6 	b.w	8000d1e <GPIO_SetBits>
 80019b2:	bf00      	nop
 80019b4:	40020800 	.word	0x40020800

080019b8 <mADC_init>:
 80019b8:	e92d 41f0 	stmdb	sp!, {r4, r5, r6, r7, r8, lr}
 80019bc:	2101      	movs	r1, #1
 80019be:	b08c      	sub	sp, #48	; 0x30
 80019c0:	4608      	mov	r0, r1
 80019c2:	f7ff fa13 	bl	8000dec <RCC_APB1PeriphClockCmd>
 80019c6:	a803      	add	r0, sp, #12
 80019c8:	2400      	movs	r4, #0
 80019ca:	f7ff fb3b 	bl	8001044 <TIM_TimeBaseStructInit>
 80019ce:	f241 0367 	movw	r3, #4199	; 0x1067
 80019d2:	a903      	add	r1, sp, #12
 80019d4:	f04f 4080 	mov.w	r0, #1073741824	; 0x40000000
 80019d8:	e9cd 4303 	strd	r4, r3, [sp, #12]
 80019dc:	f8ad 4014 	strh.w	r4, [sp, #20]
 80019e0:	f7ff faf2 	bl	8000fc8 <TIM_TimeBaseInit>
 80019e4:	2150      	movs	r1, #80	; 0x50
 80019e6:	f04f 4080 	mov.w	r0, #1073741824	; 0x40000000
 80019ea:	f7ff fb72 	bl	80010d2 <TIM_SelectOutputTrigger>
 80019ee:	2201      	movs	r2, #1
 80019f0:	2104      	movs	r1, #4
 80019f2:	f04f 4080 	mov.w	r0, #1073741824	; 0x40000000
 80019f6:	f7ff fb47 	bl	8001088 <TIM_CCxCmd>
 80019fa:	2101      	movs	r1, #1
 80019fc:	f04f 4080 	mov.w	r0, #1073741824	; 0x40000000
 8001a00:	f7ff fb40 	bl	8001084 <TIM_SetCompare2>
 8001a04:	f04f 4080 	mov.w	r0, #1073741824	; 0x40000000
 8001a08:	f8df 80f8 	ldr.w	r8, [pc, #248]	; 8001b04 <mADC_init+0x14c>
 8001a0c:	8b03      	ldrh	r3, [r0, #24]
 8001a0e:	4f39      	ldr	r7, [pc, #228]	; (8001af4 <mADC_init+0x13c>)
 8001a10:	4e39      	ldr	r6, [pc, #228]	; (8001af8 <mADC_init+0x140>)
 8001a12:	f443 43e0 	orr.w	r3, r3, #28672	; 0x7000
 8001a16:	8303      	strh	r3, [r0, #24]
 8001a18:	2101      	movs	r1, #1
 8001a1a:	f7ff fb28 	bl	800106e <TIM_Cmd>
 8001a1e:	2310      	movs	r3, #16
 8001a20:	2101      	movs	r1, #1
 8001a22:	f888 3312 	strb.w	r3, [r8, #786]	; 0x312
 8001a26:	4608      	mov	r0, r1
 8001a28:	f7ff f9d4 	bl	8000dd4 <RCC_AHB1PeriphClockCmd>
 8001a2c:	2303      	movs	r3, #3
 8001a2e:	a901      	add	r1, sp, #4
 8001a30:	4832      	ldr	r0, [pc, #200]	; (8001afc <mADC_init+0x144>)
 8001a32:	9301      	str	r3, [sp, #4]
 8001a34:	9402      	str	r4, [sp, #8]
 8001a36:	f88d 3008 	strb.w	r3, [sp, #8]
 8001a3a:	f7ff f913 	bl	8000c64 <GPIO_Init>
 8001a3e:	2101      	movs	r1, #1
 8001a40:	f44f 7080 	mov.w	r0, #256	; 0x100
 8001a44:	f7ff f9de 	bl	8000e04 <RCC_APB2PeriphClockCmd>
 8001a48:	2101      	movs	r1, #1
 8001a4a:	f44f 7000 	mov.w	r0, #512	; 0x200
 8001a4e:	f7ff f9d9 	bl	8000e04 <RCC_APB2PeriphClockCmd>
 8001a52:	a806      	add	r0, sp, #24
 8001a54:	f7fe fff8 	bl	8000a48 <ADC_StructInit>
 8001a58:	2501      	movs	r5, #1
 8001a5a:	f04f 5380 	mov.w	r3, #268435456	; 0x10000000
 8001a5e:	f04f 62c0 	mov.w	r2, #100663296	; 0x6000000
 8001a62:	a906      	add	r1, sp, #24
 8001a64:	4638      	mov	r0, r7
 8001a66:	e9cd 3208 	strd	r3, r2, [sp, #32]
 8001a6a:	f88d 401d 	strb.w	r4, [sp, #29]
 8001a6e:	940a      	str	r4, [sp, #40]	; 0x28
 8001a70:	f88d 502c 	strb.w	r5, [sp, #44]	; 0x2c
 8001a74:	9406      	str	r4, [sp, #24]
 8001a76:	f88d 401c 	strb.w	r4, [sp, #28]
 8001a7a:	f7fe ffbf 	bl	80009fc <ADC_Init>
 8001a7e:	a906      	add	r1, sp, #24
 8001a80:	4630      	mov	r0, r6
 8001a82:	f7fe ffbb 	bl	80009fc <ADC_Init>
 8001a86:	462a      	mov	r2, r5
 8001a88:	4621      	mov	r1, r4
 8001a8a:	4638      	mov	r0, r7
 8001a8c:	2307      	movs	r3, #7
 8001a8e:	f7fe ffee 	bl	8000a6e <ADC_RegularChannelConfig>
 8001a92:	462a      	mov	r2, r5
 8001a94:	4629      	mov	r1, r5
 8001a96:	4630      	mov	r0, r6
 8001a98:	2307      	movs	r3, #7
 8001a9a:	f7fe ffe8 	bl	8000a6e <ADC_RegularChannelConfig>
 8001a9e:	f44f 7389 	mov.w	r3, #274	; 0x112
 8001aa2:	4668      	mov	r0, sp
 8001aa4:	f8ad 3000 	strh.w	r3, [sp]
 8001aa8:	f88d 4002 	strb.w	r4, [sp, #2]
 8001aac:	f88d 5003 	strb.w	r5, [sp, #3]
 8001ab0:	f7fe ff78 	bl	80009a4 <NVIC_Init>
 8001ab4:	4b12      	ldr	r3, [pc, #72]	; (8001b00 <mADC_init+0x148>)
 8001ab6:	4620      	mov	r0, r4
 8001ab8:	701c      	strb	r4, [r3, #0]
 8001aba:	f7ff fe2d 	bl	8001718 <ADC_POTS_selector_Ch>
 8001abe:	f44f 2380 	mov.w	r3, #262144	; 0x40000
 8001ac2:	f8c8 3000 	str.w	r3, [r8]
 8001ac6:	462a      	mov	r2, r5
 8001ac8:	4638      	mov	r0, r7
 8001aca:	f240 2105 	movw	r1, #517	; 0x205
 8001ace:	f7ff f814 	bl	8000afa <ADC_ITConfig>
 8001ad2:	462a      	mov	r2, r5
 8001ad4:	4630      	mov	r0, r6
 8001ad6:	f240 2105 	movw	r1, #517	; 0x205
 8001ada:	f7ff f80e 	bl	8000afa <ADC_ITConfig>
 8001ade:	4629      	mov	r1, r5
 8001ae0:	4638      	mov	r0, r7
 8001ae2:	f7fe ffbb 	bl	8000a5c <ADC_Cmd>
 8001ae6:	4629      	mov	r1, r5
 8001ae8:	4630      	mov	r0, r6
 8001aea:	f7fe ffb7 	bl	8000a5c <ADC_Cmd>
 8001aee:	b00c      	add	sp, #48	; 0x30
 8001af0:	e8bd 81f0 	ldmia.w	sp!, {r4, r5, r6, r7, r8, pc}
 8001af4:	40012000 	.word	0x40012000
 8001af8:	40012100 	.word	0x40012100
 8001afc:	40020000 	.word	0x40020000
 8001b00:	20000294 	.word	0x20000294
 8001b04:	e000e100 	.word	0xe000e100

08001b08 <mInterruptInit>:
 8001b08:	b530      	push	{r4, r5, lr}
 8001b0a:	2101      	movs	r1, #1
 8001b0c:	b087      	sub	sp, #28
 8001b0e:	f44f 4080 	mov.w	r0, #16384	; 0x4000
 8001b12:	f7ff f977 	bl	8000e04 <RCC_APB2PeriphClockCmd>
 8001b16:	2400      	movs	r4, #0
 8001b18:	2303      	movs	r3, #3
 8001b1a:	f240 15e3 	movw	r5, #483	; 0x1e3
 8001b1e:	a902      	add	r1, sp, #8
 8001b20:	4831      	ldr	r0, [pc, #196]	; (8001be8 <mInterruptInit+0xe0>)
 8001b22:	f88d 300d 	strb.w	r3, [sp, #13]
 8001b26:	9502      	str	r5, [sp, #8]
 8001b28:	f88d 400c 	strb.w	r4, [sp, #12]
 8001b2c:	f88d 400f 	strb.w	r4, [sp, #15]
 8001b30:	f7ff f898 	bl	8000c64 <GPIO_Init>
 8001b34:	4621      	mov	r1, r4
 8001b36:	2001      	movs	r0, #1
 8001b38:	f7ff fa30 	bl	8000f9c <SYSCFG_EXTILineConfig>
 8001b3c:	2101      	movs	r1, #1
 8001b3e:	4608      	mov	r0, r1
 8001b40:	f7ff fa2c 	bl	8000f9c <SYSCFG_EXTILineConfig>
 8001b44:	2105      	movs	r1, #5
 8001b46:	2001      	movs	r0, #1
 8001b48:	f7ff fa28 	bl	8000f9c <SYSCFG_EXTILineConfig>
 8001b4c:	2106      	movs	r1, #6
 8001b4e:	2001      	movs	r0, #1
 8001b50:	f7ff fa24 	bl	8000f9c <SYSCFG_EXTILineConfig>
 8001b54:	2107      	movs	r1, #7
 8001b56:	2001      	movs	r0, #1
 8001b58:	f7ff fa20 	bl	8000f9c <SYSCFG_EXTILineConfig>
 8001b5c:	2108      	movs	r1, #8
 8001b5e:	2001      	movs	r0, #1
 8001b60:	f7ff fa1c 	bl	8000f9c <SYSCFG_EXTILineConfig>
 8001b64:	f7ff f836 	bl	8000bd4 <EXTI_DeInit>
 8001b68:	2310      	movs	r3, #16
 8001b6a:	eb0d 0003 	add.w	r0, sp, r3
 8001b6e:	9504      	str	r5, [sp, #16]
 8001b70:	2501      	movs	r5, #1
 8001b72:	f88d 3015 	strb.w	r3, [sp, #21]
 8001b76:	f88d 4014 	strb.w	r4, [sp, #20]
 8001b7a:	f88d 5016 	strb.w	r5, [sp, #22]
 8001b7e:	f7ff f837 	bl	8000bf0 <EXTI_Init>
 8001b82:	2306      	movs	r3, #6
 8001b84:	a801      	add	r0, sp, #4
 8001b86:	f8ad 3004 	strh.w	r3, [sp, #4]
 8001b8a:	f88d 4006 	strb.w	r4, [sp, #6]
 8001b8e:	f88d 5007 	strb.w	r5, [sp, #7]
 8001b92:	f7fe ff07 	bl	80009a4 <NVIC_Init>
 8001b96:	2307      	movs	r3, #7
 8001b98:	a801      	add	r0, sp, #4
 8001b9a:	f8ad 3004 	strh.w	r3, [sp, #4]
 8001b9e:	f88d 4006 	strb.w	r4, [sp, #6]
 8001ba2:	f88d 5007 	strb.w	r5, [sp, #7]
 8001ba6:	f7fe fefd 	bl	80009a4 <NVIC_Init>
 8001baa:	2317      	movs	r3, #23
 8001bac:	a801      	add	r0, sp, #4
 8001bae:	f8ad 3004 	strh.w	r3, [sp, #4]
 8001bb2:	f88d 4006 	strb.w	r4, [sp, #6]
 8001bb6:	f88d 5007 	strb.w	r5, [sp, #7]
 8001bba:	f7fe fef3 	bl	80009a4 <NVIC_Init>
 8001bbe:	4628      	mov	r0, r5
 8001bc0:	f7ff f84a 	bl	8000c58 <EXTI_ClearITPendingBit>
 8001bc4:	2002      	movs	r0, #2
 8001bc6:	f7ff f847 	bl	8000c58 <EXTI_ClearITPendingBit>
 8001bca:	2020      	movs	r0, #32
 8001bcc:	f7ff f844 	bl	8000c58 <EXTI_ClearITPendingBit>
 8001bd0:	2040      	movs	r0, #64	; 0x40
 8001bd2:	f7ff f841 	bl	8000c58 <EXTI_ClearITPendingBit>
 8001bd6:	2080      	movs	r0, #128	; 0x80
 8001bd8:	f7ff f83e 	bl	8000c58 <EXTI_ClearITPendingBit>
 8001bdc:	f44f 7080 	mov.w	r0, #256	; 0x100
 8001be0:	f7ff f83a 	bl	8000c58 <EXTI_ClearITPendingBit>
 8001be4:	b007      	add	sp, #28
 8001be6:	bd30      	pop	{r4, r5, pc}
 8001be8:	40020400 	.word	0x40020400

08001bec <EXTI0_IRQHandler>:
 8001bec:	4b0f      	ldr	r3, [pc, #60]	; (8001c2c <EXTI0_IRQHandler+0x40>)
 8001bee:	691a      	ldr	r2, [r3, #16]
 8001bf0:	f012 0201 	ands.w	r2, r2, #1
 8001bf4:	d116      	bne.n	8001c24 <EXTI0_IRQHandler+0x38>
 8001bf6:	4b0e      	ldr	r3, [pc, #56]	; (8001c30 <EXTI0_IRQHandler+0x44>)
 8001bf8:	7819      	ldrb	r1, [r3, #0]
 8001bfa:	2901      	cmp	r1, #1
 8001bfc:	d012      	beq.n	8001c24 <EXTI0_IRQHandler+0x38>
 8001bfe:	7819      	ldrb	r1, [r3, #0]
 8001c00:	2904      	cmp	r1, #4
 8001c02:	d00f      	beq.n	8001c24 <EXTI0_IRQHandler+0x38>
 8001c04:	7819      	ldrb	r1, [r3, #0]
 8001c06:	2905      	cmp	r1, #5
 8001c08:	d00c      	beq.n	8001c24 <EXTI0_IRQHandler+0x38>
 8001c0a:	490a      	ldr	r1, [pc, #40]	; (8001c34 <EXTI0_IRQHandler+0x48>)
 8001c0c:	700a      	strb	r2, [r1, #0]
 8001c0e:	2202      	movs	r2, #2
 8001c10:	701a      	strb	r2, [r3, #0]
 8001c12:	4b09      	ldr	r3, [pc, #36]	; (8001c38 <EXTI0_IRQHandler+0x4c>)
 8001c14:	781a      	ldrb	r2, [r3, #0]
 8001c16:	f042 0201 	orr.w	r2, r2, #1
 8001c1a:	701a      	strb	r2, [r3, #0]
 8001c1c:	781a      	ldrb	r2, [r3, #0]
 8001c1e:	f042 0202 	orr.w	r2, r2, #2
 8001c22:	701a      	strb	r2, [r3, #0]
 8001c24:	2001      	movs	r0, #1
 8001c26:	f7ff b817 	b.w	8000c58 <EXTI_ClearITPendingBit>
 8001c2a:	bf00      	nop
 8001c2c:	40020400 	.word	0x40020400
 8001c30:	200002b9 	.word	0x200002b9
 8001c34:	200002b5 	.word	0x200002b5
 8001c38:	200002e8 	.word	0x200002e8

08001c3c <InitStart_1_SignalTimer>:
 8001c3c:	b508      	push	{r3, lr}
 8001c3e:	2101      	movs	r1, #1
 8001c40:	2002      	movs	r0, #2
 8001c42:	f7ff f8d3 	bl	8000dec <RCC_APB1PeriphClockCmd>
 8001c46:	4b09      	ldr	r3, [pc, #36]	; (8001c6c <InitStart_1_SignalTimer+0x30>)
 8001c48:	f642 1204 	movw	r2, #10500	; 0x2904
 8001c4c:	851a      	strh	r2, [r3, #40]	; 0x28
 8001c4e:	2228      	movs	r2, #40	; 0x28
 8001c50:	62da      	str	r2, [r3, #44]	; 0x2c
 8001c52:	2200      	movs	r2, #0
 8001c54:	625a      	str	r2, [r3, #36]	; 0x24
 8001c56:	2201      	movs	r2, #1
 8001c58:	819a      	strh	r2, [r3, #12]
 8001c5a:	881a      	ldrh	r2, [r3, #0]
 8001c5c:	f042 0201 	orr.w	r2, r2, #1
 8001c60:	801a      	strh	r2, [r3, #0]
 8001c62:	4b03      	ldr	r3, [pc, #12]	; (8001c70 <InitStart_1_SignalTimer+0x34>)
 8001c64:	f04f 5200 	mov.w	r2, #536870912	; 0x20000000
 8001c68:	601a      	str	r2, [r3, #0]
 8001c6a:	bd08      	pop	{r3, pc}
 8001c6c:	40000400 	.word	0x40000400
 8001c70:	e000e100 	.word	0xe000e100

08001c74 <InitStart_2_SignalTimer>:
 8001c74:	b508      	push	{r3, lr}
 8001c76:	2101      	movs	r1, #1
 8001c78:	2020      	movs	r0, #32
 8001c7a:	f7ff f8b7 	bl	8000dec <RCC_APB1PeriphClockCmd>
 8001c7e:	4b09      	ldr	r3, [pc, #36]	; (8001ca4 <InitStart_2_SignalTimer+0x30>)
 8001c80:	f642 1204 	movw	r2, #10500	; 0x2904
 8001c84:	851a      	strh	r2, [r3, #40]	; 0x28
 8001c86:	2228      	movs	r2, #40	; 0x28
 8001c88:	62da      	str	r2, [r3, #44]	; 0x2c
 8001c8a:	2200      	movs	r2, #0
 8001c8c:	625a      	str	r2, [r3, #36]	; 0x24
 8001c8e:	2201      	movs	r2, #1
 8001c90:	819a      	strh	r2, [r3, #12]
 8001c92:	881a      	ldrh	r2, [r3, #0]
 8001c94:	f042 0201 	orr.w	r2, r2, #1
 8001c98:	801a      	strh	r2, [r3, #0]
 8001c9a:	4b03      	ldr	r3, [pc, #12]	; (8001ca8 <InitStart_2_SignalTimer+0x34>)
 8001c9c:	f44f 0200 	mov.w	r2, #8388608	; 0x800000
 8001ca0:	605a      	str	r2, [r3, #4]
 8001ca2:	bd08      	pop	{r3, pc}
 8001ca4:	40001400 	.word	0x40001400
 8001ca8:	e000e100 	.word	0xe000e100

08001cac <InitClear_Timer>:
 8001cac:	b508      	push	{r3, lr}
 8001cae:	2101      	movs	r1, #1
 8001cb0:	2010      	movs	r0, #16
 8001cb2:	f7ff f89b 	bl	8000dec <RCC_APB1PeriphClockCmd>
 8001cb6:	480b      	ldr	r0, [pc, #44]	; (8001ce4 <InitClear_Timer+0x38>)
 8001cb8:	f245 2308 	movw	r3, #21000	; 0x5208
 8001cbc:	8503      	strh	r3, [r0, #40]	; 0x28
 8001cbe:	23c8      	movs	r3, #200	; 0xc8
 8001cc0:	62c3      	str	r3, [r0, #44]	; 0x2c
 8001cc2:	2201      	movs	r2, #1
 8001cc4:	2300      	movs	r3, #0
 8001cc6:	6243      	str	r3, [r0, #36]	; 0x24
 8001cc8:	8182      	strh	r2, [r0, #12]
 8001cca:	8803      	ldrh	r3, [r0, #0]
 8001ccc:	4313      	orrs	r3, r2
 8001cce:	8003      	strh	r3, [r0, #0]
 8001cd0:	4b05      	ldr	r3, [pc, #20]	; (8001ce8 <InitClear_Timer+0x3c>)
 8001cd2:	f44f 0180 	mov.w	r1, #4194304	; 0x400000
 8001cd6:	6059      	str	r1, [r3, #4]
 8001cd8:	4611      	mov	r1, r2
 8001cda:	e8bd 4008 	ldmia.w	sp!, {r3, lr}
 8001cde:	f7ff b9e1 	b.w	80010a4 <TIM_ITConfig>
 8001ce2:	bf00      	nop
 8001ce4:	40001000 	.word	0x40001000
 8001ce8:	e000e100 	.word	0xe000e100

08001cec <EXTI1_IRQHandler>:
 8001cec:	4b0f      	ldr	r3, [pc, #60]	; (8001d2c <EXTI1_IRQHandler+0x40>)
 8001cee:	691a      	ldr	r2, [r3, #16]
 8001cf0:	f012 0202 	ands.w	r2, r2, #2
 8001cf4:	d116      	bne.n	8001d24 <EXTI1_IRQHandler+0x38>
 8001cf6:	4b0e      	ldr	r3, [pc, #56]	; (8001d30 <EXTI1_IRQHandler+0x44>)
 8001cf8:	7819      	ldrb	r1, [r3, #0]
 8001cfa:	2901      	cmp	r1, #1
 8001cfc:	d012      	beq.n	8001d24 <EXTI1_IRQHandler+0x38>
 8001cfe:	7819      	ldrb	r1, [r3, #0]
 8001d00:	2904      	cmp	r1, #4
 8001d02:	d00f      	beq.n	8001d24 <EXTI1_IRQHandler+0x38>
 8001d04:	7819      	ldrb	r1, [r3, #0]
 8001d06:	2905      	cmp	r1, #5
 8001d08:	d00c      	beq.n	8001d24 <EXTI1_IRQHandler+0x38>
 8001d0a:	490a      	ldr	r1, [pc, #40]	; (8001d34 <EXTI1_IRQHandler+0x48>)
 8001d0c:	700a      	strb	r2, [r1, #0]
 8001d0e:	2202      	movs	r2, #2
 8001d10:	701a      	strb	r2, [r3, #0]
 8001d12:	4b09      	ldr	r3, [pc, #36]	; (8001d38 <EXTI1_IRQHandler+0x4c>)
 8001d14:	781a      	ldrb	r2, [r3, #0]
 8001d16:	f042 0201 	orr.w	r2, r2, #1
 8001d1a:	701a      	strb	r2, [r3, #0]
 8001d1c:	781a      	ldrb	r2, [r3, #0]
 8001d1e:	f042 0202 	orr.w	r2, r2, #2
 8001d22:	701a      	strb	r2, [r3, #0]
 8001d24:	2002      	movs	r0, #2
 8001d26:	f7fe bf97 	b.w	8000c58 <EXTI_ClearITPendingBit>
 8001d2a:	bf00      	nop
 8001d2c:	40020400 	.word	0x40020400
 8001d30:	200002ba 	.word	0x200002ba
 8001d34:	200002b6 	.word	0x200002b6
 8001d38:	200002e8 	.word	0x200002e8

08001d3c <EXTI9_5_IRQHandler>:
 8001d3c:	4b5c      	ldr	r3, [pc, #368]	; (8001eb0 <EXTI9_5_IRQHandler+0x174>)
 8001d3e:	695b      	ldr	r3, [r3, #20]
 8001d40:	05d9      	lsls	r1, r3, #23
 8001d42:	b570      	push	{r4, r5, r6, lr}
 8001d44:	d516      	bpl.n	8001d74 <EXTI9_5_IRQHandler+0x38>
 8001d46:	4b5b      	ldr	r3, [pc, #364]	; (8001eb4 <EXTI9_5_IRQHandler+0x178>)
 8001d48:	781a      	ldrb	r2, [r3, #0]
 8001d4a:	2a05      	cmp	r2, #5
 8001d4c:	d009      	beq.n	8001d62 <EXTI9_5_IRQHandler+0x26>
 8001d4e:	781a      	ldrb	r2, [r3, #0]
 8001d50:	2a04      	cmp	r2, #4
 8001d52:	d006      	beq.n	8001d62 <EXTI9_5_IRQHandler+0x26>
 8001d54:	781a      	ldrb	r2, [r3, #0]
 8001d56:	2a01      	cmp	r2, #1
 8001d58:	d003      	beq.n	8001d62 <EXTI9_5_IRQHandler+0x26>
 8001d5a:	781a      	ldrb	r2, [r3, #0]
 8001d5c:	b10a      	cbz	r2, 8001d62 <EXTI9_5_IRQHandler+0x26>
 8001d5e:	2200      	movs	r2, #0
 8001d60:	701a      	strb	r2, [r3, #0]
 8001d62:	781b      	ldrb	r3, [r3, #0]
 8001d64:	2b04      	cmp	r3, #4
 8001d66:	d101      	bne.n	8001d6c <EXTI9_5_IRQHandler+0x30>
 8001d68:	f7ff ff68 	bl	8001c3c <InitStart_1_SignalTimer>
 8001d6c:	f44f 7080 	mov.w	r0, #256	; 0x100
 8001d70:	f7fe ff72 	bl	8000c58 <EXTI_ClearITPendingBit>
 8001d74:	4b4e      	ldr	r3, [pc, #312]	; (8001eb0 <EXTI9_5_IRQHandler+0x174>)
 8001d76:	695b      	ldr	r3, [r3, #20]
 8001d78:	065a      	lsls	r2, r3, #25
 8001d7a:	d515      	bpl.n	8001da8 <EXTI9_5_IRQHandler+0x6c>
 8001d7c:	4b4e      	ldr	r3, [pc, #312]	; (8001eb8 <EXTI9_5_IRQHandler+0x17c>)
 8001d7e:	781a      	ldrb	r2, [r3, #0]
 8001d80:	2a05      	cmp	r2, #5
 8001d82:	d009      	beq.n	8001d98 <EXTI9_5_IRQHandler+0x5c>
 8001d84:	781a      	ldrb	r2, [r3, #0]
 8001d86:	2a04      	cmp	r2, #4
 8001d88:	d006      	beq.n	8001d98 <EXTI9_5_IRQHandler+0x5c>
 8001d8a:	781a      	ldrb	r2, [r3, #0]
 8001d8c:	2a01      	cmp	r2, #1
 8001d8e:	d003      	beq.n	8001d98 <EXTI9_5_IRQHandler+0x5c>
 8001d90:	781a      	ldrb	r2, [r3, #0]
 8001d92:	b10a      	cbz	r2, 8001d98 <EXTI9_5_IRQHandler+0x5c>
 8001d94:	2200      	movs	r2, #0
 8001d96:	701a      	strb	r2, [r3, #0]
 8001d98:	781b      	ldrb	r3, [r3, #0]
 8001d9a:	2b04      	cmp	r3, #4
 8001d9c:	d101      	bne.n	8001da2 <EXTI9_5_IRQHandler+0x66>
 8001d9e:	f7ff ff69 	bl	8001c74 <InitStart_2_SignalTimer>
 8001da2:	2040      	movs	r0, #64	; 0x40
 8001da4:	f7fe ff58 	bl	8000c58 <EXTI_ClearITPendingBit>
 8001da8:	4b41      	ldr	r3, [pc, #260]	; (8001eb0 <EXTI9_5_IRQHandler+0x174>)
 8001daa:	4c44      	ldr	r4, [pc, #272]	; (8001ebc <EXTI9_5_IRQHandler+0x180>)
 8001dac:	695b      	ldr	r3, [r3, #20]
 8001dae:	f013 0f20 	tst.w	r3, #32
 8001db2:	d037      	beq.n	8001e24 <EXTI9_5_IRQHandler+0xe8>
 8001db4:	4b42      	ldr	r3, [pc, #264]	; (8001ec0 <EXTI9_5_IRQHandler+0x184>)
 8001db6:	4e43      	ldr	r6, [pc, #268]	; (8001ec4 <EXTI9_5_IRQHandler+0x188>)
 8001db8:	781b      	ldrb	r3, [r3, #0]
 8001dba:	3b01      	subs	r3, #1
 8001dbc:	b2db      	uxtb	r3, r3
 8001dbe:	7033      	strb	r3, [r6, #0]
 8001dc0:	4b41      	ldr	r3, [pc, #260]	; (8001ec8 <EXTI9_5_IRQHandler+0x18c>)
 8001dc2:	781b      	ldrb	r3, [r3, #0]
 8001dc4:	b93b      	cbnz	r3, 8001dd6 <EXTI9_5_IRQHandler+0x9a>
 8001dc6:	7823      	ldrb	r3, [r4, #0]
 8001dc8:	f043 0301 	orr.w	r3, r3, #1
 8001dcc:	7023      	strb	r3, [r4, #0]
 8001dce:	7823      	ldrb	r3, [r4, #0]
 8001dd0:	f043 0302 	orr.w	r3, r3, #2
 8001dd4:	7023      	strb	r3, [r4, #0]
 8001dd6:	f44f 7100 	mov.w	r1, #512	; 0x200
 8001dda:	483c      	ldr	r0, [pc, #240]	; (8001ecc <EXTI9_5_IRQHandler+0x190>)
 8001ddc:	4d3c      	ldr	r5, [pc, #240]	; (8001ed0 <EXTI9_5_IRQHandler+0x194>)
 8001dde:	f7fe ffa0 	bl	8000d22 <GPIO_ResetBits>
 8001de2:	7832      	ldrb	r2, [r6, #0]
 8001de4:	eb05 02c2 	add.w	r2, r5, r2, lsl #3
 8001de8:	6852      	ldr	r2, [r2, #4]
 8001dea:	0513      	lsls	r3, r2, #20
 8001dec:	d504      	bpl.n	8001df8 <EXTI9_5_IRQHandler+0xbc>
 8001dee:	f44f 6100 	mov.w	r1, #2048	; 0x800
 8001df2:	4836      	ldr	r0, [pc, #216]	; (8001ecc <EXTI9_5_IRQHandler+0x190>)
 8001df4:	f7fe ff95 	bl	8000d22 <GPIO_ResetBits>
 8001df8:	7833      	ldrb	r3, [r6, #0]
 8001dfa:	eb05 03c3 	add.w	r3, r5, r3, lsl #3
 8001dfe:	685b      	ldr	r3, [r3, #4]
 8001e00:	04d8      	lsls	r0, r3, #19
 8001e02:	d504      	bpl.n	8001e0e <EXTI9_5_IRQHandler+0xd2>
 8001e04:	f44f 6180 	mov.w	r1, #1024	; 0x400
 8001e08:	4830      	ldr	r0, [pc, #192]	; (8001ecc <EXTI9_5_IRQHandler+0x190>)
 8001e0a:	f7fe ff8a 	bl	8000d22 <GPIO_ResetBits>
 8001e0e:	2101      	movs	r1, #1
 8001e10:	4830      	ldr	r0, [pc, #192]	; (8001ed4 <EXTI9_5_IRQHandler+0x198>)
 8001e12:	f7ff f92c 	bl	800106e <TIM_Cmd>
 8001e16:	482f      	ldr	r0, [pc, #188]	; (8001ed4 <EXTI9_5_IRQHandler+0x198>)
 8001e18:	2100      	movs	r1, #0
 8001e1a:	f7ff f91b 	bl	8001054 <TIM_SetCounter>
 8001e1e:	2020      	movs	r0, #32
 8001e20:	f7fe ff1a 	bl	8000c58 <EXTI_ClearITPendingBit>
 8001e24:	4b22      	ldr	r3, [pc, #136]	; (8001eb0 <EXTI9_5_IRQHandler+0x174>)
 8001e26:	695b      	ldr	r3, [r3, #20]
 8001e28:	0619      	lsls	r1, r3, #24
 8001e2a:	d538      	bpl.n	8001e9e <EXTI9_5_IRQHandler+0x162>
 8001e2c:	4b24      	ldr	r3, [pc, #144]	; (8001ec0 <EXTI9_5_IRQHandler+0x184>)
 8001e2e:	4e2a      	ldr	r6, [pc, #168]	; (8001ed8 <EXTI9_5_IRQHandler+0x19c>)
 8001e30:	785b      	ldrb	r3, [r3, #1]
 8001e32:	3b01      	subs	r3, #1
 8001e34:	b2db      	uxtb	r3, r3
 8001e36:	7033      	strb	r3, [r6, #0]
 8001e38:	4b23      	ldr	r3, [pc, #140]	; (8001ec8 <EXTI9_5_IRQHandler+0x18c>)
 8001e3a:	781b      	ldrb	r3, [r3, #0]
 8001e3c:	2b01      	cmp	r3, #1
 8001e3e:	d107      	bne.n	8001e50 <EXTI9_5_IRQHandler+0x114>
 8001e40:	7823      	ldrb	r3, [r4, #0]
 8001e42:	f043 0301 	orr.w	r3, r3, #1
 8001e46:	7023      	strb	r3, [r4, #0]
 8001e48:	7823      	ldrb	r3, [r4, #0]
 8001e4a:	f043 0302 	orr.w	r3, r3, #2
 8001e4e:	7023      	strb	r3, [r4, #0]
 8001e50:	2104      	movs	r1, #4
 8001e52:	4822      	ldr	r0, [pc, #136]	; (8001edc <EXTI9_5_IRQHandler+0x1a0>)
 8001e54:	4d1e      	ldr	r5, [pc, #120]	; (8001ed0 <EXTI9_5_IRQHandler+0x194>)
 8001e56:	f7fe ff64 	bl	8000d22 <GPIO_ResetBits>
 8001e5a:	7832      	ldrb	r2, [r6, #0]
 8001e5c:	3220      	adds	r2, #32
 8001e5e:	eb05 02c2 	add.w	r2, r5, r2, lsl #3
 8001e62:	6852      	ldr	r2, [r2, #4]
 8001e64:	0512      	lsls	r2, r2, #20
 8001e66:	d503      	bpl.n	8001e70 <EXTI9_5_IRQHandler+0x134>
 8001e68:	2108      	movs	r1, #8
 8001e6a:	481c      	ldr	r0, [pc, #112]	; (8001edc <EXTI9_5_IRQHandler+0x1a0>)
 8001e6c:	f7fe ff59 	bl	8000d22 <GPIO_ResetBits>
 8001e70:	7833      	ldrb	r3, [r6, #0]
 8001e72:	3320      	adds	r3, #32
 8001e74:	eb05 03c3 	add.w	r3, r5, r3, lsl #3
 8001e78:	685b      	ldr	r3, [r3, #4]
 8001e7a:	04db      	lsls	r3, r3, #19
 8001e7c:	d504      	bpl.n	8001e88 <EXTI9_5_IRQHandler+0x14c>
 8001e7e:	f44f 5180 	mov.w	r1, #4096	; 0x1000
 8001e82:	4816      	ldr	r0, [pc, #88]	; (8001edc <EXTI9_5_IRQHandler+0x1a0>)
 8001e84:	f7fe ff4d 	bl	8000d22 <GPIO_ResetBits>
 8001e88:	2101      	movs	r1, #1
 8001e8a:	4815      	ldr	r0, [pc, #84]	; (8001ee0 <EXTI9_5_IRQHandler+0x1a4>)
 8001e8c:	f7ff f8ef 	bl	800106e <TIM_Cmd>
 8001e90:	4813      	ldr	r0, [pc, #76]	; (8001ee0 <EXTI9_5_IRQHandler+0x1a4>)
 8001e92:	2100      	movs	r1, #0
 8001e94:	f7ff f8de 	bl	8001054 <TIM_SetCounter>
 8001e98:	2080      	movs	r0, #128	; 0x80
 8001e9a:	f7fe fedd 	bl	8000c58 <EXTI_ClearITPendingBit>
 8001e9e:	7823      	ldrb	r3, [r4, #0]
 8001ea0:	f043 0301 	orr.w	r3, r3, #1
 8001ea4:	7023      	strb	r3, [r4, #0]
 8001ea6:	7823      	ldrb	r3, [r4, #0]
 8001ea8:	f043 0302 	orr.w	r3, r3, #2
 8001eac:	7023      	strb	r3, [r4, #0]
 8001eae:	bd70      	pop	{r4, r5, r6, pc}
 8001eb0:	40013c00 	.word	0x40013c00
 8001eb4:	200002b9 	.word	0x200002b9
 8001eb8:	200002ba 	.word	0x200002ba
 8001ebc:	200002e8 	.word	0x200002e8
 8001ec0:	20000271 	.word	0x20000271
 8001ec4:	200002b7 	.word	0x200002b7
 8001ec8:	200002a8 	.word	0x200002a8
 8001ecc:	40020400 	.word	0x40020400
 8001ed0:	20000898 	.word	0x20000898
 8001ed4:	40002000 	.word	0x40002000
 8001ed8:	200002b8 	.word	0x200002b8
 8001edc:	40020000 	.word	0x40020000
 8001ee0:	40010400 	.word	0x40010400

08001ee4 <SaveSequence>:
 8001ee4:	b538      	push	{r3, r4, r5, lr}
 8001ee6:	4b19      	ldr	r3, [pc, #100]	; (8001f4c <SaveSequence+0x68>)
 8001ee8:	f44f 2280 	mov.w	r2, #262144	; 0x40000
 8001eec:	f8c3 2080 	str.w	r2, [r3, #128]	; 0x80
 8001ef0:	4604      	mov	r4, r0
 8001ef2:	f7ff fc73 	bl	80017dc <Is_Expander_Present>
 8001ef6:	b9e8      	cbnz	r0, 8001f34 <SaveSequence+0x50>
 8001ef8:	4d15      	ldr	r5, [pc, #84]	; (8001f50 <SaveSequence+0x6c>)
 8001efa:	4916      	ldr	r1, [pc, #88]	; (8001f54 <SaveSequence+0x70>)
 8001efc:	7828      	ldrb	r0, [r5, #0]
 8001efe:	b2a4      	uxth	r4, r4
 8001f00:	0240      	lsls	r0, r0, #9
 8001f02:	fb10 f004 	smulbb	r0, r0, r4
 8001f06:	f400 407e 	and.w	r0, r0, #65024	; 0xfe00
 8001f0a:	f44f 7280 	mov.w	r2, #256	; 0x100
 8001f0e:	f7ff f9c3 	bl	8001298 <CAT25512_write_block>
 8001f12:	7828      	ldrb	r0, [r5, #0]
 8001f14:	0240      	lsls	r0, r0, #9
 8001f16:	fb10 f004 	smulbb	r0, r0, r4
 8001f1a:	f500 7080 	add.w	r0, r0, #256	; 0x100
 8001f1e:	f44f 7280 	mov.w	r2, #256	; 0x100
 8001f22:	490d      	ldr	r1, [pc, #52]	; (8001f58 <SaveSequence+0x74>)
 8001f24:	f400 407f 	and.w	r0, r0, #65280	; 0xff00
 8001f28:	f7ff f9b6 	bl	8001298 <CAT25512_write_block>
 8001f2c:	f7ff fd44 	bl	80019b8 <mADC_init>
 8001f30:	2000      	movs	r0, #0
 8001f32:	bd38      	pop	{r3, r4, r5, pc}
 8001f34:	3420      	adds	r4, #32
 8001f36:	0264      	lsls	r4, r4, #9
 8001f38:	b2a4      	uxth	r4, r4
 8001f3a:	4620      	mov	r0, r4
 8001f3c:	f44f 7280 	mov.w	r2, #256	; 0x100
 8001f40:	4904      	ldr	r1, [pc, #16]	; (8001f54 <SaveSequence+0x70>)
 8001f42:	f7ff f9a9 	bl	8001298 <CAT25512_write_block>
 8001f46:	f504 7080 	add.w	r0, r4, #256	; 0x100
 8001f4a:	e7e8      	b.n	8001f1e <SaveSequence+0x3a>
 8001f4c:	e000e100 	.word	0xe000e100
 8001f50:	20000270 	.word	0x20000270
 8001f54:	20000898 	.word	0x20000898
 8001f58:	20000998 	.word	0x20000998

08001f5c <LoadSequence>:
 8001f5c:	b538      	push	{r3, r4, r5, lr}
 8001f5e:	4b38      	ldr	r3, [pc, #224]	; (8002040 <LoadSequence+0xe4>)
 8001f60:	f44f 2280 	mov.w	r2, #262144	; 0x40000
 8001f64:	f8c3 2080 	str.w	r2, [r3, #128]	; 0x80
 8001f68:	4604      	mov	r4, r0
 8001f6a:	f7ff fc37 	bl	80017dc <Is_Expander_Present>
 8001f6e:	2800      	cmp	r0, #0
 8001f70:	d159      	bne.n	8002026 <LoadSequence+0xca>
 8001f72:	4d34      	ldr	r5, [pc, #208]	; (8002044 <LoadSequence+0xe8>)
 8001f74:	4934      	ldr	r1, [pc, #208]	; (8002048 <LoadSequence+0xec>)
 8001f76:	7828      	ldrb	r0, [r5, #0]
 8001f78:	b2a4      	uxth	r4, r4
 8001f7a:	0240      	lsls	r0, r0, #9
 8001f7c:	fb10 f004 	smulbb	r0, r0, r4
 8001f80:	f400 407e 	and.w	r0, r0, #65024	; 0xfe00
 8001f84:	f44f 7280 	mov.w	r2, #256	; 0x100
 8001f88:	f7ff f9e0 	bl	800134c <CAT25512_read_block>
 8001f8c:	7828      	ldrb	r0, [r5, #0]
 8001f8e:	0240      	lsls	r0, r0, #9
 8001f90:	fb10 f004 	smulbb	r0, r0, r4
 8001f94:	f500 7080 	add.w	r0, r0, #256	; 0x100
 8001f98:	f44f 7280 	mov.w	r2, #256	; 0x100
 8001f9c:	492b      	ldr	r1, [pc, #172]	; (800204c <LoadSequence+0xf0>)
 8001f9e:	f400 407f 	and.w	r0, r0, #65280	; 0xff00
 8001fa2:	f7ff f9d3 	bl	800134c <CAT25512_read_block>
 8001fa6:	4b2a      	ldr	r3, [pc, #168]	; (8002050 <LoadSequence+0xf4>)
 8001fa8:	781b      	ldrb	r3, [r3, #0]
 8001faa:	075b      	lsls	r3, r3, #29
 8001fac:	d532      	bpl.n	8002014 <LoadSequence+0xb8>
 8001fae:	4926      	ldr	r1, [pc, #152]	; (8002048 <LoadSequence+0xec>)
 8001fb0:	2300      	movs	r3, #0
 8001fb2:	eb01 02c3 	add.w	r2, r1, r3, lsl #3
 8001fb6:	6850      	ldr	r0, [r2, #4]
 8001fb8:	f440 5000 	orr.w	r0, r0, #8192	; 0x2000
 8001fbc:	6050      	str	r0, [r2, #4]
 8001fbe:	6850      	ldr	r0, [r2, #4]
 8001fc0:	f440 4080 	orr.w	r0, r0, #16384	; 0x4000
 8001fc4:	6050      	str	r0, [r2, #4]
 8001fc6:	f103 0220 	add.w	r2, r3, #32
 8001fca:	eb01 02c2 	add.w	r2, r1, r2, lsl #3
 8001fce:	6850      	ldr	r0, [r2, #4]
 8001fd0:	f440 5000 	orr.w	r0, r0, #8192	; 0x2000
 8001fd4:	6050      	str	r0, [r2, #4]
 8001fd6:	6850      	ldr	r0, [r2, #4]
 8001fd8:	f440 4080 	orr.w	r0, r0, #16384	; 0x4000
 8001fdc:	6050      	str	r0, [r2, #4]
 8001fde:	f103 0210 	add.w	r2, r3, #16
 8001fe2:	eb01 02c2 	add.w	r2, r1, r2, lsl #3
 8001fe6:	6850      	ldr	r0, [r2, #4]
 8001fe8:	f440 5000 	orr.w	r0, r0, #8192	; 0x2000
 8001fec:	6050      	str	r0, [r2, #4]
 8001fee:	6850      	ldr	r0, [r2, #4]
 8001ff0:	f440 4080 	orr.w	r0, r0, #16384	; 0x4000
 8001ff4:	6050      	str	r0, [r2, #4]
 8001ff6:	f103 0230 	add.w	r2, r3, #48	; 0x30
 8001ffa:	eb01 02c2 	add.w	r2, r1, r2, lsl #3
 8001ffe:	3301      	adds	r3, #1
 8002000:	6850      	ldr	r0, [r2, #4]
 8002002:	f440 5000 	orr.w	r0, r0, #8192	; 0x2000
 8002006:	6050      	str	r0, [r2, #4]
 8002008:	6850      	ldr	r0, [r2, #4]
 800200a:	2b10      	cmp	r3, #16
 800200c:	f440 4080 	orr.w	r0, r0, #16384	; 0x4000
 8002010:	6050      	str	r0, [r2, #4]
 8002012:	d1ce      	bne.n	8001fb2 <LoadSequence+0x56>
 8002014:	4a0f      	ldr	r2, [pc, #60]	; (8002054 <LoadSequence+0xf8>)
 8002016:	2302      	movs	r3, #2
 8002018:	7013      	strb	r3, [r2, #0]
 800201a:	4a0f      	ldr	r2, [pc, #60]	; (8002058 <LoadSequence+0xfc>)
 800201c:	7013      	strb	r3, [r2, #0]
 800201e:	e8bd 4038 	ldmia.w	sp!, {r3, r4, r5, lr}
 8002022:	f7ff bcc9 	b.w	80019b8 <mADC_init>
 8002026:	3420      	adds	r4, #32
 8002028:	0264      	lsls	r4, r4, #9
 800202a:	b2a4      	uxth	r4, r4
 800202c:	4620      	mov	r0, r4
 800202e:	f44f 7280 	mov.w	r2, #256	; 0x100
 8002032:	4905      	ldr	r1, [pc, #20]	; (8002048 <LoadSequence+0xec>)
 8002034:	f7ff f98a 	bl	800134c <CAT25512_read_block>
 8002038:	f504 7080 	add.w	r0, r4, #256	; 0x100
 800203c:	e7ac      	b.n	8001f98 <LoadSequence+0x3c>
 800203e:	bf00      	nop
 8002040:	e000e100 	.word	0xe000e100
 8002044:	20000270 	.word	0x20000270
 8002048:	20000898 	.word	0x20000898
 800204c:	20000998 	.word	0x20000998
 8002050:	200002e0 	.word	0x200002e0
 8002054:	200002b9 	.word	0x200002b9
 8002058:	200002ba 	.word	0x200002ba

0800205c <GetStepWidth>:
 800205c:	b510      	push	{r4, lr}
 800205e:	4a46      	ldr	r2, [pc, #280]	; (8002178 <GetStepWidth+0x11c>)
 8002060:	0140      	lsls	r0, r0, #5
 8002062:	1843      	adds	r3, r0, r1
 8002064:	eb02 04c3 	add.w	r4, r2, r3, lsl #3
 8002068:	6864      	ldr	r4, [r4, #4]
 800206a:	f852 3033 	ldr.w	r3, [r2, r3, lsl #3]
 800206e:	0564      	lsls	r4, r4, #21
 8002070:	f3c3 330b 	ubfx	r3, r3, #12, #12
 8002074:	d578      	bpl.n	8002168 <GetStepWidth+0x10c>
 8002076:	f240 34ff 	movw	r4, #1023	; 0x3ff
 800207a:	fb93 f3f4 	sdiv	r3, r3, r4
 800207e:	2b04      	cmp	r3, #4
 8002080:	bf08      	it	eq
 8002082:	2303      	moveq	r3, #3
 8002084:	b2db      	uxtb	r3, r3
 8002086:	4c3d      	ldr	r4, [pc, #244]	; (800217c <GetStepWidth+0x120>)
 8002088:	ed9f 6a3d 	vldr	s12, [pc, #244]	; 8002180 <GetStepWidth+0x124>
 800208c:	f854 4023 	ldr.w	r4, [r4, r3, lsl #2]
 8002090:	ee07 4a10 	vmov	s14, r4
 8002094:	4c3b      	ldr	r4, [pc, #236]	; (8002184 <GetStepWidth+0x128>)
 8002096:	f854 3023 	ldr.w	r3, [r4, r3, lsl #2]
 800209a:	ee06 3a90 	vmov	s13, r3
 800209e:	eef8 6a66 	vcvt.f32.u32	s13, s13
 80020a2:	eeb8 7a47 	vcvt.f32.u32	s14, s14
 80020a6:	eec6 7a26 	vdiv.f32	s15, s12, s13
 80020aa:	ee27 7a87 	vmul.f32	s14, s15, s14
 80020ae:	eebc 7ac7 	vcvt.u32.f32	s14, s14
 80020b2:	1843      	adds	r3, r0, r1
 80020b4:	eb02 03c3 	add.w	r3, r2, r3, lsl #3
 80020b8:	685b      	ldr	r3, [r3, #4]
 80020ba:	065c      	lsls	r4, r3, #25
 80020bc:	d558      	bpl.n	8002170 <GetStepWidth+0x114>
 80020be:	eddf 7a32 	vldr	s15, [pc, #200]	; 8002188 <GetStepWidth+0x12c>
 80020c2:	ed9f 6a2f 	vldr	s12, [pc, #188]	; 8002180 <GetStepWidth+0x124>
 80020c6:	eef8 6a47 	vcvt.f32.u32	s13, s14
 80020ca:	ee66 6aa7 	vmul.f32	s13, s13, s15
 80020ce:	eec6 7a86 	vdiv.f32	s15, s13, s12
 80020d2:	eef2 6a00 	vmov.f32	s13, #32	; 0x41000000  8.0
 80020d6:	ee77 7aa6 	vadd.f32	s15, s15, s13
 80020da:	eefc 7ae7 	vcvt.u32.f32	s15, s15
 80020de:	1843      	adds	r3, r0, r1
 80020e0:	eb02 03c3 	add.w	r3, r2, r3, lsl #3
 80020e4:	685b      	ldr	r3, [r3, #4]
 80020e6:	061b      	lsls	r3, r3, #24
 80020e8:	d50f      	bpl.n	800210a <GetStepWidth+0xae>
 80020ea:	eddf 7a28 	vldr	s15, [pc, #160]	; 800218c <GetStepWidth+0x130>
 80020ee:	ed9f 6a24 	vldr	s12, [pc, #144]	; 8002180 <GetStepWidth+0x124>
 80020f2:	eef8 6a47 	vcvt.f32.u32	s13, s14
 80020f6:	ee66 6aa7 	vmul.f32	s13, s13, s15
 80020fa:	eec6 7a86 	vdiv.f32	s15, s13, s12
 80020fe:	eddf 6a24 	vldr	s13, [pc, #144]	; 8002190 <GetStepWidth+0x134>
 8002102:	ee77 7aa6 	vadd.f32	s15, s15, s13
 8002106:	eefc 7ae7 	vcvt.u32.f32	s15, s15
 800210a:	1843      	adds	r3, r0, r1
 800210c:	eb02 03c3 	add.w	r3, r2, r3, lsl #3
 8002110:	685b      	ldr	r3, [r3, #4]
 8002112:	05dc      	lsls	r4, r3, #23
 8002114:	d50f      	bpl.n	8002136 <GetStepWidth+0xda>
 8002116:	eddf 7a1f 	vldr	s15, [pc, #124]	; 8002194 <GetStepWidth+0x138>
 800211a:	ed9f 6a19 	vldr	s12, [pc, #100]	; 8002180 <GetStepWidth+0x124>
 800211e:	eef8 6a47 	vcvt.f32.u32	s13, s14
 8002122:	ee66 6aa7 	vmul.f32	s13, s13, s15
 8002126:	eec6 7a86 	vdiv.f32	s15, s13, s12
 800212a:	eddf 6a1b 	vldr	s13, [pc, #108]	; 8002198 <GetStepWidth+0x13c>
 800212e:	ee77 7aa6 	vadd.f32	s15, s15, s13
 8002132:	eefc 7ae7 	vcvt.u32.f32	s15, s15
 8002136:	4408      	add	r0, r1
 8002138:	eb02 02c0 	add.w	r2, r2, r0, lsl #3
 800213c:	6853      	ldr	r3, [r2, #4]
 800213e:	059b      	lsls	r3, r3, #22
 8002140:	d50f      	bpl.n	8002162 <GetStepWidth+0x106>
 8002142:	eddf 7a16 	vldr	s15, [pc, #88]	; 800219c <GetStepWidth+0x140>
 8002146:	eddf 6a0e 	vldr	s13, [pc, #56]	; 8002180 <GetStepWidth+0x124>
 800214a:	eeb8 7a47 	vcvt.f32.u32	s14, s14
 800214e:	ee27 7a27 	vmul.f32	s14, s14, s15
 8002152:	eec7 7a26 	vdiv.f32	s15, s14, s13
 8002156:	ed9f 7a12 	vldr	s14, [pc, #72]	; 80021a0 <GetStepWidth+0x144>
 800215a:	ee77 7a87 	vadd.f32	s15, s15, s14
 800215e:	eefc 7ae7 	vcvt.u32.f32	s15, s15
 8002162:	ee17 0a90 	vmov	r0, s15
 8002166:	bd10      	pop	{r4, pc}
 8002168:	3301      	adds	r3, #1
 800216a:	ee07 3a10 	vmov	s14, r3
 800216e:	e7a0      	b.n	80020b2 <GetStepWidth+0x56>
 8002170:	eddf 7a0c 	vldr	s15, [pc, #48]	; 80021a4 <GetStepWidth+0x148>
 8002174:	e7b3      	b.n	80020de <GetStepWidth+0x82>
 8002176:	bf00      	nop
 8002178:	20000898 	.word	0x20000898
 800217c:	200007ec 	.word	0x200007ec
 8002180:	457ff000 	.word	0x457ff000
 8002184:	20000250 	.word	0x20000250
 8002188:	42e00000 	.word	0x42e00000
 800218c:	448c0000 	.word	0x448c0000
 8002190:	42a00000 	.word	0x42a00000
 8002194:	462f0000 	.word	0x462f0000
 8002198:	44480000 	.word	0x44480000
 800219c:	47dac000 	.word	0x47dac000
 80021a0:	45fa0000 	.word	0x45fa0000
 80021a4:	00000000 	.word	0x00000000

080021a8 <GetStepVoltage>:
 80021a8:	b570      	push	{r4, r5, r6, lr}
 80021aa:	0144      	lsls	r4, r0, #5
 80021ac:	4a82      	ldr	r2, [pc, #520]	; (80023b8 <GetStepVoltage+0x210>)
 80021ae:	1863      	adds	r3, r4, r1
 80021b0:	f852 0033 	ldr.w	r0, [r2, r3, lsl #3]
 80021b4:	f852 3033 	ldr.w	r3, [r2, r3, lsl #3]
 80021b8:	0100      	lsls	r0, r0, #4
 80021ba:	f3c3 030b 	ubfx	r3, r3, #0, #12
 80021be:	f140 80f4 	bpl.w	80023aa <GetStepVoltage+0x202>
 80021c2:	f240 30ff 	movw	r0, #1023	; 0x3ff
 80021c6:	fb93 f3f0 	sdiv	r3, r3, r0
 80021ca:	2b04      	cmp	r3, #4
 80021cc:	bf08      	it	eq
 80021ce:	2303      	moveq	r3, #3
 80021d0:	b2db      	uxtb	r3, r3
 80021d2:	487a      	ldr	r0, [pc, #488]	; (80023bc <GetStepVoltage+0x214>)
 80021d4:	ed9f 6a7a 	vldr	s12, [pc, #488]	; 80023c0 <GetStepVoltage+0x218>
 80021d8:	f850 0023 	ldr.w	r0, [r0, r3, lsl #2]
 80021dc:	ee07 0a90 	vmov	s15, r0
 80021e0:	4878      	ldr	r0, [pc, #480]	; (80023c4 <GetStepVoltage+0x21c>)
 80021e2:	f850 3023 	ldr.w	r3, [r0, r3, lsl #2]
 80021e6:	ee06 3a90 	vmov	s13, r3
 80021ea:	eef8 6a66 	vcvt.f32.u32	s13, s13
 80021ee:	eef8 7a67 	vcvt.f32.u32	s15, s15
 80021f2:	ee86 7a26 	vdiv.f32	s14, s12, s13
 80021f6:	f640 73ff 	movw	r3, #4095	; 0xfff
 80021fa:	ee67 7a27 	vmul.f32	s15, s14, s15
 80021fe:	eefc 7ae7 	vcvt.u32.f32	s15, s15
 8002202:	ee17 0a90 	vmov	r0, s15
 8002206:	4298      	cmp	r0, r3
 8002208:	bf28      	it	cs
 800220a:	4618      	movcs	r0, r3
 800220c:	ee07 0a90 	vmov	s15, r0
 8002210:	1863      	adds	r3, r4, r1
 8002212:	f852 0033 	ldr.w	r0, [r2, r3, lsl #3]
 8002216:	f3c0 6080 	ubfx	r0, r0, #26, #1
 800221a:	b1c8      	cbz	r0, 8002250 <GetStepVoltage+0xa8>
 800221c:	f852 3033 	ldr.w	r3, [r2, r3, lsl #3]
 8002220:	01db      	lsls	r3, r3, #7
 8002222:	f140 80c5 	bpl.w	80023b0 <GetStepVoltage+0x208>
 8002226:	4b68      	ldr	r3, [pc, #416]	; (80023c8 <GetStepVoltage+0x220>)
 8002228:	ed93 7a00 	vldr	s14, [r3]
 800222c:	eef2 6a08 	vmov.f32	s13, #40	; 0x41400000  12.0
 8002230:	ee67 6a26 	vmul.f32	s13, s14, s13
 8002234:	eeb8 6ae7 	vcvt.f32.s32	s12, s15
 8002238:	ee86 7a26 	vdiv.f32	s14, s12, s13
 800223c:	eebc 7ac7 	vcvt.u32.f32	s14, s14
 8002240:	eeb8 7a47 	vcvt.f32.u32	s14, s14
 8002244:	ee27 7a26 	vmul.f32	s14, s14, s13
 8002248:	eebc 7ac7 	vcvt.u32.f32	s14, s14
 800224c:	ee17 0a10 	vmov	r0, s14
 8002250:	1863      	adds	r3, r4, r1
 8002252:	f852 5033 	ldr.w	r5, [r2, r3, lsl #3]
 8002256:	00ee      	lsls	r6, r5, #3
 8002258:	d519      	bpl.n	800228e <GetStepVoltage+0xe6>
 800225a:	485b      	ldr	r0, [pc, #364]	; (80023c8 <GetStepVoltage+0x220>)
 800225c:	f852 3033 	ldr.w	r3, [r2, r3, lsl #3]
 8002260:	ed90 6a00 	vldr	s12, [r0]
 8002264:	eeb8 7ae7 	vcvt.f32.s32	s14, s15
 8002268:	01dd      	lsls	r5, r3, #7
 800226a:	eec7 6a06 	vdiv.f32	s13, s14, s12
 800226e:	eebc 7ae6 	vcvt.u32.f32	s14, s13
 8002272:	ee17 0a10 	vmov	r0, s14
 8002276:	d50a      	bpl.n	800228e <GetStepVoltage+0xe6>
 8002278:	4e54      	ldr	r6, [pc, #336]	; (80023cc <GetStepVoltage+0x224>)
 800227a:	250c      	movs	r5, #12
 800227c:	6833      	ldr	r3, [r6, #0]
 800227e:	fbb3 f3f5 	udiv	r3, r3, r5
 8002282:	fbb0 f0f3 	udiv	r0, r0, r3
 8002286:	6833      	ldr	r3, [r6, #0]
 8002288:	fbb3 f3f5 	udiv	r3, r3, r5
 800228c:	4358      	muls	r0, r3
 800228e:	1865      	adds	r5, r4, r1
 8002290:	f852 3035 	ldr.w	r3, [r2, r5, lsl #3]
 8002294:	009b      	lsls	r3, r3, #2
 8002296:	d51c      	bpl.n	80022d2 <GetStepVoltage+0x12a>
 8002298:	4b4b      	ldr	r3, [pc, #300]	; (80023c8 <GetStepVoltage+0x220>)
 800229a:	f852 0035 	ldr.w	r0, [r2, r5, lsl #3]
 800229e:	ed93 6a00 	vldr	s12, [r3]
 80022a2:	4d4a      	ldr	r5, [pc, #296]	; (80023cc <GetStepVoltage+0x224>)
 80022a4:	eef8 6ae7 	vcvt.f32.s32	s13, s15
 80022a8:	f010 7f80 	tst.w	r0, #16777216	; 0x1000000
 80022ac:	ee86 7a86 	vdiv.f32	s14, s13, s12
 80022b0:	eebc 7ac7 	vcvt.u32.f32	s14, s14
 80022b4:	ee17 3a10 	vmov	r3, s14
 80022b8:	d009      	beq.n	80022ce <GetStepVoltage+0x126>
 80022ba:	6828      	ldr	r0, [r5, #0]
 80022bc:	260c      	movs	r6, #12
 80022be:	fbb0 f0f6 	udiv	r0, r0, r6
 80022c2:	fbb3 f0f0 	udiv	r0, r3, r0
 80022c6:	682b      	ldr	r3, [r5, #0]
 80022c8:	fbb3 f3f6 	udiv	r3, r3, r6
 80022cc:	4343      	muls	r3, r0
 80022ce:	6828      	ldr	r0, [r5, #0]
 80022d0:	4418      	add	r0, r3
 80022d2:	1865      	adds	r5, r4, r1
 80022d4:	f852 3035 	ldr.w	r3, [r2, r5, lsl #3]
 80022d8:	005e      	lsls	r6, r3, #1
 80022da:	d51d      	bpl.n	8002318 <GetStepVoltage+0x170>
 80022dc:	4b3a      	ldr	r3, [pc, #232]	; (80023c8 <GetStepVoltage+0x220>)
 80022de:	f852 0035 	ldr.w	r0, [r2, r5, lsl #3]
 80022e2:	ed93 6a00 	vldr	s12, [r3]
 80022e6:	4d39      	ldr	r5, [pc, #228]	; (80023cc <GetStepVoltage+0x224>)
 80022e8:	eef8 6ae7 	vcvt.f32.s32	s13, s15
 80022ec:	f010 7f80 	tst.w	r0, #16777216	; 0x1000000
 80022f0:	ee86 7a86 	vdiv.f32	s14, s13, s12
 80022f4:	eebc 7ac7 	vcvt.u32.f32	s14, s14
 80022f8:	ee17 3a10 	vmov	r3, s14
 80022fc:	d009      	beq.n	8002312 <GetStepVoltage+0x16a>
 80022fe:	6828      	ldr	r0, [r5, #0]
 8002300:	260c      	movs	r6, #12
 8002302:	fbb0 f0f6 	udiv	r0, r0, r6
 8002306:	fbb3 f3f0 	udiv	r3, r3, r0
 800230a:	6828      	ldr	r0, [r5, #0]
 800230c:	fbb0 f0f6 	udiv	r0, r0, r6
 8002310:	4343      	muls	r3, r0
 8002312:	6828      	ldr	r0, [r5, #0]
 8002314:	eb03 0040 	add.w	r0, r3, r0, lsl #1
 8002318:	1865      	adds	r5, r4, r1
 800231a:	f852 3035 	ldr.w	r3, [r2, r5, lsl #3]
 800231e:	2b00      	cmp	r3, #0
 8002320:	da1e      	bge.n	8002360 <GetStepVoltage+0x1b8>
 8002322:	4b29      	ldr	r3, [pc, #164]	; (80023c8 <GetStepVoltage+0x220>)
 8002324:	f852 0035 	ldr.w	r0, [r2, r5, lsl #3]
 8002328:	ed93 6a00 	vldr	s12, [r3]
 800232c:	4d27      	ldr	r5, [pc, #156]	; (80023cc <GetStepVoltage+0x224>)
 800232e:	eef8 6ae7 	vcvt.f32.s32	s13, s15
 8002332:	f010 7f80 	tst.w	r0, #16777216	; 0x1000000
 8002336:	ee86 7a86 	vdiv.f32	s14, s13, s12
 800233a:	eebc 7ac7 	vcvt.u32.f32	s14, s14
 800233e:	ee17 3a10 	vmov	r3, s14
 8002342:	d009      	beq.n	8002358 <GetStepVoltage+0x1b0>
 8002344:	6828      	ldr	r0, [r5, #0]
 8002346:	260c      	movs	r6, #12
 8002348:	fbb0 f0f6 	udiv	r0, r0, r6
 800234c:	fbb3 f3f0 	udiv	r3, r3, r0
 8002350:	6828      	ldr	r0, [r5, #0]
 8002352:	fbb0 f0f6 	udiv	r0, r0, r6
 8002356:	4343      	muls	r3, r0
 8002358:	6828      	ldr	r0, [r5, #0]
 800235a:	eb00 0040 	add.w	r0, r0, r0, lsl #1
 800235e:	4418      	add	r0, r3
 8002360:	4421      	add	r1, r4
 8002362:	eb02 03c1 	add.w	r3, r2, r1, lsl #3
 8002366:	685b      	ldr	r3, [r3, #4]
 8002368:	07db      	lsls	r3, r3, #31
 800236a:	d51d      	bpl.n	80023a8 <GetStepVoltage+0x200>
 800236c:	4b16      	ldr	r3, [pc, #88]	; (80023c8 <GetStepVoltage+0x220>)
 800236e:	eef8 7ae7 	vcvt.f32.s32	s15, s15
 8002372:	edd3 6a00 	vldr	s13, [r3]
 8002376:	f852 3031 	ldr.w	r3, [r2, r1, lsl #3]
 800237a:	ee87 7aa6 	vdiv.f32	s14, s15, s13
 800237e:	f013 7f80 	tst.w	r3, #16777216	; 0x1000000
 8002382:	4b12      	ldr	r3, [pc, #72]	; (80023cc <GetStepVoltage+0x224>)
 8002384:	eefc 7ac7 	vcvt.u32.f32	s15, s14
 8002388:	ee17 0a90 	vmov	r0, s15
 800238c:	d009      	beq.n	80023a2 <GetStepVoltage+0x1fa>
 800238e:	6819      	ldr	r1, [r3, #0]
 8002390:	681a      	ldr	r2, [r3, #0]
 8002392:	240c      	movs	r4, #12
 8002394:	fbb1 f1f4 	udiv	r1, r1, r4
 8002398:	fbb2 f2f4 	udiv	r2, r2, r4
 800239c:	fbb0 f0f1 	udiv	r0, r0, r1
 80023a0:	4350      	muls	r0, r2
 80023a2:	681b      	ldr	r3, [r3, #0]
 80023a4:	eb00 0083 	add.w	r0, r0, r3, lsl #2
 80023a8:	bd70      	pop	{r4, r5, r6, pc}
 80023aa:	ee07 3a90 	vmov	s15, r3
 80023ae:	e72f      	b.n	8002210 <GetStepVoltage+0x68>
 80023b0:	ee17 0a90 	vmov	r0, s15
 80023b4:	e74c      	b.n	8002250 <GetStepVoltage+0xa8>
 80023b6:	bf00      	nop
 80023b8:	20000898 	.word	0x20000898
 80023bc:	200007ec 	.word	0x200007ec
 80023c0:	457ff000 	.word	0x457ff000
 80023c4:	20000250 	.word	0x20000250
 80023c8:	2000088c 	.word	0x2000088c
 80023cc:	20000894 	.word	0x20000894

080023d0 <GetNextStep>:
 80023d0:	b5f8      	push	{r3, r4, r5, r6, r7, lr}
 80023d2:	4606      	mov	r6, r0
 80023d4:	460c      	mov	r4, r1
 80023d6:	f7ff fa01 	bl	80017dc <Is_Expander_Present>
 80023da:	bb08      	cbnz	r0, 8002420 <GetNextStep+0x50>
 80023dc:	2c0f      	cmp	r4, #15
 80023de:	d81e      	bhi.n	800241e <GetNextStep+0x4e>
 80023e0:	220f      	movs	r2, #15
 80023e2:	4d1a      	ldr	r5, [pc, #104]	; (800244c <GetNextStep+0x7c>)
 80023e4:	0171      	lsls	r1, r6, #5
 80023e6:	190b      	adds	r3, r1, r4
 80023e8:	eb05 03c3 	add.w	r3, r5, r3, lsl #3
 80023ec:	685b      	ldr	r3, [r3, #4]
 80023ee:	069f      	lsls	r7, r3, #26
 80023f0:	d510      	bpl.n	8002414 <GetNextStep+0x44>
 80023f2:	2300      	movs	r3, #0
 80023f4:	2701      	movs	r7, #1
 80023f6:	eb02 0c04 	add.w	ip, r2, r4
 80023fa:	b2d8      	uxtb	r0, r3
 80023fc:	4284      	cmp	r4, r0
 80023fe:	d311      	bcc.n	8002424 <GetNextStep+0x54>
 8002400:	1ae6      	subs	r6, r4, r3
 8002402:	440e      	add	r6, r1
 8002404:	eb05 06c6 	add.w	r6, r5, r6, lsl #3
 8002408:	6876      	ldr	r6, [r6, #4]
 800240a:	06f6      	lsls	r6, r6, #27
 800240c:	d515      	bpl.n	800243a <GetNextStep+0x6a>
 800240e:	1a20      	subs	r0, r4, r0
 8002410:	b2c0      	uxtb	r0, r0
 8002412:	b927      	cbnz	r7, 800241e <GetNextStep+0x4e>
 8002414:	42a2      	cmp	r2, r4
 8002416:	bf86      	itte	hi
 8002418:	1c60      	addhi	r0, r4, #1
 800241a:	b2c0      	uxtbhi	r0, r0
 800241c:	2000      	movls	r0, #0
 800241e:	bdf8      	pop	{r3, r4, r5, r6, r7, pc}
 8002420:	221f      	movs	r2, #31
 8002422:	e7de      	b.n	80023e2 <GetNextStep+0x12>
 8002424:	ebac 0603 	sub.w	r6, ip, r3
 8002428:	440e      	add	r6, r1
 800242a:	eb05 06c6 	add.w	r6, r5, r6, lsl #3
 800242e:	6876      	ldr	r6, [r6, #4]
 8002430:	06f6      	lsls	r6, r6, #27
 8002432:	d502      	bpl.n	800243a <GetNextStep+0x6a>
 8002434:	ebac 0000 	sub.w	r0, ip, r0
 8002438:	e7ea      	b.n	8002410 <GetNextStep+0x40>
 800243a:	3301      	adds	r3, #1
 800243c:	4282      	cmp	r2, r0
 800243e:	bf08      	it	eq
 8002440:	2700      	moveq	r7, #0
 8002442:	b2d8      	uxtb	r0, r3
 8002444:	4290      	cmp	r0, r2
 8002446:	d9d8      	bls.n	80023fa <GetNextStep+0x2a>
 8002448:	2000      	movs	r0, #0
 800244a:	e7e2      	b.n	8002412 <GetNextStep+0x42>
 800244c:	20000898 	.word	0x20000898

08002450 <TIM4_IRQHandler>:
 8002450:	e92d 4ff8 	stmdb	sp!, {r3, r4, r5, r6, r7, r8, r9, sl, fp, lr}
 8002454:	4dbe      	ldr	r5, [pc, #760]	; (8002750 <TIM4_IRQHandler+0x300>)
 8002456:	4cbf      	ldr	r4, [pc, #764]	; (8002754 <TIM4_IRQHandler+0x304>)
 8002458:	4ebf      	ldr	r6, [pc, #764]	; (8002758 <TIM4_IRQHandler+0x308>)
 800245a:	f8df a324 	ldr.w	sl, [pc, #804]	; 8002780 <TIM4_IRQHandler+0x330>
 800245e:	f64f 73fe 	movw	r3, #65534	; 0xfffe
 8002462:	822b      	strh	r3, [r5, #16]
 8002464:	7821      	ldrb	r1, [r4, #0]
 8002466:	2000      	movs	r0, #0
 8002468:	f7ff fdf8 	bl	800205c <GetStepWidth>
 800246c:	4bbb      	ldr	r3, [pc, #748]	; (800275c <TIM4_IRQHandler+0x30c>)
 800246e:	ed93 7a04 	vldr	s14, [r3, #16]
 8002472:	4bbb      	ldr	r3, [pc, #748]	; (8002760 <TIM4_IRQHandler+0x310>)
 8002474:	eeb8 7a47 	vcvt.f32.u32	s14, s14
 8002478:	edd3 6a04 	vldr	s13, [r3, #16]
 800247c:	eef0 7a0c 	vmov.f32	s15, #12	; 0x40600000  3.5
 8002480:	ee27 7a27 	vmul.f32	s14, s14, s15
 8002484:	eef8 6a66 	vcvt.f32.u32	s13, s13
 8002488:	4683      	mov	fp, r0
 800248a:	eec7 7a26 	vdiv.f32	s15, s14, s13
 800248e:	eeb6 7a00 	vmov.f32	s14, #96	; 0x3f000000  0.5
 8002492:	ee77 7a87 	vadd.f32	s15, s15, s14
 8002496:	ed9f 7ab3 	vldr	s14, [pc, #716]	; 8002764 <TIM4_IRQHandler+0x314>
 800249a:	ee67 7a87 	vmul.f32	s15, s15, s14
 800249e:	eefc 7ae7 	vcvt.u32.f32	s15, s15
 80024a2:	ee17 3a90 	vmov	r3, s15
 80024a6:	b29b      	uxth	r3, r3
 80024a8:	852b      	strh	r3, [r5, #40]	; 0x28
 80024aa:	7823      	ldrb	r3, [r4, #0]
 80024ac:	4dae      	ldr	r5, [pc, #696]	; (8002768 <TIM4_IRQHandler+0x318>)
 80024ae:	b2db      	uxtb	r3, r3
 80024b0:	f856 7033 	ldr.w	r7, [r6, r3, lsl #3]
 80024b4:	7821      	ldrb	r1, [r4, #0]
 80024b6:	f3c7 6740 	ubfx	r7, r7, #25, #1
 80024ba:	2f00      	cmp	r7, #0
 80024bc:	f000 8200 	beq.w	80028c0 <TIM4_IRQHandler+0x470>
 80024c0:	2000      	movs	r0, #0
 80024c2:	f7ff fe71 	bl	80021a8 <GetStepVoltage>
 80024c6:	782b      	ldrb	r3, [r5, #0]
 80024c8:	4607      	mov	r7, r0
 80024ca:	b11b      	cbz	r3, 80024d4 <TIM4_IRQHandler+0x84>
 80024cc:	782b      	ldrb	r3, [r5, #0]
 80024ce:	2b06      	cmp	r3, #6
 80024d0:	f040 81f0 	bne.w	80028b4 <TIM4_IRQHandler+0x464>
 80024d4:	4ba5      	ldr	r3, [pc, #660]	; (800276c <TIM4_IRQHandler+0x31c>)
 80024d6:	681a      	ldr	r2, [r3, #0]
 80024d8:	42ba      	cmp	r2, r7
 80024da:	4698      	mov	r8, r3
 80024dc:	d91c      	bls.n	8002518 <TIM4_IRQHandler+0xc8>
 80024de:	681b      	ldr	r3, [r3, #0]
 80024e0:	f8d8 1000 	ldr.w	r1, [r8]
 80024e4:	edda 7a00 	vldr	s15, [sl]
 80024e8:	1bdb      	subs	r3, r3, r7
 80024ea:	ee07 3a10 	vmov	s14, r3
 80024ee:	eef8 6a47 	vcvt.f32.u32	s13, s14
 80024f2:	ee07 ba10 	vmov	s14, fp
 80024f6:	eeb8 6a47 	vcvt.f32.u32	s12, s14
 80024fa:	eef8 7a67 	vcvt.f32.u32	s15, s15
 80024fe:	ee86 7a86 	vdiv.f32	s14, s13, s12
 8002502:	2000      	movs	r0, #0
 8002504:	ee67 7a27 	vmul.f32	s15, s14, s15
 8002508:	eefc 7ae7 	vcvt.u32.f32	s15, s15
 800250c:	ee17 3a90 	vmov	r3, s15
 8002510:	1ac9      	subs	r1, r1, r3
 8002512:	b289      	uxth	r1, r1
 8002514:	f7fe fb3e 	bl	8000b94 <DAC_SetChannel1Data>
 8002518:	f8d8 3000 	ldr.w	r3, [r8]
 800251c:	42bb      	cmp	r3, r7
 800251e:	d21f      	bcs.n	8002560 <TIM4_IRQHandler+0x110>
 8002520:	f8d8 1000 	ldr.w	r1, [r8]
 8002524:	f8da 3000 	ldr.w	r3, [sl]
 8002528:	f8d8 2000 	ldr.w	r2, [r8]
 800252c:	1a7f      	subs	r7, r7, r1
 800252e:	ee07 ba10 	vmov	s14, fp
 8002532:	ee07 7a90 	vmov	s15, r7
 8002536:	eef8 6a47 	vcvt.f32.u32	s13, s14
 800253a:	eef8 7a67 	vcvt.f32.u32	s15, s15
 800253e:	ee87 7aa6 	vdiv.f32	s14, s15, s13
 8002542:	ee07 3a90 	vmov	s15, r3
 8002546:	eef8 7a67 	vcvt.f32.u32	s15, s15
 800254a:	ee67 7a27 	vmul.f32	s15, s14, s15
 800254e:	eefc 7ae7 	vcvt.u32.f32	s15, s15
 8002552:	ee17 1a90 	vmov	r1, s15
 8002556:	4411      	add	r1, r2
 8002558:	b289      	uxth	r1, r1
 800255a:	2000      	movs	r0, #0
 800255c:	f7fe fb1a 	bl	8000b94 <DAC_SetChannel1Data>
 8002560:	7823      	ldrb	r3, [r4, #0]
 8002562:	b2db      	uxtb	r3, r3
 8002564:	2000      	movs	r0, #0
 8002566:	f856 1033 	ldr.w	r1, [r6, r3, lsl #3]
 800256a:	f3c1 3189 	ubfx	r1, r1, #14, #10
 800256e:	f7ff f859 	bl	8001624 <MAX5135_DAC_send>
 8002572:	4658      	mov	r0, fp
 8002574:	f7fd ff6a 	bl	800044c <__aeabi_ui2d>
 8002578:	4602      	mov	r2, r0
 800257a:	460b      	mov	r3, r1
 800257c:	a172      	add	r1, pc, #456	; (adr r1, 8002748 <TIM4_IRQHandler+0x2f8>)
 800257e:	e9d1 0100 	ldrd	r0, r1, [r1]
 8002582:	f7fe f907 	bl	8000794 <__aeabi_ddiv>
 8002586:	f8da 7000 	ldr.w	r7, [sl]
 800258a:	4680      	mov	r8, r0
 800258c:	4638      	mov	r0, r7
 800258e:	4689      	mov	r9, r1
 8002590:	f7fd ff5c 	bl	800044c <__aeabi_ui2d>
 8002594:	460b      	mov	r3, r1
 8002596:	4602      	mov	r2, r0
 8002598:	4649      	mov	r1, r9
 800259a:	4640      	mov	r0, r8
 800259c:	f7fd ffd0 	bl	8000540 <__aeabi_dmul>
 80025a0:	f7fe f9e0 	bl	8000964 <__aeabi_d2uiz>
 80025a4:	f5c0 717f 	rsb	r1, r0, #1020	; 0x3fc
 80025a8:	3103      	adds	r1, #3
 80025aa:	2001      	movs	r0, #1
 80025ac:	f7ff f83a 	bl	8001624 <MAX5135_DAC_send>
 80025b0:	782b      	ldrb	r3, [r5, #0]
 80025b2:	b113      	cbz	r3, 80025ba <TIM4_IRQHandler+0x16a>
 80025b4:	782b      	ldrb	r3, [r5, #0]
 80025b6:	2b06      	cmp	r3, #6
 80025b8:	d104      	bne.n	80025c4 <TIM4_IRQHandler+0x174>
 80025ba:	f8da 3000 	ldr.w	r3, [sl]
 80025be:	3301      	adds	r3, #1
 80025c0:	f8ca 3000 	str.w	r3, [sl]
 80025c4:	f8da 3000 	ldr.w	r3, [sl]
 80025c8:	455b      	cmp	r3, fp
 80025ca:	f0c0 8119 	bcc.w	8002800 <TIM4_IRQHandler+0x3b0>
 80025ce:	7821      	ldrb	r1, [r4, #0]
 80025d0:	2000      	movs	r0, #0
 80025d2:	f7ff fde9 	bl	80021a8 <GetStepVoltage>
 80025d6:	4b65      	ldr	r3, [pc, #404]	; (800276c <TIM4_IRQHandler+0x31c>)
 80025d8:	6018      	str	r0, [r3, #0]
 80025da:	782b      	ldrb	r3, [r5, #0]
 80025dc:	2b06      	cmp	r3, #6
 80025de:	bf04      	itt	eq
 80025e0:	2302      	moveq	r3, #2
 80025e2:	702b      	strbeq	r3, [r5, #0]
 80025e4:	7823      	ldrb	r3, [r4, #0]
 80025e6:	eb06 03c3 	add.w	r3, r6, r3, lsl #3
 80025ea:	685b      	ldr	r3, [r3, #4]
 80025ec:	0799      	lsls	r1, r3, #30
 80025ee:	d505      	bpl.n	80025fc <TIM4_IRQHandler+0x1ac>
 80025f0:	782b      	ldrb	r3, [r5, #0]
 80025f2:	4a5f      	ldr	r2, [pc, #380]	; (8002770 <TIM4_IRQHandler+0x320>)
 80025f4:	b2db      	uxtb	r3, r3
 80025f6:	7013      	strb	r3, [r2, #0]
 80025f8:	2302      	movs	r3, #2
 80025fa:	702b      	strb	r3, [r5, #0]
 80025fc:	7823      	ldrb	r3, [r4, #0]
 80025fe:	eb06 03c3 	add.w	r3, r6, r3, lsl #3
 8002602:	685b      	ldr	r3, [r3, #4]
 8002604:	071a      	lsls	r2, r3, #28
 8002606:	d50e      	bpl.n	8002626 <TIM4_IRQHandler+0x1d6>
 8002608:	f44f 7180 	mov.w	r1, #256	; 0x100
 800260c:	4859      	ldr	r0, [pc, #356]	; (8002774 <TIM4_IRQHandler+0x324>)
 800260e:	f7fe fb80 	bl	8000d12 <GPIO_ReadInputDataBit>
 8002612:	b940      	cbnz	r0, 8002626 <TIM4_IRQHandler+0x1d6>
 8002614:	782b      	ldrb	r3, [r5, #0]
 8002616:	2b04      	cmp	r3, #4
 8002618:	d005      	beq.n	8002626 <TIM4_IRQHandler+0x1d6>
 800261a:	782b      	ldrb	r3, [r5, #0]
 800261c:	4a54      	ldr	r2, [pc, #336]	; (8002770 <TIM4_IRQHandler+0x320>)
 800261e:	b2db      	uxtb	r3, r3
 8002620:	7013      	strb	r3, [r2, #0]
 8002622:	2304      	movs	r3, #4
 8002624:	702b      	strb	r3, [r5, #0]
 8002626:	7823      	ldrb	r3, [r4, #0]
 8002628:	eb06 03c3 	add.w	r3, r6, r3, lsl #3
 800262c:	685b      	ldr	r3, [r3, #4]
 800262e:	075b      	lsls	r3, r3, #29
 8002630:	d511      	bpl.n	8002656 <TIM4_IRQHandler+0x206>
 8002632:	f44f 7180 	mov.w	r1, #256	; 0x100
 8002636:	484f      	ldr	r0, [pc, #316]	; (8002774 <TIM4_IRQHandler+0x324>)
 8002638:	f7fe fb6b 	bl	8000d12 <GPIO_ReadInputDataBit>
 800263c:	2801      	cmp	r0, #1
 800263e:	d10a      	bne.n	8002656 <TIM4_IRQHandler+0x206>
 8002640:	782b      	ldrb	r3, [r5, #0]
 8002642:	2b05      	cmp	r3, #5
 8002644:	d007      	beq.n	8002656 <TIM4_IRQHandler+0x206>
 8002646:	782b      	ldrb	r3, [r5, #0]
 8002648:	4a49      	ldr	r2, [pc, #292]	; (8002770 <TIM4_IRQHandler+0x320>)
 800264a:	b2db      	uxtb	r3, r3
 800264c:	7013      	strb	r3, [r2, #0]
 800264e:	2305      	movs	r3, #5
 8002650:	702b      	strb	r3, [r5, #0]
 8002652:	f7ff faf3 	bl	8001c3c <InitStart_1_SignalTimer>
 8002656:	7823      	ldrb	r3, [r4, #0]
 8002658:	eb06 03c3 	add.w	r3, r6, r3, lsl #3
 800265c:	685b      	ldr	r3, [r3, #4]
 800265e:	079f      	lsls	r7, r3, #30
 8002660:	d409      	bmi.n	8002676 <TIM4_IRQHandler+0x226>
 8002662:	7823      	ldrb	r3, [r4, #0]
 8002664:	eb06 03c3 	add.w	r3, r6, r3, lsl #3
 8002668:	685b      	ldr	r3, [r3, #4]
 800266a:	0718      	lsls	r0, r3, #28
 800266c:	bf5e      	ittt	pl
 800266e:	7823      	ldrbpl	r3, [r4, #0]
 8002670:	eb06 03c3 	addpl.w	r3, r6, r3, lsl #3
 8002674:	685b      	ldrpl	r3, [r3, #4]
 8002676:	2300      	movs	r3, #0
 8002678:	f8ca 3000 	str.w	r3, [sl]
 800267c:	782b      	ldrb	r3, [r5, #0]
 800267e:	f003 00ff 	and.w	r0, r3, #255	; 0xff
 8002682:	2b00      	cmp	r3, #0
 8002684:	d131      	bne.n	80026ea <TIM4_IRQHandler+0x29a>
 8002686:	7821      	ldrb	r1, [r4, #0]
 8002688:	f7ff fea2 	bl	80023d0 <GetNextStep>
 800268c:	7020      	strb	r0, [r4, #0]
 800268e:	7821      	ldrb	r1, [r4, #0]
 8002690:	782a      	ldrb	r2, [r5, #0]
 8002692:	7823      	ldrb	r3, [r4, #0]
 8002694:	4838      	ldr	r0, [pc, #224]	; (8002778 <TIM4_IRQHandler+0x328>)
 8002696:	eb06 03c3 	add.w	r3, r6, r3, lsl #3
 800269a:	685b      	ldr	r3, [r3, #4]
 800269c:	f3c3 23c0 	ubfx	r3, r3, #11, #1
 80026a0:	f002 fddf 	bl	8005262 <iprintf>
 80026a4:	f44f 7100 	mov.w	r1, #512	; 0x200
 80026a8:	4832      	ldr	r0, [pc, #200]	; (8002774 <TIM4_IRQHandler+0x324>)
 80026aa:	f7fe fb3a 	bl	8000d22 <GPIO_ResetBits>
 80026ae:	7823      	ldrb	r3, [r4, #0]
 80026b0:	eb06 03c3 	add.w	r3, r6, r3, lsl #3
 80026b4:	685b      	ldr	r3, [r3, #4]
 80026b6:	0519      	lsls	r1, r3, #20
 80026b8:	d504      	bpl.n	80026c4 <TIM4_IRQHandler+0x274>
 80026ba:	f44f 6100 	mov.w	r1, #2048	; 0x800
 80026be:	482d      	ldr	r0, [pc, #180]	; (8002774 <TIM4_IRQHandler+0x324>)
 80026c0:	f7fe fb2f 	bl	8000d22 <GPIO_ResetBits>
 80026c4:	7823      	ldrb	r3, [r4, #0]
 80026c6:	eb06 03c3 	add.w	r3, r6, r3, lsl #3
 80026ca:	685b      	ldr	r3, [r3, #4]
 80026cc:	04da      	lsls	r2, r3, #19
 80026ce:	d504      	bpl.n	80026da <TIM4_IRQHandler+0x28a>
 80026d0:	f44f 6180 	mov.w	r1, #1024	; 0x400
 80026d4:	4827      	ldr	r0, [pc, #156]	; (8002774 <TIM4_IRQHandler+0x324>)
 80026d6:	f7fe fb24 	bl	8000d22 <GPIO_ResetBits>
 80026da:	2101      	movs	r1, #1
 80026dc:	4827      	ldr	r0, [pc, #156]	; (800277c <TIM4_IRQHandler+0x32c>)
 80026de:	f7fe fcc6 	bl	800106e <TIM_Cmd>
 80026e2:	2100      	movs	r1, #0
 80026e4:	4825      	ldr	r0, [pc, #148]	; (800277c <TIM4_IRQHandler+0x32c>)
 80026e6:	f7fe fcb5 	bl	8001054 <TIM_SetCounter>
 80026ea:	782b      	ldrb	r3, [r5, #0]
 80026ec:	2b02      	cmp	r3, #2
 80026ee:	d151      	bne.n	8002794 <TIM4_IRQHandler+0x344>
 80026f0:	7821      	ldrb	r1, [r4, #0]
 80026f2:	2000      	movs	r0, #0
 80026f4:	f7ff fe6c 	bl	80023d0 <GetNextStep>
 80026f8:	7020      	strb	r0, [r4, #0]
 80026fa:	7821      	ldrb	r1, [r4, #0]
 80026fc:	782a      	ldrb	r2, [r5, #0]
 80026fe:	7823      	ldrb	r3, [r4, #0]
 8002700:	481d      	ldr	r0, [pc, #116]	; (8002778 <TIM4_IRQHandler+0x328>)
 8002702:	eb06 03c3 	add.w	r3, r6, r3, lsl #3
 8002706:	685b      	ldr	r3, [r3, #4]
 8002708:	f3c3 23c0 	ubfx	r3, r3, #11, #1
 800270c:	f002 fda9 	bl	8005262 <iprintf>
 8002710:	f44f 7100 	mov.w	r1, #512	; 0x200
 8002714:	4817      	ldr	r0, [pc, #92]	; (8002774 <TIM4_IRQHandler+0x324>)
 8002716:	f7fe fb04 	bl	8000d22 <GPIO_ResetBits>
 800271a:	7823      	ldrb	r3, [r4, #0]
 800271c:	eb06 03c3 	add.w	r3, r6, r3, lsl #3
 8002720:	685b      	ldr	r3, [r3, #4]
 8002722:	051b      	lsls	r3, r3, #20
 8002724:	d504      	bpl.n	8002730 <TIM4_IRQHandler+0x2e0>
 8002726:	f44f 6100 	mov.w	r1, #2048	; 0x800
 800272a:	4812      	ldr	r0, [pc, #72]	; (8002774 <TIM4_IRQHandler+0x324>)
 800272c:	f7fe faf9 	bl	8000d22 <GPIO_ResetBits>
 8002730:	7823      	ldrb	r3, [r4, #0]
 8002732:	eb06 03c3 	add.w	r3, r6, r3, lsl #3
 8002736:	685b      	ldr	r3, [r3, #4]
 8002738:	04df      	lsls	r7, r3, #19
 800273a:	d523      	bpl.n	8002784 <TIM4_IRQHandler+0x334>
 800273c:	f44f 6180 	mov.w	r1, #1024	; 0x400
 8002740:	480c      	ldr	r0, [pc, #48]	; (8002774 <TIM4_IRQHandler+0x324>)
 8002742:	f7fe faee 	bl	8000d22 <GPIO_ResetBits>
 8002746:	e01d      	b.n	8002784 <TIM4_IRQHandler+0x334>
 8002748:	00000000 	.word	0x00000000
 800274c:	408ff800 	.word	0x408ff800
 8002750:	40000800 	.word	0x40000800
 8002754:	200002b7 	.word	0x200002b7
 8002758:	20000898 	.word	0x20000898
 800275c:	200007ec 	.word	0x200007ec
 8002760:	20000250 	.word	0x20000250
 8002764:	46241000 	.word	0x46241000
 8002768:	200002b9 	.word	0x200002b9
 800276c:	20000298 	.word	0x20000298
 8002770:	200002b5 	.word	0x200002b5
 8002774:	40020400 	.word	0x40020400
 8002778:	08005308 	.word	0x08005308
 800277c:	40002000 	.word	0x40002000
 8002780:	200002bc 	.word	0x200002bc
 8002784:	2101      	movs	r1, #1
 8002786:	4851      	ldr	r0, [pc, #324]	; (80028cc <TIM4_IRQHandler+0x47c>)
 8002788:	f7fe fc71 	bl	800106e <TIM_Cmd>
 800278c:	2100      	movs	r1, #0
 800278e:	484f      	ldr	r0, [pc, #316]	; (80028cc <TIM4_IRQHandler+0x47c>)
 8002790:	f7fe fc60 	bl	8001054 <TIM_SetCounter>
 8002794:	782b      	ldrb	r3, [r5, #0]
 8002796:	2b06      	cmp	r3, #6
 8002798:	d132      	bne.n	8002800 <TIM4_IRQHandler+0x3b0>
 800279a:	7821      	ldrb	r1, [r4, #0]
 800279c:	2000      	movs	r0, #0
 800279e:	f7ff fe17 	bl	80023d0 <GetNextStep>
 80027a2:	7020      	strb	r0, [r4, #0]
 80027a4:	7821      	ldrb	r1, [r4, #0]
 80027a6:	782a      	ldrb	r2, [r5, #0]
 80027a8:	7823      	ldrb	r3, [r4, #0]
 80027aa:	4849      	ldr	r0, [pc, #292]	; (80028d0 <TIM4_IRQHandler+0x480>)
 80027ac:	eb06 03c3 	add.w	r3, r6, r3, lsl #3
 80027b0:	685b      	ldr	r3, [r3, #4]
 80027b2:	f3c3 23c0 	ubfx	r3, r3, #11, #1
 80027b6:	f002 fd54 	bl	8005262 <iprintf>
 80027ba:	4846      	ldr	r0, [pc, #280]	; (80028d4 <TIM4_IRQHandler+0x484>)
 80027bc:	f44f 7100 	mov.w	r1, #512	; 0x200
 80027c0:	f7fe faaf 	bl	8000d22 <GPIO_ResetBits>
 80027c4:	7823      	ldrb	r3, [r4, #0]
 80027c6:	eb06 03c3 	add.w	r3, r6, r3, lsl #3
 80027ca:	685b      	ldr	r3, [r3, #4]
 80027cc:	0518      	lsls	r0, r3, #20
 80027ce:	d504      	bpl.n	80027da <TIM4_IRQHandler+0x38a>
 80027d0:	f44f 6100 	mov.w	r1, #2048	; 0x800
 80027d4:	483f      	ldr	r0, [pc, #252]	; (80028d4 <TIM4_IRQHandler+0x484>)
 80027d6:	f7fe faa4 	bl	8000d22 <GPIO_ResetBits>
 80027da:	7823      	ldrb	r3, [r4, #0]
 80027dc:	eb06 03c3 	add.w	r3, r6, r3, lsl #3
 80027e0:	685b      	ldr	r3, [r3, #4]
 80027e2:	04d9      	lsls	r1, r3, #19
 80027e4:	d504      	bpl.n	80027f0 <TIM4_IRQHandler+0x3a0>
 80027e6:	f44f 6180 	mov.w	r1, #1024	; 0x400
 80027ea:	483a      	ldr	r0, [pc, #232]	; (80028d4 <TIM4_IRQHandler+0x484>)
 80027ec:	f7fe fa99 	bl	8000d22 <GPIO_ResetBits>
 80027f0:	2101      	movs	r1, #1
 80027f2:	4836      	ldr	r0, [pc, #216]	; (80028cc <TIM4_IRQHandler+0x47c>)
 80027f4:	f7fe fc3b 	bl	800106e <TIM_Cmd>
 80027f8:	2100      	movs	r1, #0
 80027fa:	4834      	ldr	r0, [pc, #208]	; (80028cc <TIM4_IRQHandler+0x47c>)
 80027fc:	f7fe fc2a 	bl	8001054 <TIM_SetCounter>
 8002800:	782b      	ldrb	r3, [r5, #0]
 8002802:	2b01      	cmp	r3, #1
 8002804:	d134      	bne.n	8002870 <TIM4_IRQHandler+0x420>
 8002806:	4a34      	ldr	r2, [pc, #208]	; (80028d8 <TIM4_IRQHandler+0x488>)
 8002808:	7821      	ldrb	r1, [r4, #0]
 800280a:	7813      	ldrb	r3, [r2, #0]
 800280c:	3b01      	subs	r3, #1
 800280e:	4299      	cmp	r1, r3
 8002810:	d02e      	beq.n	8002870 <TIM4_IRQHandler+0x420>
 8002812:	7813      	ldrb	r3, [r2, #0]
 8002814:	3b01      	subs	r3, #1
 8002816:	b2db      	uxtb	r3, r3
 8002818:	7023      	strb	r3, [r4, #0]
 800281a:	7821      	ldrb	r1, [r4, #0]
 800281c:	2000      	movs	r0, #0
 800281e:	f7ff fcc3 	bl	80021a8 <GetStepVoltage>
 8002822:	b281      	uxth	r1, r0
 8002824:	2000      	movs	r0, #0
 8002826:	f7fe f9b5 	bl	8000b94 <DAC_SetChannel1Data>
 800282a:	f44f 7100 	mov.w	r1, #512	; 0x200
 800282e:	4829      	ldr	r0, [pc, #164]	; (80028d4 <TIM4_IRQHandler+0x484>)
 8002830:	f7fe fa77 	bl	8000d22 <GPIO_ResetBits>
 8002834:	7823      	ldrb	r3, [r4, #0]
 8002836:	eb06 03c3 	add.w	r3, r6, r3, lsl #3
 800283a:	685b      	ldr	r3, [r3, #4]
 800283c:	051a      	lsls	r2, r3, #20
 800283e:	d504      	bpl.n	800284a <TIM4_IRQHandler+0x3fa>
 8002840:	f44f 6100 	mov.w	r1, #2048	; 0x800
 8002844:	4823      	ldr	r0, [pc, #140]	; (80028d4 <TIM4_IRQHandler+0x484>)
 8002846:	f7fe fa6c 	bl	8000d22 <GPIO_ResetBits>
 800284a:	7823      	ldrb	r3, [r4, #0]
 800284c:	eb06 06c3 	add.w	r6, r6, r3, lsl #3
 8002850:	6873      	ldr	r3, [r6, #4]
 8002852:	04db      	lsls	r3, r3, #19
 8002854:	d504      	bpl.n	8002860 <TIM4_IRQHandler+0x410>
 8002856:	f44f 6180 	mov.w	r1, #1024	; 0x400
 800285a:	481e      	ldr	r0, [pc, #120]	; (80028d4 <TIM4_IRQHandler+0x484>)
 800285c:	f7fe fa61 	bl	8000d22 <GPIO_ResetBits>
 8002860:	2101      	movs	r1, #1
 8002862:	481a      	ldr	r0, [pc, #104]	; (80028cc <TIM4_IRQHandler+0x47c>)
 8002864:	f7fe fc03 	bl	800106e <TIM_Cmd>
 8002868:	2100      	movs	r1, #0
 800286a:	4818      	ldr	r0, [pc, #96]	; (80028cc <TIM4_IRQHandler+0x47c>)
 800286c:	f7fe fbf2 	bl	8001054 <TIM_SetCounter>
 8002870:	782b      	ldrb	r3, [r5, #0]
 8002872:	2b03      	cmp	r3, #3
 8002874:	d110      	bne.n	8002898 <TIM4_IRQHandler+0x448>
 8002876:	4b18      	ldr	r3, [pc, #96]	; (80028d8 <TIM4_IRQHandler+0x488>)
 8002878:	781b      	ldrb	r3, [r3, #0]
 800287a:	3b01      	subs	r3, #1
 800287c:	b2db      	uxtb	r3, r3
 800287e:	7023      	strb	r3, [r4, #0]
 8002880:	7821      	ldrb	r1, [r4, #0]
 8002882:	2000      	movs	r0, #0
 8002884:	f7ff fc90 	bl	80021a8 <GetStepVoltage>
 8002888:	b281      	uxth	r1, r0
 800288a:	2000      	movs	r0, #0
 800288c:	f7fe f982 	bl	8000b94 <DAC_SetChannel1Data>
 8002890:	4b12      	ldr	r3, [pc, #72]	; (80028dc <TIM4_IRQHandler+0x48c>)
 8002892:	781b      	ldrb	r3, [r3, #0]
 8002894:	b2db      	uxtb	r3, r3
 8002896:	702b      	strb	r3, [r5, #0]
 8002898:	4b11      	ldr	r3, [pc, #68]	; (80028e0 <TIM4_IRQHandler+0x490>)
 800289a:	781b      	ldrb	r3, [r3, #0]
 800289c:	b943      	cbnz	r3, 80028b0 <TIM4_IRQHandler+0x460>
 800289e:	4b11      	ldr	r3, [pc, #68]	; (80028e4 <TIM4_IRQHandler+0x494>)
 80028a0:	781a      	ldrb	r2, [r3, #0]
 80028a2:	f042 0201 	orr.w	r2, r2, #1
 80028a6:	701a      	strb	r2, [r3, #0]
 80028a8:	781a      	ldrb	r2, [r3, #0]
 80028aa:	f042 0202 	orr.w	r2, r2, #2
 80028ae:	701a      	strb	r2, [r3, #0]
 80028b0:	e8bd 8ff8 	ldmia.w	sp!, {r3, r4, r5, r6, r7, r8, r9, sl, fp, pc}
 80028b4:	7821      	ldrb	r1, [r4, #0]
 80028b6:	2000      	movs	r0, #0
 80028b8:	f7ff fc76 	bl	80021a8 <GetStepVoltage>
 80028bc:	b281      	uxth	r1, r0
 80028be:	e64c      	b.n	800255a <TIM4_IRQHandler+0x10a>
 80028c0:	4638      	mov	r0, r7
 80028c2:	f7ff fc71 	bl	80021a8 <GetStepVoltage>
 80028c6:	b281      	uxth	r1, r0
 80028c8:	4638      	mov	r0, r7
 80028ca:	e647      	b.n	800255c <TIM4_IRQHandler+0x10c>
 80028cc:	40002000 	.word	0x40002000
 80028d0:	08005308 	.word	0x08005308
 80028d4:	40020400 	.word	0x40020400
 80028d8:	20000271 	.word	0x20000271
 80028dc:	200002b5 	.word	0x200002b5
 80028e0:	200002a8 	.word	0x200002a8
 80028e4:	200002e8 	.word	0x200002e8

080028e8 <TIM5_IRQHandler>:
 80028e8:	e92d 4ff8 	stmdb	sp!, {r3, r4, r5, r6, r7, r8, r9, sl, fp, lr}
 80028ec:	4dbe      	ldr	r5, [pc, #760]	; (8002be8 <TIM5_IRQHandler+0x300>)
 80028ee:	4cbf      	ldr	r4, [pc, #764]	; (8002bec <TIM5_IRQHandler+0x304>)
 80028f0:	f8df a328 	ldr.w	sl, [pc, #808]	; 8002c1c <TIM5_IRQHandler+0x334>
 80028f4:	f64f 73fe 	movw	r3, #65534	; 0xfffe
 80028f8:	822b      	strh	r3, [r5, #16]
 80028fa:	7821      	ldrb	r1, [r4, #0]
 80028fc:	2001      	movs	r0, #1
 80028fe:	f7ff fbad 	bl	800205c <GetStepWidth>
 8002902:	4bbb      	ldr	r3, [pc, #748]	; (8002bf0 <TIM5_IRQHandler+0x308>)
 8002904:	4683      	mov	fp, r0
 8002906:	6958      	ldr	r0, [r3, #20]
 8002908:	4bba      	ldr	r3, [pc, #744]	; (8002bf4 <TIM5_IRQHandler+0x30c>)
 800290a:	f8d3 8014 	ldr.w	r8, [r3, #20]
 800290e:	f7fd fd9d 	bl	800044c <__aeabi_ui2d>
 8002912:	2200      	movs	r2, #0
 8002914:	4bb8      	ldr	r3, [pc, #736]	; (8002bf8 <TIM5_IRQHandler+0x310>)
 8002916:	f7fd fe13 	bl	8000540 <__aeabi_dmul>
 800291a:	4606      	mov	r6, r0
 800291c:	4640      	mov	r0, r8
 800291e:	460f      	mov	r7, r1
 8002920:	f7fd fd94 	bl	800044c <__aeabi_ui2d>
 8002924:	4602      	mov	r2, r0
 8002926:	460b      	mov	r3, r1
 8002928:	4630      	mov	r0, r6
 800292a:	4639      	mov	r1, r7
 800292c:	f7fd ff32 	bl	8000794 <__aeabi_ddiv>
 8002930:	2200      	movs	r2, #0
 8002932:	4bb2      	ldr	r3, [pc, #712]	; (8002bfc <TIM5_IRQHandler+0x314>)
 8002934:	4eb2      	ldr	r6, [pc, #712]	; (8002c00 <TIM5_IRQHandler+0x318>)
 8002936:	f7fd fc4d 	bl	80001d4 <__adddf3>
 800293a:	a3a7      	add	r3, pc, #668	; (adr r3, 8002bd8 <TIM5_IRQHandler+0x2f0>)
 800293c:	e9d3 2300 	ldrd	r2, r3, [r3]
 8002940:	f7fd fdfe 	bl	8000540 <__aeabi_dmul>
 8002944:	f7fe f80e 	bl	8000964 <__aeabi_d2uiz>
 8002948:	b280      	uxth	r0, r0
 800294a:	8528      	strh	r0, [r5, #40]	; 0x28
 800294c:	7823      	ldrb	r3, [r4, #0]
 800294e:	4dad      	ldr	r5, [pc, #692]	; (8002c04 <TIM5_IRQHandler+0x31c>)
 8002950:	3320      	adds	r3, #32
 8002952:	2001      	movs	r0, #1
 8002954:	f856 7033 	ldr.w	r7, [r6, r3, lsl #3]
 8002958:	7821      	ldrb	r1, [r4, #0]
 800295a:	f3c7 6740 	ubfx	r7, r7, #25, #1
 800295e:	2f00      	cmp	r7, #0
 8002960:	f000 81bf 	beq.w	8002ce2 <TIM5_IRQHandler+0x3fa>
 8002964:	f7ff fc20 	bl	80021a8 <GetStepVoltage>
 8002968:	782b      	ldrb	r3, [r5, #0]
 800296a:	4607      	mov	r7, r0
 800296c:	b11b      	cbz	r3, 8002976 <TIM5_IRQHandler+0x8e>
 800296e:	782b      	ldrb	r3, [r5, #0]
 8002970:	2b06      	cmp	r3, #6
 8002972:	f040 81b0 	bne.w	8002cd6 <TIM5_IRQHandler+0x3ee>
 8002976:	4ba4      	ldr	r3, [pc, #656]	; (8002c08 <TIM5_IRQHandler+0x320>)
 8002978:	681a      	ldr	r2, [r3, #0]
 800297a:	42ba      	cmp	r2, r7
 800297c:	4698      	mov	r8, r3
 800297e:	d91c      	bls.n	80029ba <TIM5_IRQHandler+0xd2>
 8002980:	681b      	ldr	r3, [r3, #0]
 8002982:	f8d8 1000 	ldr.w	r1, [r8]
 8002986:	edda 7a00 	vldr	s15, [sl]
 800298a:	1bdb      	subs	r3, r3, r7
 800298c:	ee07 3a10 	vmov	s14, r3
 8002990:	eef8 6a47 	vcvt.f32.u32	s13, s14
 8002994:	ee07 ba10 	vmov	s14, fp
 8002998:	eeb8 6a47 	vcvt.f32.u32	s12, s14
 800299c:	eef8 7a67 	vcvt.f32.u32	s15, s15
 80029a0:	ee86 7a86 	vdiv.f32	s14, s13, s12
 80029a4:	2000      	movs	r0, #0
 80029a6:	ee67 7a27 	vmul.f32	s15, s14, s15
 80029aa:	eefc 7ae7 	vcvt.u32.f32	s15, s15
 80029ae:	ee17 3a90 	vmov	r3, s15
 80029b2:	1ac9      	subs	r1, r1, r3
 80029b4:	b289      	uxth	r1, r1
 80029b6:	f7fe f8fd 	bl	8000bb4 <DAC_SetChannel2Data>
 80029ba:	f8d8 3000 	ldr.w	r3, [r8]
 80029be:	42bb      	cmp	r3, r7
 80029c0:	d21f      	bcs.n	8002a02 <TIM5_IRQHandler+0x11a>
 80029c2:	f8d8 1000 	ldr.w	r1, [r8]
 80029c6:	f8da 3000 	ldr.w	r3, [sl]
 80029ca:	f8d8 2000 	ldr.w	r2, [r8]
 80029ce:	1a7f      	subs	r7, r7, r1
 80029d0:	ee07 ba10 	vmov	s14, fp
 80029d4:	ee07 7a90 	vmov	s15, r7
 80029d8:	eef8 6a47 	vcvt.f32.u32	s13, s14
 80029dc:	eef8 7a67 	vcvt.f32.u32	s15, s15
 80029e0:	ee87 7aa6 	vdiv.f32	s14, s15, s13
 80029e4:	ee07 3a90 	vmov	s15, r3
 80029e8:	eef8 7a67 	vcvt.f32.u32	s15, s15
 80029ec:	ee67 7a27 	vmul.f32	s15, s14, s15
 80029f0:	eefc 7ae7 	vcvt.u32.f32	s15, s15
 80029f4:	ee17 1a90 	vmov	r1, s15
 80029f8:	4411      	add	r1, r2
 80029fa:	b289      	uxth	r1, r1
 80029fc:	2000      	movs	r0, #0
 80029fe:	f7fe f8d9 	bl	8000bb4 <DAC_SetChannel2Data>
 8002a02:	7823      	ldrb	r3, [r4, #0]
 8002a04:	3320      	adds	r3, #32
 8002a06:	2002      	movs	r0, #2
 8002a08:	f856 1033 	ldr.w	r1, [r6, r3, lsl #3]
 8002a0c:	f3c1 3189 	ubfx	r1, r1, #14, #10
 8002a10:	f7fe fe08 	bl	8001624 <MAX5135_DAC_send>
 8002a14:	4658      	mov	r0, fp
 8002a16:	f7fd fd19 	bl	800044c <__aeabi_ui2d>
 8002a1a:	4602      	mov	r2, r0
 8002a1c:	460b      	mov	r3, r1
 8002a1e:	a170      	add	r1, pc, #448	; (adr r1, 8002be0 <TIM5_IRQHandler+0x2f8>)
 8002a20:	e9d1 0100 	ldrd	r0, r1, [r1]
 8002a24:	f7fd feb6 	bl	8000794 <__aeabi_ddiv>
 8002a28:	f8da 7000 	ldr.w	r7, [sl]
 8002a2c:	4680      	mov	r8, r0
 8002a2e:	4638      	mov	r0, r7
 8002a30:	4689      	mov	r9, r1
 8002a32:	f7fd fd0b 	bl	800044c <__aeabi_ui2d>
 8002a36:	460b      	mov	r3, r1
 8002a38:	4602      	mov	r2, r0
 8002a3a:	4649      	mov	r1, r9
 8002a3c:	4640      	mov	r0, r8
 8002a3e:	f7fd fd7f 	bl	8000540 <__aeabi_dmul>
 8002a42:	f7fd ff8f 	bl	8000964 <__aeabi_d2uiz>
 8002a46:	f5c0 717f 	rsb	r1, r0, #1020	; 0x3fc
 8002a4a:	3103      	adds	r1, #3
 8002a4c:	2003      	movs	r0, #3
 8002a4e:	f7fe fde9 	bl	8001624 <MAX5135_DAC_send>
 8002a52:	782b      	ldrb	r3, [r5, #0]
 8002a54:	b113      	cbz	r3, 8002a5c <TIM5_IRQHandler+0x174>
 8002a56:	782b      	ldrb	r3, [r5, #0]
 8002a58:	2b06      	cmp	r3, #6
 8002a5a:	d104      	bne.n	8002a66 <TIM5_IRQHandler+0x17e>
 8002a5c:	f8da 3000 	ldr.w	r3, [sl]
 8002a60:	3301      	adds	r3, #1
 8002a62:	f8ca 3000 	str.w	r3, [sl]
 8002a66:	f8da 3000 	ldr.w	r3, [sl]
 8002a6a:	455b      	cmp	r3, fp
 8002a6c:	f0c0 80d8 	bcc.w	8002c20 <TIM5_IRQHandler+0x338>
 8002a70:	7821      	ldrb	r1, [r4, #0]
 8002a72:	2001      	movs	r0, #1
 8002a74:	f7ff fb98 	bl	80021a8 <GetStepVoltage>
 8002a78:	4b63      	ldr	r3, [pc, #396]	; (8002c08 <TIM5_IRQHandler+0x320>)
 8002a7a:	6018      	str	r0, [r3, #0]
 8002a7c:	782b      	ldrb	r3, [r5, #0]
 8002a7e:	2b06      	cmp	r3, #6
 8002a80:	bf04      	itt	eq
 8002a82:	2302      	moveq	r3, #2
 8002a84:	702b      	strbeq	r3, [r5, #0]
 8002a86:	7823      	ldrb	r3, [r4, #0]
 8002a88:	3320      	adds	r3, #32
 8002a8a:	eb06 03c3 	add.w	r3, r6, r3, lsl #3
 8002a8e:	685b      	ldr	r3, [r3, #4]
 8002a90:	079b      	lsls	r3, r3, #30
 8002a92:	d505      	bpl.n	8002aa0 <TIM5_IRQHandler+0x1b8>
 8002a94:	782b      	ldrb	r3, [r5, #0]
 8002a96:	4a5d      	ldr	r2, [pc, #372]	; (8002c0c <TIM5_IRQHandler+0x324>)
 8002a98:	b2db      	uxtb	r3, r3
 8002a9a:	7013      	strb	r3, [r2, #0]
 8002a9c:	2302      	movs	r3, #2
 8002a9e:	702b      	strb	r3, [r5, #0]
 8002aa0:	7823      	ldrb	r3, [r4, #0]
 8002aa2:	3320      	adds	r3, #32
 8002aa4:	eb06 03c3 	add.w	r3, r6, r3, lsl #3
 8002aa8:	685b      	ldr	r3, [r3, #4]
 8002aaa:	071f      	lsls	r7, r3, #28
 8002aac:	d50d      	bpl.n	8002aca <TIM5_IRQHandler+0x1e2>
 8002aae:	2140      	movs	r1, #64	; 0x40
 8002ab0:	4857      	ldr	r0, [pc, #348]	; (8002c10 <TIM5_IRQHandler+0x328>)
 8002ab2:	f7fe f92e 	bl	8000d12 <GPIO_ReadInputDataBit>
 8002ab6:	b940      	cbnz	r0, 8002aca <TIM5_IRQHandler+0x1e2>
 8002ab8:	782b      	ldrb	r3, [r5, #0]
 8002aba:	2b04      	cmp	r3, #4
 8002abc:	d005      	beq.n	8002aca <TIM5_IRQHandler+0x1e2>
 8002abe:	782b      	ldrb	r3, [r5, #0]
 8002ac0:	4a52      	ldr	r2, [pc, #328]	; (8002c0c <TIM5_IRQHandler+0x324>)
 8002ac2:	b2db      	uxtb	r3, r3
 8002ac4:	7013      	strb	r3, [r2, #0]
 8002ac6:	2304      	movs	r3, #4
 8002ac8:	702b      	strb	r3, [r5, #0]
 8002aca:	7823      	ldrb	r3, [r4, #0]
 8002acc:	3320      	adds	r3, #32
 8002ace:	eb06 03c3 	add.w	r3, r6, r3, lsl #3
 8002ad2:	685b      	ldr	r3, [r3, #4]
 8002ad4:	0758      	lsls	r0, r3, #29
 8002ad6:	d510      	bpl.n	8002afa <TIM5_IRQHandler+0x212>
 8002ad8:	2140      	movs	r1, #64	; 0x40
 8002ada:	484d      	ldr	r0, [pc, #308]	; (8002c10 <TIM5_IRQHandler+0x328>)
 8002adc:	f7fe f919 	bl	8000d12 <GPIO_ReadInputDataBit>
 8002ae0:	2801      	cmp	r0, #1
 8002ae2:	d10a      	bne.n	8002afa <TIM5_IRQHandler+0x212>
 8002ae4:	782b      	ldrb	r3, [r5, #0]
 8002ae6:	2b05      	cmp	r3, #5
 8002ae8:	d007      	beq.n	8002afa <TIM5_IRQHandler+0x212>
 8002aea:	782b      	ldrb	r3, [r5, #0]
 8002aec:	4a47      	ldr	r2, [pc, #284]	; (8002c0c <TIM5_IRQHandler+0x324>)
 8002aee:	b2db      	uxtb	r3, r3
 8002af0:	7013      	strb	r3, [r2, #0]
 8002af2:	2305      	movs	r3, #5
 8002af4:	702b      	strb	r3, [r5, #0]
 8002af6:	f7ff f8bd 	bl	8001c74 <InitStart_2_SignalTimer>
 8002afa:	7823      	ldrb	r3, [r4, #0]
 8002afc:	3320      	adds	r3, #32
 8002afe:	eb06 03c3 	add.w	r3, r6, r3, lsl #3
 8002b02:	685b      	ldr	r3, [r3, #4]
 8002b04:	0799      	lsls	r1, r3, #30
 8002b06:	d40b      	bmi.n	8002b20 <TIM5_IRQHandler+0x238>
 8002b08:	7823      	ldrb	r3, [r4, #0]
 8002b0a:	3320      	adds	r3, #32
 8002b0c:	eb06 03c3 	add.w	r3, r6, r3, lsl #3
 8002b10:	685b      	ldr	r3, [r3, #4]
 8002b12:	071a      	lsls	r2, r3, #28
 8002b14:	bf5f      	itttt	pl
 8002b16:	7823      	ldrbpl	r3, [r4, #0]
 8002b18:	3320      	addpl	r3, #32
 8002b1a:	eb06 03c3 	addpl.w	r3, r6, r3, lsl #3
 8002b1e:	685b      	ldrpl	r3, [r3, #4]
 8002b20:	2300      	movs	r3, #0
 8002b22:	f8ca 3000 	str.w	r3, [sl]
 8002b26:	782b      	ldrb	r3, [r5, #0]
 8002b28:	bb3b      	cbnz	r3, 8002b7a <TIM5_IRQHandler+0x292>
 8002b2a:	7821      	ldrb	r1, [r4, #0]
 8002b2c:	2001      	movs	r0, #1
 8002b2e:	f7ff fc4f 	bl	80023d0 <GetNextStep>
 8002b32:	2104      	movs	r1, #4
 8002b34:	7020      	strb	r0, [r4, #0]
 8002b36:	4837      	ldr	r0, [pc, #220]	; (8002c14 <TIM5_IRQHandler+0x32c>)
 8002b38:	f7fe f8f3 	bl	8000d22 <GPIO_ResetBits>
 8002b3c:	7823      	ldrb	r3, [r4, #0]
 8002b3e:	3320      	adds	r3, #32
 8002b40:	eb06 03c3 	add.w	r3, r6, r3, lsl #3
 8002b44:	685b      	ldr	r3, [r3, #4]
 8002b46:	051b      	lsls	r3, r3, #20
 8002b48:	d503      	bpl.n	8002b52 <TIM5_IRQHandler+0x26a>
 8002b4a:	2108      	movs	r1, #8
 8002b4c:	4831      	ldr	r0, [pc, #196]	; (8002c14 <TIM5_IRQHandler+0x32c>)
 8002b4e:	f7fe f8e8 	bl	8000d22 <GPIO_ResetBits>
 8002b52:	7823      	ldrb	r3, [r4, #0]
 8002b54:	3320      	adds	r3, #32
 8002b56:	eb06 03c3 	add.w	r3, r6, r3, lsl #3
 8002b5a:	685b      	ldr	r3, [r3, #4]
 8002b5c:	04df      	lsls	r7, r3, #19
 8002b5e:	d504      	bpl.n	8002b6a <TIM5_IRQHandler+0x282>
 8002b60:	f44f 5180 	mov.w	r1, #4096	; 0x1000
 8002b64:	482b      	ldr	r0, [pc, #172]	; (8002c14 <TIM5_IRQHandler+0x32c>)
 8002b66:	f7fe f8dc 	bl	8000d22 <GPIO_ResetBits>
 8002b6a:	2101      	movs	r1, #1
 8002b6c:	482a      	ldr	r0, [pc, #168]	; (8002c18 <TIM5_IRQHandler+0x330>)
 8002b6e:	f7fe fa7e 	bl	800106e <TIM_Cmd>
 8002b72:	2100      	movs	r1, #0
 8002b74:	4828      	ldr	r0, [pc, #160]	; (8002c18 <TIM5_IRQHandler+0x330>)
 8002b76:	f7fe fa6d 	bl	8001054 <TIM_SetCounter>
 8002b7a:	782b      	ldrb	r3, [r5, #0]
 8002b7c:	2b02      	cmp	r3, #2
 8002b7e:	d14f      	bne.n	8002c20 <TIM5_IRQHandler+0x338>
 8002b80:	7821      	ldrb	r1, [r4, #0]
 8002b82:	2001      	movs	r0, #1
 8002b84:	f7ff fc24 	bl	80023d0 <GetNextStep>
 8002b88:	2104      	movs	r1, #4
 8002b8a:	7020      	strb	r0, [r4, #0]
 8002b8c:	4821      	ldr	r0, [pc, #132]	; (8002c14 <TIM5_IRQHandler+0x32c>)
 8002b8e:	f7fe f8c8 	bl	8000d22 <GPIO_ResetBits>
 8002b92:	7823      	ldrb	r3, [r4, #0]
 8002b94:	3320      	adds	r3, #32
 8002b96:	eb06 03c3 	add.w	r3, r6, r3, lsl #3
 8002b9a:	685b      	ldr	r3, [r3, #4]
 8002b9c:	0518      	lsls	r0, r3, #20
 8002b9e:	d503      	bpl.n	8002ba8 <TIM5_IRQHandler+0x2c0>
 8002ba0:	2108      	movs	r1, #8
 8002ba2:	481c      	ldr	r0, [pc, #112]	; (8002c14 <TIM5_IRQHandler+0x32c>)
 8002ba4:	f7fe f8bd 	bl	8000d22 <GPIO_ResetBits>
 8002ba8:	7823      	ldrb	r3, [r4, #0]
 8002baa:	3320      	adds	r3, #32
 8002bac:	eb06 03c3 	add.w	r3, r6, r3, lsl #3
 8002bb0:	685b      	ldr	r3, [r3, #4]
 8002bb2:	04d9      	lsls	r1, r3, #19
 8002bb4:	d504      	bpl.n	8002bc0 <TIM5_IRQHandler+0x2d8>
 8002bb6:	f44f 5180 	mov.w	r1, #4096	; 0x1000
 8002bba:	4816      	ldr	r0, [pc, #88]	; (8002c14 <TIM5_IRQHandler+0x32c>)
 8002bbc:	f7fe f8b1 	bl	8000d22 <GPIO_ResetBits>
 8002bc0:	2101      	movs	r1, #1
 8002bc2:	4815      	ldr	r0, [pc, #84]	; (8002c18 <TIM5_IRQHandler+0x330>)
 8002bc4:	f7fe fa53 	bl	800106e <TIM_Cmd>
 8002bc8:	2100      	movs	r1, #0
 8002bca:	4813      	ldr	r0, [pc, #76]	; (8002c18 <TIM5_IRQHandler+0x330>)
 8002bcc:	f7fe fa42 	bl	8001054 <TIM_SetCounter>
 8002bd0:	e026      	b.n	8002c20 <TIM5_IRQHandler+0x338>
 8002bd2:	bf00      	nop
 8002bd4:	f3af 8000 	nop.w
 8002bd8:	00000000 	.word	0x00000000
 8002bdc:	40c48200 	.word	0x40c48200
 8002be0:	00000000 	.word	0x00000000
 8002be4:	408ff800 	.word	0x408ff800
 8002be8:	40000c00 	.word	0x40000c00
 8002bec:	200002b8 	.word	0x200002b8
 8002bf0:	200007ec 	.word	0x200007ec
 8002bf4:	20000250 	.word	0x20000250
 8002bf8:	400c0000 	.word	0x400c0000
 8002bfc:	3fe00000 	.word	0x3fe00000
 8002c00:	20000898 	.word	0x20000898
 8002c04:	200002ba 	.word	0x200002ba
 8002c08:	2000029c 	.word	0x2000029c
 8002c0c:	200002b6 	.word	0x200002b6
 8002c10:	40020400 	.word	0x40020400
 8002c14:	40020000 	.word	0x40020000
 8002c18:	40010400 	.word	0x40010400
 8002c1c:	200002c0 	.word	0x200002c0
 8002c20:	7828      	ldrb	r0, [r5, #0]
 8002c22:	b2c0      	uxtb	r0, r0
 8002c24:	2801      	cmp	r0, #1
 8002c26:	d133      	bne.n	8002c90 <TIM5_IRQHandler+0x3a8>
 8002c28:	4a30      	ldr	r2, [pc, #192]	; (8002cec <TIM5_IRQHandler+0x404>)
 8002c2a:	7821      	ldrb	r1, [r4, #0]
 8002c2c:	7853      	ldrb	r3, [r2, #1]
 8002c2e:	3b01      	subs	r3, #1
 8002c30:	4299      	cmp	r1, r3
 8002c32:	d02d      	beq.n	8002c90 <TIM5_IRQHandler+0x3a8>
 8002c34:	7853      	ldrb	r3, [r2, #1]
 8002c36:	3b01      	subs	r3, #1
 8002c38:	b2db      	uxtb	r3, r3
 8002c3a:	7023      	strb	r3, [r4, #0]
 8002c3c:	7821      	ldrb	r1, [r4, #0]
 8002c3e:	f7ff fab3 	bl	80021a8 <GetStepVoltage>
 8002c42:	b281      	uxth	r1, r0
 8002c44:	2000      	movs	r0, #0
 8002c46:	f7fd ffb5 	bl	8000bb4 <DAC_SetChannel2Data>
 8002c4a:	2104      	movs	r1, #4
 8002c4c:	4828      	ldr	r0, [pc, #160]	; (8002cf0 <TIM5_IRQHandler+0x408>)
 8002c4e:	f7fe f868 	bl	8000d22 <GPIO_ResetBits>
 8002c52:	7823      	ldrb	r3, [r4, #0]
 8002c54:	3320      	adds	r3, #32
 8002c56:	eb06 03c3 	add.w	r3, r6, r3, lsl #3
 8002c5a:	685b      	ldr	r3, [r3, #4]
 8002c5c:	051a      	lsls	r2, r3, #20
 8002c5e:	d503      	bpl.n	8002c68 <TIM5_IRQHandler+0x380>
 8002c60:	2108      	movs	r1, #8
 8002c62:	4823      	ldr	r0, [pc, #140]	; (8002cf0 <TIM5_IRQHandler+0x408>)
 8002c64:	f7fe f85d 	bl	8000d22 <GPIO_ResetBits>
 8002c68:	7823      	ldrb	r3, [r4, #0]
 8002c6a:	3320      	adds	r3, #32
 8002c6c:	eb06 06c3 	add.w	r6, r6, r3, lsl #3
 8002c70:	6873      	ldr	r3, [r6, #4]
 8002c72:	04db      	lsls	r3, r3, #19
 8002c74:	d504      	bpl.n	8002c80 <TIM5_IRQHandler+0x398>
 8002c76:	f44f 5180 	mov.w	r1, #4096	; 0x1000
 8002c7a:	481d      	ldr	r0, [pc, #116]	; (8002cf0 <TIM5_IRQHandler+0x408>)
 8002c7c:	f7fe f851 	bl	8000d22 <GPIO_ResetBits>
 8002c80:	2101      	movs	r1, #1
 8002c82:	481c      	ldr	r0, [pc, #112]	; (8002cf4 <TIM5_IRQHandler+0x40c>)
 8002c84:	f7fe f9f3 	bl	800106e <TIM_Cmd>
 8002c88:	2100      	movs	r1, #0
 8002c8a:	481a      	ldr	r0, [pc, #104]	; (8002cf4 <TIM5_IRQHandler+0x40c>)
 8002c8c:	f7fe f9e2 	bl	8001054 <TIM_SetCounter>
 8002c90:	782b      	ldrb	r3, [r5, #0]
 8002c92:	2b03      	cmp	r3, #3
 8002c94:	d110      	bne.n	8002cb8 <TIM5_IRQHandler+0x3d0>
 8002c96:	4b15      	ldr	r3, [pc, #84]	; (8002cec <TIM5_IRQHandler+0x404>)
 8002c98:	785b      	ldrb	r3, [r3, #1]
 8002c9a:	3b01      	subs	r3, #1
 8002c9c:	b2db      	uxtb	r3, r3
 8002c9e:	7023      	strb	r3, [r4, #0]
 8002ca0:	7821      	ldrb	r1, [r4, #0]
 8002ca2:	2001      	movs	r0, #1
 8002ca4:	f7ff fa80 	bl	80021a8 <GetStepVoltage>
 8002ca8:	b281      	uxth	r1, r0
 8002caa:	2000      	movs	r0, #0
 8002cac:	f7fd ff82 	bl	8000bb4 <DAC_SetChannel2Data>
 8002cb0:	4b11      	ldr	r3, [pc, #68]	; (8002cf8 <TIM5_IRQHandler+0x410>)
 8002cb2:	781b      	ldrb	r3, [r3, #0]
 8002cb4:	b2db      	uxtb	r3, r3
 8002cb6:	702b      	strb	r3, [r5, #0]
 8002cb8:	4b10      	ldr	r3, [pc, #64]	; (8002cfc <TIM5_IRQHandler+0x414>)
 8002cba:	781b      	ldrb	r3, [r3, #0]
 8002cbc:	2b01      	cmp	r3, #1
 8002cbe:	d108      	bne.n	8002cd2 <TIM5_IRQHandler+0x3ea>
 8002cc0:	4b0f      	ldr	r3, [pc, #60]	; (8002d00 <TIM5_IRQHandler+0x418>)
 8002cc2:	781a      	ldrb	r2, [r3, #0]
 8002cc4:	f042 0201 	orr.w	r2, r2, #1
 8002cc8:	701a      	strb	r2, [r3, #0]
 8002cca:	781a      	ldrb	r2, [r3, #0]
 8002ccc:	f042 0202 	orr.w	r2, r2, #2
 8002cd0:	701a      	strb	r2, [r3, #0]
 8002cd2:	e8bd 8ff8 	ldmia.w	sp!, {r3, r4, r5, r6, r7, r8, r9, sl, fp, pc}
 8002cd6:	7821      	ldrb	r1, [r4, #0]
 8002cd8:	2001      	movs	r0, #1
 8002cda:	f7ff fa65 	bl	80021a8 <GetStepVoltage>
 8002cde:	b281      	uxth	r1, r0
 8002ce0:	e68c      	b.n	80029fc <TIM5_IRQHandler+0x114>
 8002ce2:	f7ff fa61 	bl	80021a8 <GetStepVoltage>
 8002ce6:	b281      	uxth	r1, r0
 8002ce8:	4638      	mov	r0, r7
 8002cea:	e688      	b.n	80029fe <TIM5_IRQHandler+0x116>
 8002cec:	20000271 	.word	0x20000271
 8002cf0:	40020000 	.word	0x40020000
 8002cf4:	40010400 	.word	0x40010400
 8002cf8:	200002b6 	.word	0x200002b6
 8002cfc:	200002a8 	.word	0x200002a8
 8002d00:	200002e8 	.word	0x200002e8

08002d04 <mTimersInit>:
 8002d04:	e92d 41ff 	stmdb	sp!, {r0, r1, r2, r3, r4, r5, r6, r7, r8, lr}
 8002d08:	4f50      	ldr	r7, [pc, #320]	; (8002e4c <mTimersInit+0x148>)
 8002d0a:	4e51      	ldr	r6, [pc, #324]	; (8002e50 <mTimersInit+0x14c>)
 8002d0c:	2101      	movs	r1, #1
 8002d0e:	2004      	movs	r0, #4
 8002d10:	f7fe f86c 	bl	8000dec <RCC_APB1PeriphClockCmd>
 8002d14:	a801      	add	r0, sp, #4
 8002d16:	2401      	movs	r4, #1
 8002d18:	2500      	movs	r5, #0
 8002d1a:	f7fe f993 	bl	8001044 <TIM_TimeBaseStructInit>
 8002d1e:	f642 1304 	movw	r3, #10500	; 0x2904
 8002d22:	a901      	add	r1, sp, #4
 8002d24:	4638      	mov	r0, r7
 8002d26:	e9cd 3401 	strd	r3, r4, [sp, #4]
 8002d2a:	f8ad 500c 	strh.w	r5, [sp, #12]
 8002d2e:	f7fe f94b 	bl	8000fc8 <TIM_TimeBaseInit>
 8002d32:	4621      	mov	r1, r4
 8002d34:	4638      	mov	r0, r7
 8002d36:	f7fe f98f 	bl	8001058 <TIM_ARRPreloadConfig>
 8002d3a:	4621      	mov	r1, r4
 8002d3c:	4638      	mov	r0, r7
 8002d3e:	f7fe f996 	bl	800106e <TIM_Cmd>
 8002d42:	4621      	mov	r1, r4
 8002d44:	2008      	movs	r0, #8
 8002d46:	f7fe f851 	bl	8000dec <RCC_APB1PeriphClockCmd>
 8002d4a:	a901      	add	r1, sp, #4
 8002d4c:	4630      	mov	r0, r6
 8002d4e:	f7fe f93b 	bl	8000fc8 <TIM_TimeBaseInit>
 8002d52:	4621      	mov	r1, r4
 8002d54:	4630      	mov	r0, r6
 8002d56:	f7fe f97f 	bl	8001058 <TIM_ARRPreloadConfig>
 8002d5a:	4621      	mov	r1, r4
 8002d5c:	4630      	mov	r0, r6
 8002d5e:	f7fe f986 	bl	800106e <TIM_Cmd>
 8002d62:	4622      	mov	r2, r4
 8002d64:	4621      	mov	r1, r4
 8002d66:	4638      	mov	r0, r7
 8002d68:	f7fe f99c 	bl	80010a4 <TIM_ITConfig>
 8002d6c:	4622      	mov	r2, r4
 8002d6e:	4621      	mov	r1, r4
 8002d70:	4630      	mov	r0, r6
 8002d72:	f7fe f997 	bl	80010a4 <TIM_ITConfig>
 8002d76:	231e      	movs	r3, #30
 8002d78:	4668      	mov	r0, sp
 8002d7a:	f8ad 3000 	strh.w	r3, [sp]
 8002d7e:	f88d 5002 	strb.w	r5, [sp, #2]
 8002d82:	f88d 4003 	strb.w	r4, [sp, #3]
 8002d86:	f7fd fe0d 	bl	80009a4 <NVIC_Init>
 8002d8a:	2332      	movs	r3, #50	; 0x32
 8002d8c:	4668      	mov	r0, sp
 8002d8e:	4e31      	ldr	r6, [pc, #196]	; (8002e54 <mTimersInit+0x150>)
 8002d90:	f8ad 3000 	strh.w	r3, [sp]
 8002d94:	f88d 5002 	strb.w	r5, [sp, #2]
 8002d98:	f88d 4003 	strb.w	r4, [sp, #3]
 8002d9c:	f7fd fe02 	bl	80009a4 <NVIC_Init>
 8002da0:	4b2d      	ldr	r3, [pc, #180]	; (8002e58 <mTimersInit+0x154>)
 8002da2:	4a2e      	ldr	r2, [pc, #184]	; (8002e5c <mTimersInit+0x158>)
 8002da4:	f886 531e 	strb.w	r5, [r6, #798]	; 0x31e
 8002da8:	f886 5332 	strb.w	r5, [r6, #818]	; 0x332
 8002dac:	60da      	str	r2, [r3, #12]
 8002dae:	4a2c      	ldr	r2, [pc, #176]	; (8002e60 <mTimersInit+0x15c>)
 8002db0:	2308      	movs	r3, #8
 8002db2:	6013      	str	r3, [r2, #0]
 8002db4:	4a2b      	ldr	r2, [pc, #172]	; (8002e64 <mTimersInit+0x160>)
 8002db6:	6013      	str	r3, [r2, #0]
 8002db8:	4a2b      	ldr	r2, [pc, #172]	; (8002e68 <mTimersInit+0x164>)
 8002dba:	6013      	str	r3, [r2, #0]
 8002dbc:	4a2b      	ldr	r2, [pc, #172]	; (8002e6c <mTimersInit+0x168>)
 8002dbe:	4621      	mov	r1, r4
 8002dc0:	f44f 7080 	mov.w	r0, #256	; 0x100
 8002dc4:	6013      	str	r3, [r2, #0]
 8002dc6:	f507 57c0 	add.w	r7, r7, #6144	; 0x1800
 8002dca:	f7fe f80f 	bl	8000dec <RCC_APB1PeriphClockCmd>
 8002dce:	a801      	add	r0, sp, #4
 8002dd0:	f7fe f938 	bl	8001044 <TIM_TimeBaseStructInit>
 8002dd4:	f04f 08d2 	mov.w	r8, #210	; 0xd2
 8002dd8:	f44f 73a0 	mov.w	r3, #320	; 0x140
 8002ddc:	a901      	add	r1, sp, #4
 8002dde:	4638      	mov	r0, r7
 8002de0:	e9cd 8301 	strd	r8, r3, [sp, #4]
 8002de4:	f8ad 500c 	strh.w	r5, [sp, #12]
 8002de8:	f7fe f8ee 	bl	8000fc8 <TIM_TimeBaseInit>
 8002dec:	4629      	mov	r1, r5
 8002dee:	4638      	mov	r0, r7
 8002df0:	f7fe f93d 	bl	800106e <TIM_Cmd>
 8002df4:	4622      	mov	r2, r4
 8002df6:	4621      	mov	r1, r4
 8002df8:	4638      	mov	r0, r7
 8002dfa:	f7fe f953 	bl	80010a4 <TIM_ITConfig>
 8002dfe:	f44f 5300 	mov.w	r3, #8192	; 0x2000
 8002e02:	6073      	str	r3, [r6, #4]
 8002e04:	4621      	mov	r1, r4
 8002e06:	2002      	movs	r0, #2
 8002e08:	f7fd fffc 	bl	8000e04 <RCC_APB2PeriphClockCmd>
 8002e0c:	f507 4764 	add.w	r7, r7, #58368	; 0xe400
 8002e10:	a801      	add	r0, sp, #4
 8002e12:	f7fe f917 	bl	8001044 <TIM_TimeBaseStructInit>
 8002e16:	f44f 7320 	mov.w	r3, #640	; 0x280
 8002e1a:	a901      	add	r1, sp, #4
 8002e1c:	4638      	mov	r0, r7
 8002e1e:	9302      	str	r3, [sp, #8]
 8002e20:	f8cd 8004 	str.w	r8, [sp, #4]
 8002e24:	f8ad 500c 	strh.w	r5, [sp, #12]
 8002e28:	f7fe f8ce 	bl	8000fc8 <TIM_TimeBaseInit>
 8002e2c:	4629      	mov	r1, r5
 8002e2e:	4638      	mov	r0, r7
 8002e30:	f7fe f91d 	bl	800106e <TIM_Cmd>
 8002e34:	4622      	mov	r2, r4
 8002e36:	4621      	mov	r1, r4
 8002e38:	4638      	mov	r0, r7
 8002e3a:	f7fe f933 	bl	80010a4 <TIM_ITConfig>
 8002e3e:	f44f 5380 	mov.w	r3, #4096	; 0x1000
 8002e42:	6073      	str	r3, [r6, #4]
 8002e44:	b004      	add	sp, #16
 8002e46:	e8bd 81f0 	ldmia.w	sp!, {r4, r5, r6, r7, r8, pc}
 8002e4a:	bf00      	nop
 8002e4c:	40000800 	.word	0x40000800
 8002e50:	40000c00 	.word	0x40000c00
 8002e54:	e000e100 	.word	0xe000e100
 8002e58:	e000ed00 	.word	0xe000ed00
 8002e5c:	05fa0700 	.word	0x05fa0700
 8002e60:	200002bc 	.word	0x200002bc
 8002e64:	200002c0 	.word	0x200002c0
 8002e68:	200002ac 	.word	0x200002ac
 8002e6c:	200002b0 	.word	0x200002b0

08002e70 <TIM8_UP_TIM13_IRQHandler>:
 8002e70:	b508      	push	{r3, lr}
 8002e72:	2101      	movs	r1, #1
 8002e74:	480d      	ldr	r0, [pc, #52]	; (8002eac <TIM8_UP_TIM13_IRQHandler+0x3c>)
 8002e76:	f7fe f91d 	bl	80010b4 <TIM_GetITStatus>
 8002e7a:	b1b0      	cbz	r0, 8002eaa <TIM8_UP_TIM13_IRQHandler+0x3a>
 8002e7c:	2100      	movs	r1, #0
 8002e7e:	480b      	ldr	r0, [pc, #44]	; (8002eac <TIM8_UP_TIM13_IRQHandler+0x3c>)
 8002e80:	f7fe f8f5 	bl	800106e <TIM_Cmd>
 8002e84:	2104      	movs	r1, #4
 8002e86:	480a      	ldr	r0, [pc, #40]	; (8002eb0 <TIM8_UP_TIM13_IRQHandler+0x40>)
 8002e88:	f7fd ff49 	bl	8000d1e <GPIO_SetBits>
 8002e8c:	2108      	movs	r1, #8
 8002e8e:	4808      	ldr	r0, [pc, #32]	; (8002eb0 <TIM8_UP_TIM13_IRQHandler+0x40>)
 8002e90:	f7fd ff45 	bl	8000d1e <GPIO_SetBits>
 8002e94:	f44f 5180 	mov.w	r1, #4096	; 0x1000
 8002e98:	4805      	ldr	r0, [pc, #20]	; (8002eb0 <TIM8_UP_TIM13_IRQHandler+0x40>)
 8002e9a:	f7fd ff40 	bl	8000d1e <GPIO_SetBits>
 8002e9e:	2101      	movs	r1, #1
 8002ea0:	4802      	ldr	r0, [pc, #8]	; (8002eac <TIM8_UP_TIM13_IRQHandler+0x3c>)
 8002ea2:	e8bd 4008 	ldmia.w	sp!, {r3, lr}
 8002ea6:	f7fe b910 	b.w	80010ca <TIM_ClearITPendingBit>
 8002eaa:	bd08      	pop	{r3, pc}
 8002eac:	40010400 	.word	0x40010400
 8002eb0:	40020000 	.word	0x40020000

08002eb4 <TIM8_TRG_COM_TIM14_IRQHandler>:
 8002eb4:	b508      	push	{r3, lr}
 8002eb6:	2101      	movs	r1, #1
 8002eb8:	480e      	ldr	r0, [pc, #56]	; (8002ef4 <TIM8_TRG_COM_TIM14_IRQHandler+0x40>)
 8002eba:	f7fe f8fb 	bl	80010b4 <TIM_GetITStatus>
 8002ebe:	b1c0      	cbz	r0, 8002ef2 <TIM8_TRG_COM_TIM14_IRQHandler+0x3e>
 8002ec0:	2100      	movs	r1, #0
 8002ec2:	480c      	ldr	r0, [pc, #48]	; (8002ef4 <TIM8_TRG_COM_TIM14_IRQHandler+0x40>)
 8002ec4:	f7fe f8d3 	bl	800106e <TIM_Cmd>
 8002ec8:	f44f 7100 	mov.w	r1, #512	; 0x200
 8002ecc:	480a      	ldr	r0, [pc, #40]	; (8002ef8 <TIM8_TRG_COM_TIM14_IRQHandler+0x44>)
 8002ece:	f7fd ff26 	bl	8000d1e <GPIO_SetBits>
 8002ed2:	f44f 6100 	mov.w	r1, #2048	; 0x800
 8002ed6:	4808      	ldr	r0, [pc, #32]	; (8002ef8 <TIM8_TRG_COM_TIM14_IRQHandler+0x44>)
 8002ed8:	f7fd ff21 	bl	8000d1e <GPIO_SetBits>
 8002edc:	f44f 6180 	mov.w	r1, #1024	; 0x400
 8002ee0:	4805      	ldr	r0, [pc, #20]	; (8002ef8 <TIM8_TRG_COM_TIM14_IRQHandler+0x44>)
 8002ee2:	f7fd ff1c 	bl	8000d1e <GPIO_SetBits>
 8002ee6:	2101      	movs	r1, #1
 8002ee8:	4802      	ldr	r0, [pc, #8]	; (8002ef4 <TIM8_TRG_COM_TIM14_IRQHandler+0x40>)
 8002eea:	e8bd 4008 	ldmia.w	sp!, {r3, lr}
 8002eee:	f7fe b8ec 	b.w	80010ca <TIM_ClearITPendingBit>
 8002ef2:	bd08      	pop	{r3, pc}
 8002ef4:	40002000 	.word	0x40002000
 8002ef8:	40020400 	.word	0x40020400

08002efc <TIM3_IRQHandler>:
 8002efc:	b538      	push	{r3, r4, r5, lr}
 8002efe:	4b25      	ldr	r3, [pc, #148]	; (8002f94 <TIM3_IRQHandler+0x98>)
 8002f00:	4c25      	ldr	r4, [pc, #148]	; (8002f98 <TIM3_IRQHandler+0x9c>)
 8002f02:	f64f 72fe 	movw	r2, #65534	; 0xfffe
 8002f06:	821a      	strh	r2, [r3, #16]
 8002f08:	7823      	ldrb	r3, [r4, #0]
 8002f0a:	2b04      	cmp	r3, #4
 8002f0c:	d018      	beq.n	8002f40 <TIM3_IRQHandler+0x44>
 8002f0e:	7823      	ldrb	r3, [r4, #0]
 8002f10:	2b04      	cmp	r3, #4
 8002f12:	d11c      	bne.n	8002f4e <TIM3_IRQHandler+0x52>
 8002f14:	f44f 7180 	mov.w	r1, #256	; 0x100
 8002f18:	4820      	ldr	r0, [pc, #128]	; (8002f9c <TIM3_IRQHandler+0xa0>)
 8002f1a:	f7fd fefa 	bl	8000d12 <GPIO_ReadInputDataBit>
 8002f1e:	2801      	cmp	r0, #1
 8002f20:	d115      	bne.n	8002f4e <TIM3_IRQHandler+0x52>
 8002f22:	2000      	movs	r0, #0
 8002f24:	4d1e      	ldr	r5, [pc, #120]	; (8002fa0 <TIM3_IRQHandler+0xa4>)
 8002f26:	7020      	strb	r0, [r4, #0]
 8002f28:	7829      	ldrb	r1, [r5, #0]
 8002f2a:	f7ff fa51 	bl	80023d0 <GetNextStep>
 8002f2e:	4a19      	ldr	r2, [pc, #100]	; (8002f94 <TIM3_IRQHandler+0x98>)
 8002f30:	7028      	strb	r0, [r5, #0]
 8002f32:	8813      	ldrh	r3, [r2, #0]
 8002f34:	f023 0301 	bic.w	r3, r3, #1
 8002f38:	041b      	lsls	r3, r3, #16
 8002f3a:	0c1b      	lsrs	r3, r3, #16
 8002f3c:	8013      	strh	r3, [r2, #0]
 8002f3e:	e006      	b.n	8002f4e <TIM3_IRQHandler+0x52>
 8002f40:	f44f 7180 	mov.w	r1, #256	; 0x100
 8002f44:	4815      	ldr	r0, [pc, #84]	; (8002f9c <TIM3_IRQHandler+0xa0>)
 8002f46:	f7fd fee4 	bl	8000d12 <GPIO_ReadInputDataBit>
 8002f4a:	2800      	cmp	r0, #0
 8002f4c:	d1df      	bne.n	8002f0e <TIM3_IRQHandler+0x12>
 8002f4e:	7823      	ldrb	r3, [r4, #0]
 8002f50:	2b05      	cmp	r3, #5
 8002f52:	d016      	beq.n	8002f82 <TIM3_IRQHandler+0x86>
 8002f54:	7823      	ldrb	r3, [r4, #0]
 8002f56:	2b05      	cmp	r3, #5
 8002f58:	d11a      	bne.n	8002f90 <TIM3_IRQHandler+0x94>
 8002f5a:	f44f 7180 	mov.w	r1, #256	; 0x100
 8002f5e:	480f      	ldr	r0, [pc, #60]	; (8002f9c <TIM3_IRQHandler+0xa0>)
 8002f60:	f7fd fed7 	bl	8000d12 <GPIO_ReadInputDataBit>
 8002f64:	b9a0      	cbnz	r0, 8002f90 <TIM3_IRQHandler+0x94>
 8002f66:	7020      	strb	r0, [r4, #0]
 8002f68:	4c0d      	ldr	r4, [pc, #52]	; (8002fa0 <TIM3_IRQHandler+0xa4>)
 8002f6a:	7821      	ldrb	r1, [r4, #0]
 8002f6c:	f7ff fa30 	bl	80023d0 <GetNextStep>
 8002f70:	4a08      	ldr	r2, [pc, #32]	; (8002f94 <TIM3_IRQHandler+0x98>)
 8002f72:	7020      	strb	r0, [r4, #0]
 8002f74:	8813      	ldrh	r3, [r2, #0]
 8002f76:	f023 0301 	bic.w	r3, r3, #1
 8002f7a:	041b      	lsls	r3, r3, #16
 8002f7c:	0c1b      	lsrs	r3, r3, #16
 8002f7e:	8013      	strh	r3, [r2, #0]
 8002f80:	e006      	b.n	8002f90 <TIM3_IRQHandler+0x94>
 8002f82:	f44f 7180 	mov.w	r1, #256	; 0x100
 8002f86:	4805      	ldr	r0, [pc, #20]	; (8002f9c <TIM3_IRQHandler+0xa0>)
 8002f88:	f7fd fec3 	bl	8000d12 <GPIO_ReadInputDataBit>
 8002f8c:	2801      	cmp	r0, #1
 8002f8e:	d1e1      	bne.n	8002f54 <TIM3_IRQHandler+0x58>
 8002f90:	bd38      	pop	{r3, r4, r5, pc}
 8002f92:	bf00      	nop
 8002f94:	40000400 	.word	0x40000400
 8002f98:	200002b9 	.word	0x200002b9
 8002f9c:	40020400 	.word	0x40020400
 8002fa0:	200002b7 	.word	0x200002b7

08002fa4 <TIM7_IRQHandler>:
 8002fa4:	b538      	push	{r3, r4, r5, lr}
 8002fa6:	4b23      	ldr	r3, [pc, #140]	; (8003034 <TIM7_IRQHandler+0x90>)
 8002fa8:	4c23      	ldr	r4, [pc, #140]	; (8003038 <TIM7_IRQHandler+0x94>)
 8002faa:	f64f 72fe 	movw	r2, #65534	; 0xfffe
 8002fae:	821a      	strh	r2, [r3, #16]
 8002fb0:	7823      	ldrb	r3, [r4, #0]
 8002fb2:	2b04      	cmp	r3, #4
 8002fb4:	d017      	beq.n	8002fe6 <TIM7_IRQHandler+0x42>
 8002fb6:	7823      	ldrb	r3, [r4, #0]
 8002fb8:	2b04      	cmp	r3, #4
 8002fba:	d11a      	bne.n	8002ff2 <TIM7_IRQHandler+0x4e>
 8002fbc:	2140      	movs	r1, #64	; 0x40
 8002fbe:	481f      	ldr	r0, [pc, #124]	; (800303c <TIM7_IRQHandler+0x98>)
 8002fc0:	f7fd fea7 	bl	8000d12 <GPIO_ReadInputDataBit>
 8002fc4:	2801      	cmp	r0, #1
 8002fc6:	d114      	bne.n	8002ff2 <TIM7_IRQHandler+0x4e>
 8002fc8:	2300      	movs	r3, #0
 8002fca:	4d1d      	ldr	r5, [pc, #116]	; (8003040 <TIM7_IRQHandler+0x9c>)
 8002fcc:	7023      	strb	r3, [r4, #0]
 8002fce:	7829      	ldrb	r1, [r5, #0]
 8002fd0:	f7ff f9fe 	bl	80023d0 <GetNextStep>
 8002fd4:	4a17      	ldr	r2, [pc, #92]	; (8003034 <TIM7_IRQHandler+0x90>)
 8002fd6:	7028      	strb	r0, [r5, #0]
 8002fd8:	8813      	ldrh	r3, [r2, #0]
 8002fda:	f023 0301 	bic.w	r3, r3, #1
 8002fde:	041b      	lsls	r3, r3, #16
 8002fe0:	0c1b      	lsrs	r3, r3, #16
 8002fe2:	8013      	strh	r3, [r2, #0]
 8002fe4:	e005      	b.n	8002ff2 <TIM7_IRQHandler+0x4e>
 8002fe6:	2140      	movs	r1, #64	; 0x40
 8002fe8:	4814      	ldr	r0, [pc, #80]	; (800303c <TIM7_IRQHandler+0x98>)
 8002fea:	f7fd fe92 	bl	8000d12 <GPIO_ReadInputDataBit>
 8002fee:	2800      	cmp	r0, #0
 8002ff0:	d1e1      	bne.n	8002fb6 <TIM7_IRQHandler+0x12>
 8002ff2:	7823      	ldrb	r3, [r4, #0]
 8002ff4:	2b05      	cmp	r3, #5
 8002ff6:	d016      	beq.n	8003026 <TIM7_IRQHandler+0x82>
 8002ff8:	7823      	ldrb	r3, [r4, #0]
 8002ffa:	2b05      	cmp	r3, #5
 8002ffc:	d119      	bne.n	8003032 <TIM7_IRQHandler+0x8e>
 8002ffe:	2140      	movs	r1, #64	; 0x40
 8003000:	480e      	ldr	r0, [pc, #56]	; (800303c <TIM7_IRQHandler+0x98>)
 8003002:	f7fd fe86 	bl	8000d12 <GPIO_ReadInputDataBit>
 8003006:	b9a0      	cbnz	r0, 8003032 <TIM7_IRQHandler+0x8e>
 8003008:	7020      	strb	r0, [r4, #0]
 800300a:	4c0d      	ldr	r4, [pc, #52]	; (8003040 <TIM7_IRQHandler+0x9c>)
 800300c:	2001      	movs	r0, #1
 800300e:	7821      	ldrb	r1, [r4, #0]
 8003010:	f7ff f9de 	bl	80023d0 <GetNextStep>
 8003014:	4a07      	ldr	r2, [pc, #28]	; (8003034 <TIM7_IRQHandler+0x90>)
 8003016:	7020      	strb	r0, [r4, #0]
 8003018:	8813      	ldrh	r3, [r2, #0]
 800301a:	f023 0301 	bic.w	r3, r3, #1
 800301e:	041b      	lsls	r3, r3, #16
 8003020:	0c1b      	lsrs	r3, r3, #16
 8003022:	8013      	strh	r3, [r2, #0]
 8003024:	e005      	b.n	8003032 <TIM7_IRQHandler+0x8e>
 8003026:	2140      	movs	r1, #64	; 0x40
 8003028:	4804      	ldr	r0, [pc, #16]	; (800303c <TIM7_IRQHandler+0x98>)
 800302a:	f7fd fe72 	bl	8000d12 <GPIO_ReadInputDataBit>
 800302e:	2801      	cmp	r0, #1
 8003030:	d1e2      	bne.n	8002ff8 <TIM7_IRQHandler+0x54>
 8003032:	bd38      	pop	{r3, r4, r5, pc}
 8003034:	40001400 	.word	0x40001400
 8003038:	200002ba 	.word	0x200002ba
 800303c:	40020400 	.word	0x40020400
 8003040:	200002b8 	.word	0x200002b8

08003044 <PulsesInit>:
 8003044:	b5f7      	push	{r0, r1, r2, r4, r5, r6, r7, lr}
 8003046:	4d22      	ldr	r5, [pc, #136]	; (80030d0 <PulsesInit+0x8c>)
 8003048:	2101      	movs	r1, #1
 800304a:	2002      	movs	r0, #2
 800304c:	f7fd fec2 	bl	8000dd4 <RCC_AHB1PeriphClockCmd>
 8003050:	2401      	movs	r4, #1
 8003052:	f44f 6360 	mov.w	r3, #3584	; 0xe00
 8003056:	2700      	movs	r7, #0
 8003058:	2603      	movs	r6, #3
 800305a:	4669      	mov	r1, sp
 800305c:	4628      	mov	r0, r5
 800305e:	9300      	str	r3, [sp, #0]
 8003060:	f88d 4004 	strb.w	r4, [sp, #4]
 8003064:	f8ad 7006 	strh.w	r7, [sp, #6]
 8003068:	f88d 6005 	strb.w	r6, [sp, #5]
 800306c:	f7fd fdfa 	bl	8000c64 <GPIO_Init>
 8003070:	4628      	mov	r0, r5
 8003072:	f44f 7100 	mov.w	r1, #512	; 0x200
 8003076:	f7fd fe52 	bl	8000d1e <GPIO_SetBits>
 800307a:	4628      	mov	r0, r5
 800307c:	f44f 6100 	mov.w	r1, #2048	; 0x800
 8003080:	f7fd fe4d 	bl	8000d1e <GPIO_SetBits>
 8003084:	4628      	mov	r0, r5
 8003086:	f44f 6180 	mov.w	r1, #1024	; 0x400
 800308a:	f7fd fe48 	bl	8000d1e <GPIO_SetBits>
 800308e:	4621      	mov	r1, r4
 8003090:	4620      	mov	r0, r4
 8003092:	f7fd fe9f 	bl	8000dd4 <RCC_AHB1PeriphClockCmd>
 8003096:	f88d 4004 	strb.w	r4, [sp, #4]
 800309a:	4c0e      	ldr	r4, [pc, #56]	; (80030d4 <PulsesInit+0x90>)
 800309c:	f8ad 7006 	strh.w	r7, [sp, #6]
 80030a0:	f241 030c 	movw	r3, #4108	; 0x100c
 80030a4:	4669      	mov	r1, sp
 80030a6:	4620      	mov	r0, r4
 80030a8:	9300      	str	r3, [sp, #0]
 80030aa:	f88d 6005 	strb.w	r6, [sp, #5]
 80030ae:	f7fd fdd9 	bl	8000c64 <GPIO_Init>
 80030b2:	4620      	mov	r0, r4
 80030b4:	2104      	movs	r1, #4
 80030b6:	f7fd fe32 	bl	8000d1e <GPIO_SetBits>
 80030ba:	4620      	mov	r0, r4
 80030bc:	2108      	movs	r1, #8
 80030be:	f7fd fe2e 	bl	8000d1e <GPIO_SetBits>
 80030c2:	f44f 5180 	mov.w	r1, #4096	; 0x1000
 80030c6:	4620      	mov	r0, r4
 80030c8:	f7fd fe29 	bl	8000d1e <GPIO_SetBits>
 80030cc:	b003      	add	sp, #12
 80030ce:	bdf0      	pop	{r4, r5, r6, r7, pc}
 80030d0:	40020400 	.word	0x40020400
 80030d4:	40020000 	.word	0x40020000

080030d8 <DisplayLedsIOInit>:
 80030d8:	b507      	push	{r0, r1, r2, lr}
 80030da:	2101      	movs	r1, #1
 80030dc:	4608      	mov	r0, r1
 80030de:	f7fd fe79 	bl	8000dd4 <RCC_AHB1PeriphClockCmd>
 80030e2:	23c0      	movs	r3, #192	; 0xc0
 80030e4:	9300      	str	r3, [sp, #0]
 80030e6:	2303      	movs	r3, #3
 80030e8:	f88d 3005 	strb.w	r3, [sp, #5]
 80030ec:	2301      	movs	r3, #1
 80030ee:	f88d 3004 	strb.w	r3, [sp, #4]
 80030f2:	4669      	mov	r1, sp
 80030f4:	2300      	movs	r3, #0
 80030f6:	4804      	ldr	r0, [pc, #16]	; (8003108 <DisplayLedsIOInit+0x30>)
 80030f8:	f88d 3006 	strb.w	r3, [sp, #6]
 80030fc:	f7fd fdb2 	bl	8000c64 <GPIO_Init>
 8003100:	b003      	add	sp, #12
 8003102:	f85d fb04 	ldr.w	pc, [sp], #4
 8003106:	bf00      	nop
 8003108:	40020000 	.word	0x40020000

0800310c <InternalDACInit>:
 800310c:	b510      	push	{r4, lr}
 800310e:	b086      	sub	sp, #24
 8003110:	a802      	add	r0, sp, #8
 8003112:	f7fd fd2b 	bl	8000b6c <DAC_StructInit>
 8003116:	2101      	movs	r1, #1
 8003118:	4608      	mov	r0, r1
 800311a:	f7fd fe5b 	bl	8000dd4 <RCC_AHB1PeriphClockCmd>
 800311e:	2330      	movs	r3, #48	; 0x30
 8003120:	9300      	str	r3, [sp, #0]
 8003122:	4669      	mov	r1, sp
 8003124:	2303      	movs	r3, #3
 8003126:	4815      	ldr	r0, [pc, #84]	; (800317c <InternalDACInit+0x70>)
 8003128:	f88d 3004 	strb.w	r3, [sp, #4]
 800312c:	f7fd fd9a 	bl	8000c64 <GPIO_Init>
 8003130:	2101      	movs	r1, #1
 8003132:	f04f 5000 	mov.w	r0, #536870912	; 0x20000000
 8003136:	2400      	movs	r4, #0
 8003138:	f7fd fe58 	bl	8000dec <RCC_APB1PeriphClockCmd>
 800313c:	2302      	movs	r3, #2
 800313e:	9305      	str	r3, [sp, #20]
 8003140:	9402      	str	r4, [sp, #8]
 8003142:	9403      	str	r4, [sp, #12]
 8003144:	f7fd fcee 	bl	8000b24 <DAC_DeInit>
 8003148:	a902      	add	r1, sp, #8
 800314a:	4620      	mov	r0, r4
 800314c:	f7fd fcf8 	bl	8000b40 <DAC_Init>
 8003150:	a902      	add	r1, sp, #8
 8003152:	2010      	movs	r0, #16
 8003154:	f7fd fcf4 	bl	8000b40 <DAC_Init>
 8003158:	4620      	mov	r0, r4
 800315a:	2101      	movs	r1, #1
 800315c:	f7fd fd0c 	bl	8000b78 <DAC_Cmd>
 8003160:	2101      	movs	r1, #1
 8003162:	2010      	movs	r0, #16
 8003164:	f7fd fd08 	bl	8000b78 <DAC_Cmd>
 8003168:	4621      	mov	r1, r4
 800316a:	4620      	mov	r0, r4
 800316c:	f7fd fd12 	bl	8000b94 <DAC_SetChannel1Data>
 8003170:	4621      	mov	r1, r4
 8003172:	4620      	mov	r0, r4
 8003174:	f7fd fd1e 	bl	8000bb4 <DAC_SetChannel2Data>
 8003178:	b006      	add	sp, #24
 800317a:	bd10      	pop	{r4, pc}
 800317c:	40020000 	.word	0x40020000

08003180 <keyb_proc>:
 8003180:	e92d 4ff0 	stmdb	sp!, {r4, r5, r6, r7, r8, r9, sl, fp, lr}
 8003184:	b097      	sub	sp, #92	; 0x5c
 8003186:	4607      	mov	r7, r0
 8003188:	f7fe fb28 	bl	80017dc <Is_Expander_Present>
 800318c:	4ba7      	ldr	r3, [pc, #668]	; (800342c <keyb_proc+0x2ac>)
 800318e:	781a      	ldrb	r2, [r3, #0]
 8003190:	2800      	cmp	r0, #0
 8003192:	bf0c      	ite	eq
 8003194:	f04f 0b0f 	moveq.w	fp, #15
 8003198:	f04f 0b1f 	movne.w	fp, #31
 800319c:	2a00      	cmp	r2, #0
 800319e:	f040 82bf 	bne.w	8003720 <keyb_proc+0x5a0>
 80031a2:	4aa3      	ldr	r2, [pc, #652]	; (8003430 <keyb_proc+0x2b0>)
 80031a4:	7812      	ldrb	r2, [r2, #0]
 80031a6:	b2d2      	uxtb	r2, r2
 80031a8:	9202      	str	r2, [sp, #8]
 80031aa:	781a      	ldrb	r2, [r3, #0]
 80031ac:	b2d2      	uxtb	r2, r2
 80031ae:	2a01      	cmp	r2, #1
 80031b0:	bf0a      	itet	eq
 80031b2:	49a0      	ldreq	r1, [pc, #640]	; (8003434 <keyb_proc+0x2b4>)
 80031b4:	2200      	movne	r2, #0
 80031b6:	7809      	ldrbeq	r1, [r1, #0]
 80031b8:	9203      	str	r2, [sp, #12]
 80031ba:	781a      	ldrb	r2, [r3, #0]
 80031bc:	bf04      	itt	eq
 80031be:	b2c9      	uxtbeq	r1, r1
 80031c0:	9102      	streq	r1, [sp, #8]
 80031c2:	2a02      	cmp	r2, #2
 80031c4:	d104      	bne.n	80031d0 <keyb_proc+0x50>
 80031c6:	4a9c      	ldr	r2, [pc, #624]	; (8003438 <keyb_proc+0x2b8>)
 80031c8:	7812      	ldrb	r2, [r2, #0]
 80031ca:	9202      	str	r2, [sp, #8]
 80031cc:	2200      	movs	r2, #0
 80031ce:	9203      	str	r2, [sp, #12]
 80031d0:	781a      	ldrb	r2, [r3, #0]
 80031d2:	2a03      	cmp	r2, #3
 80031d4:	d104      	bne.n	80031e0 <keyb_proc+0x60>
 80031d6:	4a98      	ldr	r2, [pc, #608]	; (8003438 <keyb_proc+0x2b8>)
 80031d8:	7812      	ldrb	r2, [r2, #0]
 80031da:	9202      	str	r2, [sp, #8]
 80031dc:	2201      	movs	r2, #1
 80031de:	9203      	str	r2, [sp, #12]
 80031e0:	781a      	ldrb	r2, [r3, #0]
 80031e2:	2a04      	cmp	r2, #4
 80031e4:	d104      	bne.n	80031f0 <keyb_proc+0x70>
 80031e6:	4a94      	ldr	r2, [pc, #592]	; (8003438 <keyb_proc+0x2b8>)
 80031e8:	7812      	ldrb	r2, [r2, #0]
 80031ea:	9202      	str	r2, [sp, #8]
 80031ec:	2200      	movs	r2, #0
 80031ee:	9203      	str	r2, [sp, #12]
 80031f0:	781a      	ldrb	r2, [r3, #0]
 80031f2:	2a05      	cmp	r2, #5
 80031f4:	d104      	bne.n	8003200 <keyb_proc+0x80>
 80031f6:	4a90      	ldr	r2, [pc, #576]	; (8003438 <keyb_proc+0x2b8>)
 80031f8:	7812      	ldrb	r2, [r2, #0]
 80031fa:	9202      	str	r2, [sp, #8]
 80031fc:	2201      	movs	r2, #1
 80031fe:	9203      	str	r2, [sp, #12]
 8003200:	781a      	ldrb	r2, [r3, #0]
 8003202:	2a06      	cmp	r2, #6
 8003204:	d104      	bne.n	8003210 <keyb_proc+0x90>
 8003206:	4a8c      	ldr	r2, [pc, #560]	; (8003438 <keyb_proc+0x2b8>)
 8003208:	7812      	ldrb	r2, [r2, #0]
 800320a:	9202      	str	r2, [sp, #8]
 800320c:	2200      	movs	r2, #0
 800320e:	9203      	str	r2, [sp, #12]
 8003210:	781b      	ldrb	r3, [r3, #0]
 8003212:	2b07      	cmp	r3, #7
 8003214:	d104      	bne.n	8003220 <keyb_proc+0xa0>
 8003216:	4b88      	ldr	r3, [pc, #544]	; (8003438 <keyb_proc+0x2b8>)
 8003218:	781b      	ldrb	r3, [r3, #0]
 800321a:	9302      	str	r3, [sp, #8]
 800321c:	2301      	movs	r3, #1
 800321e:	9303      	str	r3, [sp, #12]
 8003220:	e9dd 3202 	ldrd	r3, r2, [sp, #8]
 8003224:	eb03 1342 	add.w	r3, r3, r2, lsl #5
 8003228:	4a84      	ldr	r2, [pc, #528]	; (800343c <keyb_proc+0x2bc>)
 800322a:	eb02 03c3 	add.w	r3, r2, r3, lsl #3
 800322e:	e893 0003 	ldmia.w	r3, {r0, r1}
 8003232:	ab16      	add	r3, sp, #88	; 0x58
 8003234:	e903 0003 	stmdb	r3, {r0, r1}
 8003238:	f89d 6053 	ldrb.w	r6, [sp, #83]	; 0x53
 800323c:	f006 0301 	and.w	r3, r6, #1
 8003240:	930c      	str	r3, [sp, #48]	; 0x30
 8003242:	f3c6 0340 	ubfx	r3, r6, #1, #1
 8003246:	930d      	str	r3, [sp, #52]	; 0x34
 8003248:	f3c6 0380 	ubfx	r3, r6, #2, #1
 800324c:	9304      	str	r3, [sp, #16]
 800324e:	f3c6 03c0 	ubfx	r3, r6, #3, #1
 8003252:	930b      	str	r3, [sp, #44]	; 0x2c
 8003254:	f3c6 1300 	ubfx	r3, r6, #4, #1
 8003258:	9305      	str	r3, [sp, #20]
 800325a:	f3c6 1340 	ubfx	r3, r6, #5, #1
 800325e:	9306      	str	r3, [sp, #24]
 8003260:	f3c6 1380 	ubfx	r3, r6, #6, #1
 8003264:	9307      	str	r3, [sp, #28]
 8003266:	f89d 3054 	ldrb.w	r3, [sp, #84]	; 0x54
 800326a:	f3c3 1200 	ubfx	r2, r3, #4, #1
 800326e:	9208      	str	r2, [sp, #32]
 8003270:	f3c3 1240 	ubfx	r2, r3, #5, #1
 8003274:	f003 0401 	and.w	r4, r3, #1
 8003278:	9209      	str	r2, [sp, #36]	; 0x24
 800327a:	f3c3 1280 	ubfx	r2, r3, #6, #1
 800327e:	09db      	lsrs	r3, r3, #7
 8003280:	930f      	str	r3, [sp, #60]	; 0x3c
 8003282:	f89d 3055 	ldrb.w	r3, [sp, #85]	; 0x55
 8003286:	920e      	str	r2, [sp, #56]	; 0x38
 8003288:	f003 0201 	and.w	r2, r3, #1
 800328c:	920a      	str	r2, [sp, #40]	; 0x28
 800328e:	f3c3 0240 	ubfx	r2, r3, #1, #1
 8003292:	9201      	str	r2, [sp, #4]
 8003294:	f3c3 0280 	ubfx	r2, r3, #2, #1
 8003298:	9210      	str	r2, [sp, #64]	; 0x40
 800329a:	f3c3 02c0 	ubfx	r2, r3, #3, #1
 800329e:	9211      	str	r2, [sp, #68]	; 0x44
 80032a0:	787a      	ldrb	r2, [r7, #1]
 80032a2:	f3c3 1300 	ubfx	r3, r3, #4, #1
 80032a6:	9312      	str	r3, [sp, #72]	; 0x48
 80032a8:	f012 0310 	ands.w	r3, r2, #16
 80032ac:	ea4f 16d6 	mov.w	r6, r6, lsr #7
 80032b0:	d106      	bne.n	80032c0 <keyb_proc+0x140>
 80032b2:	461c      	mov	r4, r3
 80032b4:	461e      	mov	r6, r3
 80032b6:	e9cd 3306 	strd	r3, r3, [sp, #24]
 80032ba:	2301      	movs	r3, #1
 80032bc:	e9cd 4304 	strd	r4, r3, [sp, #16]
 80032c0:	f012 0320 	ands.w	r3, r2, #32
 80032c4:	d106      	bne.n	80032d4 <keyb_proc+0x154>
 80032c6:	461c      	mov	r4, r3
 80032c8:	461e      	mov	r6, r3
 80032ca:	9307      	str	r3, [sp, #28]
 80032cc:	2301      	movs	r3, #1
 80032ce:	e9cd 4305 	strd	r4, r3, [sp, #20]
 80032d2:	9404      	str	r4, [sp, #16]
 80032d4:	f012 0340 	ands.w	r3, r2, #64	; 0x40
 80032d8:	d106      	bne.n	80032e8 <keyb_proc+0x168>
 80032da:	461c      	mov	r4, r3
 80032dc:	461e      	mov	r6, r3
 80032de:	2301      	movs	r3, #1
 80032e0:	e9cd 4306 	strd	r4, r3, [sp, #24]
 80032e4:	e9cd 4404 	strd	r4, r4, [sp, #16]
 80032e8:	0610      	lsls	r0, r2, #24
 80032ea:	78bb      	ldrb	r3, [r7, #2]
 80032ec:	bf5f      	itttt	pl
 80032ee:	2400      	movpl	r4, #0
 80032f0:	2601      	movpl	r6, #1
 80032f2:	e9cd 4406 	strdpl	r4, r4, [sp, #24]
 80032f6:	e9cd 4404 	strdpl	r4, r4, [sp, #16]
 80032fa:	f013 0101 	ands.w	r1, r3, #1
 80032fe:	bf01      	itttt	eq
 8003300:	460e      	moveq	r6, r1
 8003302:	2401      	moveq	r4, #1
 8003304:	e9cd 6606 	strdeq	r6, r6, [sp, #24]
 8003308:	e9cd 6604 	strdeq	r6, r6, [sp, #16]
 800330c:	f012 0101 	ands.w	r1, r2, #1
 8003310:	d106      	bne.n	8003320 <keyb_proc+0x1a0>
 8003312:	460c      	mov	r4, r1
 8003314:	460e      	mov	r6, r1
 8003316:	e9cd 1106 	strd	r1, r1, [sp, #24]
 800331a:	9105      	str	r1, [sp, #20]
 800331c:	2101      	movs	r1, #1
 800331e:	9104      	str	r1, [sp, #16]
 8003320:	78f9      	ldrb	r1, [r7, #3]
 8003322:	9811      	ldr	r0, [sp, #68]	; 0x44
 8003324:	f011 0f10 	tst.w	r1, #16
 8003328:	bf08      	it	eq
 800332a:	2001      	moveq	r0, #1
 800332c:	f011 0f20 	tst.w	r1, #32
 8003330:	bf08      	it	eq
 8003332:	2000      	moveq	r0, #0
 8003334:	9011      	str	r0, [sp, #68]	; 0x44
 8003336:	f011 0f40 	tst.w	r1, #64	; 0x40
 800333a:	9812      	ldr	r0, [sp, #72]	; 0x48
 800333c:	bf08      	it	eq
 800333e:	2001      	moveq	r0, #1
 8003340:	f011 0f80 	tst.w	r1, #128	; 0x80
 8003344:	4601      	mov	r1, r0
 8003346:	bf08      	it	eq
 8003348:	2100      	moveq	r1, #0
 800334a:	9112      	str	r1, [sp, #72]	; 0x48
 800334c:	7839      	ldrb	r1, [r7, #0]
 800334e:	980c      	ldr	r0, [sp, #48]	; 0x30
 8003350:	f011 0f10 	tst.w	r1, #16
 8003354:	bf08      	it	eq
 8003356:	2001      	moveq	r0, #1
 8003358:	f011 0f20 	tst.w	r1, #32
 800335c:	bf08      	it	eq
 800335e:	2000      	moveq	r0, #0
 8003360:	900c      	str	r0, [sp, #48]	; 0x30
 8003362:	f011 0f40 	tst.w	r1, #64	; 0x40
 8003366:	980d      	ldr	r0, [sp, #52]	; 0x34
 8003368:	bf08      	it	eq
 800336a:	2001      	moveq	r0, #1
 800336c:	f011 0f80 	tst.w	r1, #128	; 0x80
 8003370:	4601      	mov	r1, r0
 8003372:	bf08      	it	eq
 8003374:	2100      	moveq	r1, #0
 8003376:	910d      	str	r1, [sp, #52]	; 0x34
 8003378:	f012 0f04 	tst.w	r2, #4
 800337c:	990b      	ldr	r1, [sp, #44]	; 0x2c
 800337e:	bf08      	it	eq
 8003380:	2101      	moveq	r1, #1
 8003382:	f012 0f08 	tst.w	r2, #8
 8003386:	460a      	mov	r2, r1
 8003388:	bf08      	it	eq
 800338a:	2200      	moveq	r2, #0
 800338c:	0799      	lsls	r1, r3, #30
 800338e:	920b      	str	r2, [sp, #44]	; 0x2c
 8003390:	f140 81c8 	bpl.w	8003724 <keyb_proc+0x5a4>
 8003394:	f89d 5054 	ldrb.w	r5, [sp, #84]	; 0x54
 8003398:	f3c5 0940 	ubfx	r9, r5, #1, #1
 800339c:	f3c5 0880 	ubfx	r8, r5, #2, #1
 80033a0:	f3c5 05c0 	ubfx	r5, r5, #3, #1
 80033a4:	f013 0f04 	tst.w	r3, #4
 80033a8:	bf08      	it	eq
 80033aa:	f04f 0900 	moveq.w	r9, #0
 80033ae:	071a      	lsls	r2, r3, #28
 80033b0:	d420      	bmi.n	80033f4 <keyb_proc+0x274>
 80033b2:	4a1e      	ldr	r2, [pc, #120]	; (800342c <keyb_proc+0x2ac>)
 80033b4:	7811      	ldrb	r1, [r2, #0]
 80033b6:	b111      	cbz	r1, 80033be <keyb_proc+0x23e>
 80033b8:	7812      	ldrb	r2, [r2, #0]
 80033ba:	2a02      	cmp	r2, #2
 80033bc:	d107      	bne.n	80033ce <keyb_proc+0x24e>
 80033be:	4920      	ldr	r1, [pc, #128]	; (8003440 <keyb_proc+0x2c0>)
 80033c0:	780a      	ldrb	r2, [r1, #0]
 80033c2:	2a04      	cmp	r2, #4
 80033c4:	bf01      	itttt	eq
 80033c6:	4a1f      	ldreq	r2, [pc, #124]	; (8003444 <keyb_proc+0x2c4>)
 80033c8:	7812      	ldrbeq	r2, [r2, #0]
 80033ca:	b2d2      	uxtbeq	r2, r2
 80033cc:	700a      	strbeq	r2, [r1, #0]
 80033ce:	4a17      	ldr	r2, [pc, #92]	; (800342c <keyb_proc+0x2ac>)
 80033d0:	7811      	ldrb	r1, [r2, #0]
 80033d2:	2901      	cmp	r1, #1
 80033d4:	d002      	beq.n	80033dc <keyb_proc+0x25c>
 80033d6:	7812      	ldrb	r2, [r2, #0]
 80033d8:	2a03      	cmp	r2, #3
 80033da:	d107      	bne.n	80033ec <keyb_proc+0x26c>
 80033dc:	491a      	ldr	r1, [pc, #104]	; (8003448 <keyb_proc+0x2c8>)
 80033de:	780a      	ldrb	r2, [r1, #0]
 80033e0:	2a04      	cmp	r2, #4
 80033e2:	bf01      	itttt	eq
 80033e4:	4a19      	ldreq	r2, [pc, #100]	; (800344c <keyb_proc+0x2cc>)
 80033e6:	7812      	ldrbeq	r2, [r2, #0]
 80033e8:	b2d2      	uxtbeq	r2, r2
 80033ea:	700a      	strbeq	r2, [r1, #0]
 80033ec:	2500      	movs	r5, #0
 80033ee:	f04f 0801 	mov.w	r8, #1
 80033f2:	46a9      	mov	r9, r5
 80033f4:	06d8      	lsls	r0, r3, #27
 80033f6:	d432      	bmi.n	800345e <keyb_proc+0x2de>
 80033f8:	4a0c      	ldr	r2, [pc, #48]	; (800342c <keyb_proc+0x2ac>)
 80033fa:	7811      	ldrb	r1, [r2, #0]
 80033fc:	b111      	cbz	r1, 8003404 <keyb_proc+0x284>
 80033fe:	7812      	ldrb	r2, [r2, #0]
 8003400:	2a02      	cmp	r2, #2
 8003402:	d107      	bne.n	8003414 <keyb_proc+0x294>
 8003404:	490e      	ldr	r1, [pc, #56]	; (8003440 <keyb_proc+0x2c0>)
 8003406:	780a      	ldrb	r2, [r1, #0]
 8003408:	2a05      	cmp	r2, #5
 800340a:	bf01      	itttt	eq
 800340c:	4a0d      	ldreq	r2, [pc, #52]	; (8003444 <keyb_proc+0x2c4>)
 800340e:	7812      	ldrbeq	r2, [r2, #0]
 8003410:	b2d2      	uxtbeq	r2, r2
 8003412:	700a      	strbeq	r2, [r1, #0]
 8003414:	4a05      	ldr	r2, [pc, #20]	; (800342c <keyb_proc+0x2ac>)
 8003416:	7811      	ldrb	r1, [r2, #0]
 8003418:	2901      	cmp	r1, #1
 800341a:	d002      	beq.n	8003422 <keyb_proc+0x2a2>
 800341c:	7812      	ldrb	r2, [r2, #0]
 800341e:	2a03      	cmp	r2, #3
 8003420:	d11b      	bne.n	800345a <keyb_proc+0x2da>
 8003422:	4909      	ldr	r1, [pc, #36]	; (8003448 <keyb_proc+0x2c8>)
 8003424:	780a      	ldrb	r2, [r1, #0]
 8003426:	2a05      	cmp	r2, #5
 8003428:	e012      	b.n	8003450 <keyb_proc+0x2d0>
 800342a:	bf00      	nop
 800342c:	200002a8 	.word	0x200002a8
 8003430:	200002b7 	.word	0x200002b7
 8003434:	200002b8 	.word	0x200002b8
 8003438:	200002a9 	.word	0x200002a9
 800343c:	20000898 	.word	0x20000898
 8003440:	200002b9 	.word	0x200002b9
 8003444:	200002b5 	.word	0x200002b5
 8003448:	200002ba 	.word	0x200002ba
 800344c:	200002b6 	.word	0x200002b6
 8003450:	bf01      	itttt	eq
 8003452:	4a9d      	ldreq	r2, [pc, #628]	; (80036c8 <keyb_proc+0x548>)
 8003454:	7812      	ldrbeq	r2, [r2, #0]
 8003456:	b2d2      	uxtbeq	r2, r2
 8003458:	700a      	strbeq	r2, [r1, #0]
 800345a:	f04f 0800 	mov.w	r8, #0
 800345e:	0699      	lsls	r1, r3, #26
 8003460:	d420      	bmi.n	80034a4 <keyb_proc+0x324>
 8003462:	4a9a      	ldr	r2, [pc, #616]	; (80036cc <keyb_proc+0x54c>)
 8003464:	7811      	ldrb	r1, [r2, #0]
 8003466:	b111      	cbz	r1, 800346e <keyb_proc+0x2ee>
 8003468:	7812      	ldrb	r2, [r2, #0]
 800346a:	2a02      	cmp	r2, #2
 800346c:	d107      	bne.n	800347e <keyb_proc+0x2fe>
 800346e:	4998      	ldr	r1, [pc, #608]	; (80036d0 <keyb_proc+0x550>)
 8003470:	780a      	ldrb	r2, [r1, #0]
 8003472:	2a05      	cmp	r2, #5
 8003474:	bf01      	itttt	eq
 8003476:	4a97      	ldreq	r2, [pc, #604]	; (80036d4 <keyb_proc+0x554>)
 8003478:	7812      	ldrbeq	r2, [r2, #0]
 800347a:	b2d2      	uxtbeq	r2, r2
 800347c:	700a      	strbeq	r2, [r1, #0]
 800347e:	4a93      	ldr	r2, [pc, #588]	; (80036cc <keyb_proc+0x54c>)
 8003480:	7811      	ldrb	r1, [r2, #0]
 8003482:	2901      	cmp	r1, #1
 8003484:	d002      	beq.n	800348c <keyb_proc+0x30c>
 8003486:	7812      	ldrb	r2, [r2, #0]
 8003488:	2a03      	cmp	r2, #3
 800348a:	d107      	bne.n	800349c <keyb_proc+0x31c>
 800348c:	4992      	ldr	r1, [pc, #584]	; (80036d8 <keyb_proc+0x558>)
 800348e:	780a      	ldrb	r2, [r1, #0]
 8003490:	2a05      	cmp	r2, #5
 8003492:	bf01      	itttt	eq
 8003494:	4a8c      	ldreq	r2, [pc, #560]	; (80036c8 <keyb_proc+0x548>)
 8003496:	7812      	ldrbeq	r2, [r2, #0]
 8003498:	b2d2      	uxtbeq	r2, r2
 800349a:	700a      	strbeq	r2, [r1, #0]
 800349c:	f04f 0800 	mov.w	r8, #0
 80034a0:	2501      	movs	r5, #1
 80034a2:	46c1      	mov	r9, r8
 80034a4:	065a      	lsls	r2, r3, #25
 80034a6:	d41d      	bmi.n	80034e4 <keyb_proc+0x364>
 80034a8:	4a88      	ldr	r2, [pc, #544]	; (80036cc <keyb_proc+0x54c>)
 80034aa:	7811      	ldrb	r1, [r2, #0]
 80034ac:	b111      	cbz	r1, 80034b4 <keyb_proc+0x334>
 80034ae:	7812      	ldrb	r2, [r2, #0]
 80034b0:	2a02      	cmp	r2, #2
 80034b2:	d107      	bne.n	80034c4 <keyb_proc+0x344>
 80034b4:	4986      	ldr	r1, [pc, #536]	; (80036d0 <keyb_proc+0x550>)
 80034b6:	780a      	ldrb	r2, [r1, #0]
 80034b8:	2a04      	cmp	r2, #4
 80034ba:	bf01      	itttt	eq
 80034bc:	4a85      	ldreq	r2, [pc, #532]	; (80036d4 <keyb_proc+0x554>)
 80034be:	7812      	ldrbeq	r2, [r2, #0]
 80034c0:	b2d2      	uxtbeq	r2, r2
 80034c2:	700a      	strbeq	r2, [r1, #0]
 80034c4:	4a81      	ldr	r2, [pc, #516]	; (80036cc <keyb_proc+0x54c>)
 80034c6:	7811      	ldrb	r1, [r2, #0]
 80034c8:	2901      	cmp	r1, #1
 80034ca:	d002      	beq.n	80034d2 <keyb_proc+0x352>
 80034cc:	7812      	ldrb	r2, [r2, #0]
 80034ce:	2a03      	cmp	r2, #3
 80034d0:	d107      	bne.n	80034e2 <keyb_proc+0x362>
 80034d2:	4981      	ldr	r1, [pc, #516]	; (80036d8 <keyb_proc+0x558>)
 80034d4:	780a      	ldrb	r2, [r1, #0]
 80034d6:	2a04      	cmp	r2, #4
 80034d8:	bf01      	itttt	eq
 80034da:	4a7b      	ldreq	r2, [pc, #492]	; (80036c8 <keyb_proc+0x548>)
 80034dc:	7812      	ldrbeq	r2, [r2, #0]
 80034de:	b2d2      	uxtbeq	r2, r2
 80034e0:	700a      	strbeq	r2, [r1, #0]
 80034e2:	2500      	movs	r5, #0
 80034e4:	b25b      	sxtb	r3, r3
 80034e6:	2b00      	cmp	r3, #0
 80034e8:	9b09      	ldr	r3, [sp, #36]	; 0x24
 80034ea:	9910      	ldr	r1, [sp, #64]	; 0x40
 80034ec:	bfa8      	it	ge
 80034ee:	2300      	movge	r3, #0
 80034f0:	9309      	str	r3, [sp, #36]	; 0x24
 80034f2:	9b08      	ldr	r3, [sp, #32]
 80034f4:	bfa8      	it	ge
 80034f6:	2301      	movge	r3, #1
 80034f8:	9308      	str	r3, [sp, #32]
 80034fa:	79bb      	ldrb	r3, [r7, #6]
 80034fc:	9a08      	ldr	r2, [sp, #32]
 80034fe:	f013 0f01 	tst.w	r3, #1
 8003502:	bf08      	it	eq
 8003504:	2200      	moveq	r2, #0
 8003506:	9208      	str	r2, [sp, #32]
 8003508:	f003 0202 	and.w	r2, r3, #2
 800350c:	2a00      	cmp	r2, #0
 800350e:	9a09      	ldr	r2, [sp, #36]	; 0x24
 8003510:	bf08      	it	eq
 8003512:	2201      	moveq	r2, #1
 8003514:	9209      	str	r2, [sp, #36]	; 0x24
 8003516:	9a08      	ldr	r2, [sp, #32]
 8003518:	bf08      	it	eq
 800351a:	2200      	moveq	r2, #0
 800351c:	f013 0f04 	tst.w	r3, #4
 8003520:	9208      	str	r2, [sp, #32]
 8003522:	9a09      	ldr	r2, [sp, #36]	; 0x24
 8003524:	bf08      	it	eq
 8003526:	2200      	moveq	r2, #0
 8003528:	9209      	str	r2, [sp, #36]	; 0x24
 800352a:	793a      	ldrb	r2, [r7, #4]
 800352c:	f012 0f01 	tst.w	r2, #1
 8003530:	bf08      	it	eq
 8003532:	2101      	moveq	r1, #1
 8003534:	f012 0f02 	tst.w	r2, #2
 8003538:	460a      	mov	r2, r1
 800353a:	bf08      	it	eq
 800353c:	2200      	moveq	r2, #0
 800353e:	9210      	str	r2, [sp, #64]	; 0x40
 8003540:	f013 0208 	ands.w	r2, r3, #8
 8003544:	d104      	bne.n	8003550 <keyb_proc+0x3d0>
 8003546:	9201      	str	r2, [sp, #4]
 8003548:	920a      	str	r2, [sp, #40]	; 0x28
 800354a:	920f      	str	r2, [sp, #60]	; 0x3c
 800354c:	2201      	movs	r2, #1
 800354e:	920e      	str	r2, [sp, #56]	; 0x38
 8003550:	f013 0210 	ands.w	r2, r3, #16
 8003554:	d105      	bne.n	8003562 <keyb_proc+0x3e2>
 8003556:	9201      	str	r2, [sp, #4]
 8003558:	920a      	str	r2, [sp, #40]	; 0x28
 800355a:	2201      	movs	r2, #1
 800355c:	920f      	str	r2, [sp, #60]	; 0x3c
 800355e:	9a01      	ldr	r2, [sp, #4]
 8003560:	920e      	str	r2, [sp, #56]	; 0x38
 8003562:	f013 0220 	ands.w	r2, r3, #32
 8003566:	d105      	bne.n	8003574 <keyb_proc+0x3f4>
 8003568:	9201      	str	r2, [sp, #4]
 800356a:	2201      	movs	r2, #1
 800356c:	920a      	str	r2, [sp, #40]	; 0x28
 800356e:	9a01      	ldr	r2, [sp, #4]
 8003570:	e9cd 220e 	strd	r2, r2, [sp, #56]	; 0x38
 8003574:	f013 0340 	ands.w	r3, r3, #64	; 0x40
 8003578:	f897 a000 	ldrb.w	sl, [r7]
 800357c:	bf01      	itttt	eq
 800357e:	930a      	streq	r3, [sp, #40]	; 0x28
 8003580:	2201      	moveq	r2, #1
 8003582:	9201      	streq	r2, [sp, #4]
 8003584:	e9cd 330e 	strdeq	r3, r3, [sp, #56]	; 0x38
 8003588:	f01a 0a01 	ands.w	sl, sl, #1
 800358c:	d11b      	bne.n	80035c6 <keyb_proc+0x446>
 800358e:	f7fe fb8d 	bl	8001cac <InitClear_Timer>
 8003592:	4a4e      	ldr	r2, [pc, #312]	; (80036cc <keyb_proc+0x54c>)
 8003594:	7813      	ldrb	r3, [r2, #0]
 8003596:	2b06      	cmp	r3, #6
 8003598:	f040 80fb 	bne.w	8003792 <keyb_proc+0x612>
 800359c:	4b4f      	ldr	r3, [pc, #316]	; (80036dc <keyb_proc+0x55c>)
 800359e:	9213      	str	r2, [sp, #76]	; 0x4c
 80035a0:	7818      	ldrb	r0, [r3, #0]
 80035a2:	f7fe fcdb 	bl	8001f5c <LoadSequence>
 80035a6:	4b4e      	ldr	r3, [pc, #312]	; (80036e0 <keyb_proc+0x560>)
 80035a8:	9a13      	ldr	r2, [sp, #76]	; 0x4c
 80035aa:	2101      	movs	r1, #1
 80035ac:	7019      	strb	r1, [r3, #0]
 80035ae:	f882 a000 	strb.w	sl, [r2]
 80035b2:	4a47      	ldr	r2, [pc, #284]	; (80036d0 <keyb_proc+0x550>)
 80035b4:	4947      	ldr	r1, [pc, #284]	; (80036d4 <keyb_proc+0x554>)
 80035b6:	7813      	ldrb	r3, [r2, #0]
 80035b8:	b2db      	uxtb	r3, r3
 80035ba:	700b      	strb	r3, [r1, #0]
 80035bc:	4b49      	ldr	r3, [pc, #292]	; (80036e4 <keyb_proc+0x564>)
 80035be:	f883 a000 	strb.w	sl, [r3]
 80035c2:	2302      	movs	r3, #2
 80035c4:	7013      	strb	r3, [r2, #0]
 80035c6:	f897 a000 	ldrb.w	sl, [r7]
 80035ca:	f01a 0302 	ands.w	r3, sl, #2
 80035ce:	9313      	str	r3, [sp, #76]	; 0x4c
 80035d0:	d10f      	bne.n	80035f2 <keyb_proc+0x472>
 80035d2:	f8df a0f8 	ldr.w	sl, [pc, #248]	; 80036cc <keyb_proc+0x54c>
 80035d6:	f7fe fb69 	bl	8001cac <InitClear_Timer>
 80035da:	f89a 3000 	ldrb.w	r3, [sl]
 80035de:	2b04      	cmp	r3, #4
 80035e0:	f040 8107 	bne.w	80037f2 <keyb_proc+0x672>
 80035e4:	4b3d      	ldr	r3, [pc, #244]	; (80036dc <keyb_proc+0x55c>)
 80035e6:	7818      	ldrb	r0, [r3, #0]
 80035e8:	f7fe fc7c 	bl	8001ee4 <SaveSequence>
 80035ec:	9b13      	ldr	r3, [sp, #76]	; 0x4c
 80035ee:	f88a 3000 	strb.w	r3, [sl]
 80035f2:	783b      	ldrb	r3, [r7, #0]
 80035f4:	0758      	lsls	r0, r3, #29
 80035f6:	f100 815f 	bmi.w	80038b8 <keyb_proc+0x738>
 80035fa:	4a34      	ldr	r2, [pc, #208]	; (80036cc <keyb_proc+0x54c>)
 80035fc:	7811      	ldrb	r1, [r2, #0]
 80035fe:	b921      	cbnz	r1, 800360a <keyb_proc+0x48a>
 8003600:	2302      	movs	r3, #2
 8003602:	7013      	strb	r3, [r2, #0]
 8003604:	4b35      	ldr	r3, [pc, #212]	; (80036dc <keyb_proc+0x55c>)
 8003606:	2101      	movs	r1, #1
 8003608:	7019      	strb	r1, [r3, #0]
 800360a:	7813      	ldrb	r3, [r2, #0]
 800360c:	b2db      	uxtb	r3, r3
 800360e:	2b01      	cmp	r3, #1
 8003610:	bf01      	itttt	eq
 8003612:	2103      	moveq	r1, #3
 8003614:	7011      	strbeq	r1, [r2, #0]
 8003616:	4a31      	ldreq	r2, [pc, #196]	; (80036dc <keyb_proc+0x55c>)
 8003618:	7013      	strbeq	r3, [r2, #0]
 800361a:	4b2c      	ldr	r3, [pc, #176]	; (80036cc <keyb_proc+0x54c>)
 800361c:	781a      	ldrb	r2, [r3, #0]
 800361e:	2a02      	cmp	r2, #2
 8003620:	d002      	beq.n	8003628 <keyb_proc+0x4a8>
 8003622:	781b      	ldrb	r3, [r3, #0]
 8003624:	2b03      	cmp	r3, #3
 8003626:	d117      	bne.n	8003658 <keyb_proc+0x4d8>
 8003628:	482c      	ldr	r0, [pc, #176]	; (80036dc <keyb_proc+0x55c>)
 800362a:	4b2f      	ldr	r3, [pc, #188]	; (80036e8 <keyb_proc+0x568>)
 800362c:	7802      	ldrb	r2, [r0, #0]
 800362e:	8819      	ldrh	r1, [r3, #0]
 8003630:	2a00      	cmp	r2, #0
 8003632:	f000 8110 	beq.w	8003856 <keyb_proc+0x6d6>
 8003636:	2900      	cmp	r1, #0
 8003638:	f040 8105 	bne.w	8003846 <keyb_proc+0x6c6>
 800363c:	3a01      	subs	r2, #1
 800363e:	7002      	strb	r2, [r0, #0]
 8003640:	881a      	ldrh	r2, [r3, #0]
 8003642:	3201      	adds	r2, #1
 8003644:	801a      	strh	r2, [r3, #0]
 8003646:	4b29      	ldr	r3, [pc, #164]	; (80036ec <keyb_proc+0x56c>)
 8003648:	781a      	ldrb	r2, [r3, #0]
 800364a:	f042 0201 	orr.w	r2, r2, #1
 800364e:	701a      	strb	r2, [r3, #0]
 8003650:	781a      	ldrb	r2, [r3, #0]
 8003652:	f042 0202 	orr.w	r2, r2, #2
 8003656:	701a      	strb	r2, [r3, #0]
 8003658:	4b1c      	ldr	r3, [pc, #112]	; (80036cc <keyb_proc+0x54c>)
 800365a:	781a      	ldrb	r2, [r3, #0]
 800365c:	2a04      	cmp	r2, #4
 800365e:	d008      	beq.n	8003672 <keyb_proc+0x4f2>
 8003660:	781a      	ldrb	r2, [r3, #0]
 8003662:	2a05      	cmp	r2, #5
 8003664:	d005      	beq.n	8003672 <keyb_proc+0x4f2>
 8003666:	781a      	ldrb	r2, [r3, #0]
 8003668:	2a06      	cmp	r2, #6
 800366a:	d002      	beq.n	8003672 <keyb_proc+0x4f2>
 800366c:	781b      	ldrb	r3, [r3, #0]
 800366e:	2b07      	cmp	r3, #7
 8003670:	d117      	bne.n	80036a2 <keyb_proc+0x522>
 8003672:	f8df a068 	ldr.w	sl, [pc, #104]	; 80036dc <keyb_proc+0x55c>
 8003676:	481c      	ldr	r0, [pc, #112]	; (80036e8 <keyb_proc+0x568>)
 8003678:	f89a 3000 	ldrb.w	r3, [sl]
 800367c:	8802      	ldrh	r2, [r0, #0]
 800367e:	4601      	mov	r1, r0
 8003680:	2b00      	cmp	r3, #0
 8003682:	f000 80fc 	beq.w	800387e <keyb_proc+0x6fe>
 8003686:	2a00      	cmp	r2, #0
 8003688:	f040 80f1 	bne.w	800386e <keyb_proc+0x6ee>
 800368c:	3b01      	subs	r3, #1
 800368e:	f88a 3000 	strb.w	r3, [sl]
 8003692:	880b      	ldrh	r3, [r1, #0]
 8003694:	3301      	adds	r3, #1
 8003696:	800b      	strh	r3, [r1, #0]
 8003698:	4a14      	ldr	r2, [pc, #80]	; (80036ec <keyb_proc+0x56c>)
 800369a:	7813      	ldrb	r3, [r2, #0]
 800369c:	f043 0302 	orr.w	r3, r3, #2
 80036a0:	7013      	strb	r3, [r2, #0]
 80036a2:	783b      	ldrb	r3, [r7, #0]
 80036a4:	0719      	lsls	r1, r3, #28
 80036a6:	f100 8479 	bmi.w	8003f9c <keyb_proc+0xe1c>
 80036aa:	4b08      	ldr	r3, [pc, #32]	; (80036cc <keyb_proc+0x54c>)
 80036ac:	781a      	ldrb	r2, [r3, #0]
 80036ae:	b922      	cbnz	r2, 80036ba <keyb_proc+0x53a>
 80036b0:	2202      	movs	r2, #2
 80036b2:	701a      	strb	r2, [r3, #0]
 80036b4:	4a09      	ldr	r2, [pc, #36]	; (80036dc <keyb_proc+0x55c>)
 80036b6:	f882 b000 	strb.w	fp, [r2]
 80036ba:	781a      	ldrb	r2, [r3, #0]
 80036bc:	2a01      	cmp	r2, #1
 80036be:	bf02      	ittt	eq
 80036c0:	2203      	moveq	r2, #3
 80036c2:	701a      	strbeq	r2, [r3, #0]
 80036c4:	4b05      	ldreq	r3, [pc, #20]	; (80036dc <keyb_proc+0x55c>)
 80036c6:	e013      	b.n	80036f0 <keyb_proc+0x570>
 80036c8:	200002b6 	.word	0x200002b6
 80036cc:	200002a8 	.word	0x200002a8
 80036d0:	200002b9 	.word	0x200002b9
 80036d4:	200002b5 	.word	0x200002b5
 80036d8:	200002ba 	.word	0x200002ba
 80036dc:	200002a9 	.word	0x200002a9
 80036e0:	200002b4 	.word	0x200002b4
 80036e4:	200002b7 	.word	0x200002b7
 80036e8:	200002a4 	.word	0x200002a4
 80036ec:	200002e8 	.word	0x200002e8
 80036f0:	bf08      	it	eq
 80036f2:	f883 b000 	strbeq.w	fp, [r3]
 80036f6:	4b76      	ldr	r3, [pc, #472]	; (80038d0 <keyb_proc+0x750>)
 80036f8:	781a      	ldrb	r2, [r3, #0]
 80036fa:	2a02      	cmp	r2, #2
 80036fc:	d003      	beq.n	8003706 <keyb_proc+0x586>
 80036fe:	781b      	ldrb	r3, [r3, #0]
 8003700:	2b03      	cmp	r3, #3
 8003702:	f040 810b 	bne.w	800391c <keyb_proc+0x79c>
 8003706:	4873      	ldr	r0, [pc, #460]	; (80038d4 <keyb_proc+0x754>)
 8003708:	4b73      	ldr	r3, [pc, #460]	; (80038d8 <keyb_proc+0x758>)
 800370a:	7802      	ldrb	r2, [r0, #0]
 800370c:	8819      	ldrh	r1, [r3, #0]
 800370e:	455a      	cmp	r2, fp
 8003710:	f080 80f4 	bcs.w	80038fc <keyb_proc+0x77c>
 8003714:	2900      	cmp	r1, #0
 8003716:	f040 80d3 	bne.w	80038c0 <keyb_proc+0x740>
 800371a:	3201      	adds	r2, #1
 800371c:	7002      	strb	r2, [r0, #0]
 800371e:	e0f1      	b.n	8003904 <keyb_proc+0x784>
 8003720:	2200      	movs	r2, #0
 8003722:	e541      	b.n	80031a8 <keyb_proc+0x28>
 8003724:	4a6a      	ldr	r2, [pc, #424]	; (80038d0 <keyb_proc+0x750>)
 8003726:	7811      	ldrb	r1, [r2, #0]
 8003728:	b111      	cbz	r1, 8003730 <keyb_proc+0x5b0>
 800372a:	7812      	ldrb	r2, [r2, #0]
 800372c:	2a02      	cmp	r2, #2
 800372e:	d105      	bne.n	800373c <keyb_proc+0x5bc>
 8003730:	4a6a      	ldr	r2, [pc, #424]	; (80038dc <keyb_proc+0x75c>)
 8003732:	7811      	ldrb	r1, [r2, #0]
 8003734:	2905      	cmp	r1, #5
 8003736:	bf04      	itt	eq
 8003738:	2102      	moveq	r1, #2
 800373a:	7011      	strbeq	r1, [r2, #0]
 800373c:	4a64      	ldr	r2, [pc, #400]	; (80038d0 <keyb_proc+0x750>)
 800373e:	7811      	ldrb	r1, [r2, #0]
 8003740:	2901      	cmp	r1, #1
 8003742:	d002      	beq.n	800374a <keyb_proc+0x5ca>
 8003744:	7812      	ldrb	r2, [r2, #0]
 8003746:	2a03      	cmp	r2, #3
 8003748:	d105      	bne.n	8003756 <keyb_proc+0x5d6>
 800374a:	4a65      	ldr	r2, [pc, #404]	; (80038e0 <keyb_proc+0x760>)
 800374c:	7811      	ldrb	r1, [r2, #0]
 800374e:	2905      	cmp	r1, #5
 8003750:	bf04      	itt	eq
 8003752:	2102      	moveq	r1, #2
 8003754:	7011      	strbeq	r1, [r2, #0]
 8003756:	4a5e      	ldr	r2, [pc, #376]	; (80038d0 <keyb_proc+0x750>)
 8003758:	7811      	ldrb	r1, [r2, #0]
 800375a:	b111      	cbz	r1, 8003762 <keyb_proc+0x5e2>
 800375c:	7812      	ldrb	r2, [r2, #0]
 800375e:	2a02      	cmp	r2, #2
 8003760:	d105      	bne.n	800376e <keyb_proc+0x5ee>
 8003762:	4a5e      	ldr	r2, [pc, #376]	; (80038dc <keyb_proc+0x75c>)
 8003764:	7811      	ldrb	r1, [r2, #0]
 8003766:	2904      	cmp	r1, #4
 8003768:	bf04      	itt	eq
 800376a:	2102      	moveq	r1, #2
 800376c:	7011      	strbeq	r1, [r2, #0]
 800376e:	4a58      	ldr	r2, [pc, #352]	; (80038d0 <keyb_proc+0x750>)
 8003770:	7811      	ldrb	r1, [r2, #0]
 8003772:	2901      	cmp	r1, #1
 8003774:	d002      	beq.n	800377c <keyb_proc+0x5fc>
 8003776:	7812      	ldrb	r2, [r2, #0]
 8003778:	2a03      	cmp	r2, #3
 800377a:	d105      	bne.n	8003788 <keyb_proc+0x608>
 800377c:	4a58      	ldr	r2, [pc, #352]	; (80038e0 <keyb_proc+0x760>)
 800377e:	7811      	ldrb	r1, [r2, #0]
 8003780:	2904      	cmp	r1, #4
 8003782:	bf04      	itt	eq
 8003784:	2102      	moveq	r1, #2
 8003786:	7011      	strbeq	r1, [r2, #0]
 8003788:	2500      	movs	r5, #0
 800378a:	46a8      	mov	r8, r5
 800378c:	f04f 0901 	mov.w	r9, #1
 8003790:	e608      	b.n	80033a4 <keyb_proc+0x224>
 8003792:	7813      	ldrb	r3, [r2, #0]
 8003794:	2b07      	cmp	r3, #7
 8003796:	d110      	bne.n	80037ba <keyb_proc+0x63a>
 8003798:	4b4e      	ldr	r3, [pc, #312]	; (80038d4 <keyb_proc+0x754>)
 800379a:	9213      	str	r2, [sp, #76]	; 0x4c
 800379c:	7818      	ldrb	r0, [r3, #0]
 800379e:	f7fe fbdd 	bl	8001f5c <LoadSequence>
 80037a2:	4950      	ldr	r1, [pc, #320]	; (80038e4 <keyb_proc+0x764>)
 80037a4:	9a13      	ldr	r2, [sp, #76]	; 0x4c
 80037a6:	2301      	movs	r3, #1
 80037a8:	700b      	strb	r3, [r1, #0]
 80037aa:	7013      	strb	r3, [r2, #0]
 80037ac:	4a4c      	ldr	r2, [pc, #304]	; (80038e0 <keyb_proc+0x760>)
 80037ae:	494e      	ldr	r1, [pc, #312]	; (80038e8 <keyb_proc+0x768>)
 80037b0:	7813      	ldrb	r3, [r2, #0]
 80037b2:	b2db      	uxtb	r3, r3
 80037b4:	700b      	strb	r3, [r1, #0]
 80037b6:	4b4d      	ldr	r3, [pc, #308]	; (80038ec <keyb_proc+0x76c>)
 80037b8:	e701      	b.n	80035be <keyb_proc+0x43e>
 80037ba:	7813      	ldrb	r3, [r2, #0]
 80037bc:	f003 01ff 	and.w	r1, r3, #255	; 0xff
 80037c0:	b96b      	cbnz	r3, 80037de <keyb_proc+0x65e>
 80037c2:	2306      	movs	r3, #6
 80037c4:	7013      	strb	r3, [r2, #0]
 80037c6:	4b43      	ldr	r3, [pc, #268]	; (80038d4 <keyb_proc+0x754>)
 80037c8:	7019      	strb	r1, [r3, #0]
 80037ca:	4b49      	ldr	r3, [pc, #292]	; (80038f0 <keyb_proc+0x770>)
 80037cc:	781a      	ldrb	r2, [r3, #0]
 80037ce:	f042 0202 	orr.w	r2, r2, #2
 80037d2:	701a      	strb	r2, [r3, #0]
 80037d4:	781a      	ldrb	r2, [r3, #0]
 80037d6:	f042 0201 	orr.w	r2, r2, #1
 80037da:	701a      	strb	r2, [r3, #0]
 80037dc:	e6f3      	b.n	80035c6 <keyb_proc+0x446>
 80037de:	7813      	ldrb	r3, [r2, #0]
 80037e0:	2b01      	cmp	r3, #1
 80037e2:	f47f aef0 	bne.w	80035c6 <keyb_proc+0x446>
 80037e6:	2307      	movs	r3, #7
 80037e8:	7013      	strb	r3, [r2, #0]
 80037ea:	4b3a      	ldr	r3, [pc, #232]	; (80038d4 <keyb_proc+0x754>)
 80037ec:	f883 a000 	strb.w	sl, [r3]
 80037f0:	e7eb      	b.n	80037ca <keyb_proc+0x64a>
 80037f2:	f89a 3000 	ldrb.w	r3, [sl]
 80037f6:	2b05      	cmp	r3, #5
 80037f8:	d105      	bne.n	8003806 <keyb_proc+0x686>
 80037fa:	4b36      	ldr	r3, [pc, #216]	; (80038d4 <keyb_proc+0x754>)
 80037fc:	7818      	ldrb	r0, [r3, #0]
 80037fe:	f7fe fb71 	bl	8001ee4 <SaveSequence>
 8003802:	2301      	movs	r3, #1
 8003804:	e6f3      	b.n	80035ee <keyb_proc+0x46e>
 8003806:	f89a 3000 	ldrb.w	r3, [sl]
 800380a:	f003 01ff 	and.w	r1, r3, #255	; 0xff
 800380e:	b973      	cbnz	r3, 800382e <keyb_proc+0x6ae>
 8003810:	2304      	movs	r3, #4
 8003812:	f88a 3000 	strb.w	r3, [sl]
 8003816:	4b2f      	ldr	r3, [pc, #188]	; (80038d4 <keyb_proc+0x754>)
 8003818:	7019      	strb	r1, [r3, #0]
 800381a:	4b35      	ldr	r3, [pc, #212]	; (80038f0 <keyb_proc+0x770>)
 800381c:	781a      	ldrb	r2, [r3, #0]
 800381e:	f042 0202 	orr.w	r2, r2, #2
 8003822:	701a      	strb	r2, [r3, #0]
 8003824:	781a      	ldrb	r2, [r3, #0]
 8003826:	f042 0201 	orr.w	r2, r2, #1
 800382a:	701a      	strb	r2, [r3, #0]
 800382c:	e6e1      	b.n	80035f2 <keyb_proc+0x472>
 800382e:	f89a 3000 	ldrb.w	r3, [sl]
 8003832:	2b01      	cmp	r3, #1
 8003834:	f47f aedd 	bne.w	80035f2 <keyb_proc+0x472>
 8003838:	2305      	movs	r3, #5
 800383a:	f88a 3000 	strb.w	r3, [sl]
 800383e:	4b25      	ldr	r3, [pc, #148]	; (80038d4 <keyb_proc+0x754>)
 8003840:	9a13      	ldr	r2, [sp, #76]	; 0x4c
 8003842:	701a      	strb	r2, [r3, #0]
 8003844:	e7e9      	b.n	800381a <keyb_proc+0x69a>
 8003846:	f5b1 7f16 	cmp.w	r1, #600	; 0x258
 800384a:	f67f aef9 	bls.w	8003640 <keyb_proc+0x4c0>
 800384e:	f44f 71fa 	mov.w	r1, #500	; 0x1f4
 8003852:	8019      	strh	r1, [r3, #0]
 8003854:	e6f2      	b.n	800363c <keyb_proc+0x4bc>
 8003856:	b911      	cbnz	r1, 800385e <keyb_proc+0x6de>
 8003858:	f880 b000 	strb.w	fp, [r0]
 800385c:	e6f0      	b.n	8003640 <keyb_proc+0x4c0>
 800385e:	f5b1 7f16 	cmp.w	r1, #600	; 0x258
 8003862:	f67f aeed 	bls.w	8003640 <keyb_proc+0x4c0>
 8003866:	f44f 72fa 	mov.w	r2, #500	; 0x1f4
 800386a:	801a      	strh	r2, [r3, #0]
 800386c:	e7f4      	b.n	8003858 <keyb_proc+0x6d8>
 800386e:	f5b2 7f16 	cmp.w	r2, #600	; 0x258
 8003872:	f67f af0e 	bls.w	8003692 <keyb_proc+0x512>
 8003876:	f44f 72fa 	mov.w	r2, #500	; 0x1f4
 800387a:	8002      	strh	r2, [r0, #0]
 800387c:	e706      	b.n	800368c <keyb_proc+0x50c>
 800387e:	b9a2      	cbnz	r2, 80038aa <keyb_proc+0x72a>
 8003880:	f7fd ffac 	bl	80017dc <Is_Expander_Present>
 8003884:	b948      	cbnz	r0, 800389a <keyb_proc+0x71a>
 8003886:	230f      	movs	r3, #15
 8003888:	f88a 3000 	strb.w	r3, [sl]
 800388c:	4b19      	ldr	r3, [pc, #100]	; (80038f4 <keyb_proc+0x774>)
 800388e:	781a      	ldrb	r2, [r3, #0]
 8003890:	2a01      	cmp	r2, #1
 8003892:	bf0c      	ite	eq
 8003894:	2202      	moveq	r2, #2
 8003896:	2201      	movne	r2, #1
 8003898:	e001      	b.n	800389e <keyb_proc+0x71e>
 800389a:	4b0e      	ldr	r3, [pc, #56]	; (80038d4 <keyb_proc+0x754>)
 800389c:	221f      	movs	r2, #31
 800389e:	701a      	strb	r2, [r3, #0]
 80038a0:	4a15      	ldr	r2, [pc, #84]	; (80038f8 <keyb_proc+0x778>)
 80038a2:	8813      	ldrh	r3, [r2, #0]
 80038a4:	3301      	adds	r3, #1
 80038a6:	8013      	strh	r3, [r2, #0]
 80038a8:	e6f6      	b.n	8003698 <keyb_proc+0x518>
 80038aa:	f5b2 7f16 	cmp.w	r2, #600	; 0x258
 80038ae:	d9f7      	bls.n	80038a0 <keyb_proc+0x720>
 80038b0:	f44f 73fa 	mov.w	r3, #500	; 0x1f4
 80038b4:	8003      	strh	r3, [r0, #0]
 80038b6:	e7e3      	b.n	8003880 <keyb_proc+0x700>
 80038b8:	4b0f      	ldr	r3, [pc, #60]	; (80038f8 <keyb_proc+0x778>)
 80038ba:	2200      	movs	r2, #0
 80038bc:	801a      	strh	r2, [r3, #0]
 80038be:	e6f0      	b.n	80036a2 <keyb_proc+0x522>
 80038c0:	f5b1 7f16 	cmp.w	r1, #600	; 0x258
 80038c4:	d91e      	bls.n	8003904 <keyb_proc+0x784>
 80038c6:	f44f 71fa 	mov.w	r1, #500	; 0x1f4
 80038ca:	8019      	strh	r1, [r3, #0]
 80038cc:	e725      	b.n	800371a <keyb_proc+0x59a>
 80038ce:	bf00      	nop
 80038d0:	200002a8 	.word	0x200002a8
 80038d4:	200002a9 	.word	0x200002a9
 80038d8:	200002a6 	.word	0x200002a6
 80038dc:	200002b9 	.word	0x200002b9
 80038e0:	200002ba 	.word	0x200002ba
 80038e4:	200002b4 	.word	0x200002b4
 80038e8:	200002b6 	.word	0x200002b6
 80038ec:	200002b8 	.word	0x200002b8
 80038f0:	200002e8 	.word	0x200002e8
 80038f4:	20000270 	.word	0x20000270
 80038f8:	200002a4 	.word	0x200002a4
 80038fc:	2900      	cmp	r1, #0
 80038fe:	f040 82f3 	bne.w	8003ee8 <keyb_proc+0xd68>
 8003902:	7001      	strb	r1, [r0, #0]
 8003904:	881a      	ldrh	r2, [r3, #0]
 8003906:	3201      	adds	r2, #1
 8003908:	801a      	strh	r2, [r3, #0]
 800390a:	4baa      	ldr	r3, [pc, #680]	; (8003bb4 <keyb_proc+0xa34>)
 800390c:	781a      	ldrb	r2, [r3, #0]
 800390e:	f042 0201 	orr.w	r2, r2, #1
 8003912:	701a      	strb	r2, [r3, #0]
 8003914:	781a      	ldrb	r2, [r3, #0]
 8003916:	f042 0202 	orr.w	r2, r2, #2
 800391a:	701a      	strb	r2, [r3, #0]
 800391c:	4ba6      	ldr	r3, [pc, #664]	; (8003bb8 <keyb_proc+0xa38>)
 800391e:	781a      	ldrb	r2, [r3, #0]
 8003920:	2a04      	cmp	r2, #4
 8003922:	d008      	beq.n	8003936 <keyb_proc+0x7b6>
 8003924:	781a      	ldrb	r2, [r3, #0]
 8003926:	2a05      	cmp	r2, #5
 8003928:	d005      	beq.n	8003936 <keyb_proc+0x7b6>
 800392a:	781a      	ldrb	r2, [r3, #0]
 800392c:	2a06      	cmp	r2, #6
 800392e:	d002      	beq.n	8003936 <keyb_proc+0x7b6>
 8003930:	781b      	ldrb	r3, [r3, #0]
 8003932:	2b07      	cmp	r3, #7
 8003934:	d117      	bne.n	8003966 <keyb_proc+0x7e6>
 8003936:	f8df a2c8 	ldr.w	sl, [pc, #712]	; 8003c00 <keyb_proc+0xa80>
 800393a:	48a0      	ldr	r0, [pc, #640]	; (8003bbc <keyb_proc+0xa3c>)
 800393c:	f89a 3000 	ldrb.w	r3, [sl]
 8003940:	8802      	ldrh	r2, [r0, #0]
 8003942:	455b      	cmp	r3, fp
 8003944:	4601      	mov	r1, r0
 8003946:	f080 830d 	bcs.w	8003f64 <keyb_proc+0xde4>
 800394a:	2a00      	cmp	r2, #0
 800394c:	f040 82d5 	bne.w	8003efa <keyb_proc+0xd7a>
 8003950:	3301      	adds	r3, #1
 8003952:	f88a 3000 	strb.w	r3, [sl]
 8003956:	880b      	ldrh	r3, [r1, #0]
 8003958:	3301      	adds	r3, #1
 800395a:	800b      	strh	r3, [r1, #0]
 800395c:	4a95      	ldr	r2, [pc, #596]	; (8003bb4 <keyb_proc+0xa34>)
 800395e:	7813      	ldrb	r3, [r2, #0]
 8003960:	f043 0302 	orr.w	r3, r3, #2
 8003964:	7013      	strb	r3, [r2, #0]
 8003966:	4b96      	ldr	r3, [pc, #600]	; (8003bc0 <keyb_proc+0xa40>)
 8003968:	2201      	movs	r2, #1
 800396a:	701a      	strb	r2, [r3, #0]
 800396c:	4b95      	ldr	r3, [pc, #596]	; (8003bc4 <keyb_proc+0xa44>)
 800396e:	781a      	ldrb	r2, [r3, #0]
 8003970:	797b      	ldrb	r3, [r7, #5]
 8003972:	b992      	cbnz	r2, 800399a <keyb_proc+0x81a>
 8003974:	f013 0104 	ands.w	r1, r3, #4
 8003978:	d103      	bne.n	8003982 <keyb_proc+0x802>
 800397a:	4a8f      	ldr	r2, [pc, #572]	; (8003bb8 <keyb_proc+0xa38>)
 800397c:	7810      	ldrb	r0, [r2, #0]
 800397e:	b100      	cbz	r0, 8003982 <keyb_proc+0x802>
 8003980:	7011      	strb	r1, [r2, #0]
 8003982:	793a      	ldrb	r2, [r7, #4]
 8003984:	f012 0240 	ands.w	r2, r2, #64	; 0x40
 8003988:	d107      	bne.n	800399a <keyb_proc+0x81a>
 800398a:	498b      	ldr	r1, [pc, #556]	; (8003bb8 <keyb_proc+0xa38>)
 800398c:	7808      	ldrb	r0, [r1, #0]
 800398e:	2801      	cmp	r0, #1
 8003990:	bf1f      	itttt	ne
 8003992:	2001      	movne	r0, #1
 8003994:	7008      	strbne	r0, [r1, #0]
 8003996:	498a      	ldrne	r1, [pc, #552]	; (8003bc0 <keyb_proc+0xa40>)
 8003998:	700a      	strbne	r2, [r1, #0]
 800399a:	f013 0302 	ands.w	r3, r3, #2
 800399e:	d119      	bne.n	80039d4 <keyb_proc+0x854>
 80039a0:	4a89      	ldr	r2, [pc, #548]	; (8003bc8 <keyb_proc+0xa48>)
 80039a2:	7811      	ldrb	r1, [r2, #0]
 80039a4:	2901      	cmp	r1, #1
 80039a6:	d015      	beq.n	80039d4 <keyb_proc+0x854>
 80039a8:	4988      	ldr	r1, [pc, #544]	; (8003bcc <keyb_proc+0xa4c>)
 80039aa:	700b      	strb	r3, [r1, #0]
 80039ac:	4b81      	ldr	r3, [pc, #516]	; (8003bb4 <keyb_proc+0xa34>)
 80039ae:	7819      	ldrb	r1, [r3, #0]
 80039b0:	f041 0101 	orr.w	r1, r1, #1
 80039b4:	7019      	strb	r1, [r3, #0]
 80039b6:	7819      	ldrb	r1, [r3, #0]
 80039b8:	f041 0102 	orr.w	r1, r1, #2
 80039bc:	7019      	strb	r1, [r3, #0]
 80039be:	7813      	ldrb	r3, [r2, #0]
 80039c0:	2b04      	cmp	r3, #4
 80039c2:	d002      	beq.n	80039ca <keyb_proc+0x84a>
 80039c4:	7813      	ldrb	r3, [r2, #0]
 80039c6:	2b05      	cmp	r3, #5
 80039c8:	d104      	bne.n	80039d4 <keyb_proc+0x854>
 80039ca:	4b81      	ldr	r3, [pc, #516]	; (8003bd0 <keyb_proc+0xa50>)
 80039cc:	4a7e      	ldr	r2, [pc, #504]	; (8003bc8 <keyb_proc+0xa48>)
 80039ce:	781b      	ldrb	r3, [r3, #0]
 80039d0:	b2db      	uxtb	r3, r3
 80039d2:	7013      	strb	r3, [r2, #0]
 80039d4:	793a      	ldrb	r2, [r7, #4]
 80039d6:	f012 0020 	ands.w	r0, r2, #32
 80039da:	d119      	bne.n	8003a10 <keyb_proc+0x890>
 80039dc:	497d      	ldr	r1, [pc, #500]	; (8003bd4 <keyb_proc+0xa54>)
 80039de:	780b      	ldrb	r3, [r1, #0]
 80039e0:	2b01      	cmp	r3, #1
 80039e2:	d015      	beq.n	8003a10 <keyb_proc+0x890>
 80039e4:	4b7c      	ldr	r3, [pc, #496]	; (8003bd8 <keyb_proc+0xa58>)
 80039e6:	7018      	strb	r0, [r3, #0]
 80039e8:	4b72      	ldr	r3, [pc, #456]	; (8003bb4 <keyb_proc+0xa34>)
 80039ea:	7818      	ldrb	r0, [r3, #0]
 80039ec:	f040 0001 	orr.w	r0, r0, #1
 80039f0:	7018      	strb	r0, [r3, #0]
 80039f2:	7818      	ldrb	r0, [r3, #0]
 80039f4:	f040 0002 	orr.w	r0, r0, #2
 80039f8:	7018      	strb	r0, [r3, #0]
 80039fa:	780b      	ldrb	r3, [r1, #0]
 80039fc:	2b04      	cmp	r3, #4
 80039fe:	d002      	beq.n	8003a06 <keyb_proc+0x886>
 8003a00:	780b      	ldrb	r3, [r1, #0]
 8003a02:	2b05      	cmp	r3, #5
 8003a04:	d104      	bne.n	8003a10 <keyb_proc+0x890>
 8003a06:	4b75      	ldr	r3, [pc, #468]	; (8003bdc <keyb_proc+0xa5c>)
 8003a08:	4972      	ldr	r1, [pc, #456]	; (8003bd4 <keyb_proc+0xa54>)
 8003a0a:	781b      	ldrb	r3, [r3, #0]
 8003a0c:	b2db      	uxtb	r3, r3
 8003a0e:	700b      	strb	r3, [r1, #0]
 8003a10:	06d2      	lsls	r2, r2, #27
 8003a12:	d540      	bpl.n	8003a96 <keyb_proc+0x916>
 8003a14:	4b72      	ldr	r3, [pc, #456]	; (8003be0 <keyb_proc+0xa60>)
 8003a16:	781a      	ldrb	r2, [r3, #0]
 8003a18:	2a00      	cmp	r2, #0
 8003a1a:	d13c      	bne.n	8003a96 <keyb_proc+0x916>
 8003a1c:	2201      	movs	r2, #1
 8003a1e:	701a      	strb	r2, [r3, #0]
 8003a20:	4b70      	ldr	r3, [pc, #448]	; (8003be4 <keyb_proc+0xa64>)
 8003a22:	4a6a      	ldr	r2, [pc, #424]	; (8003bcc <keyb_proc+0xa4c>)
 8003a24:	781b      	ldrb	r3, [r3, #0]
 8003a26:	3b01      	subs	r3, #1
 8003a28:	b2db      	uxtb	r3, r3
 8003a2a:	7013      	strb	r3, [r2, #0]
 8003a2c:	4b62      	ldr	r3, [pc, #392]	; (8003bb8 <keyb_proc+0xa38>)
 8003a2e:	781b      	ldrb	r3, [r3, #0]
 8003a30:	b943      	cbnz	r3, 8003a44 <keyb_proc+0x8c4>
 8003a32:	4b60      	ldr	r3, [pc, #384]	; (8003bb4 <keyb_proc+0xa34>)
 8003a34:	781a      	ldrb	r2, [r3, #0]
 8003a36:	f042 0201 	orr.w	r2, r2, #1
 8003a3a:	701a      	strb	r2, [r3, #0]
 8003a3c:	781a      	ldrb	r2, [r3, #0]
 8003a3e:	f042 0202 	orr.w	r2, r2, #2
 8003a42:	701a      	strb	r2, [r3, #0]
 8003a44:	f44f 7100 	mov.w	r1, #512	; 0x200
 8003a48:	4867      	ldr	r0, [pc, #412]	; (8003be8 <keyb_proc+0xa68>)
 8003a4a:	f7fd f96a 	bl	8000d22 <GPIO_ResetBits>
 8003a4e:	495f      	ldr	r1, [pc, #380]	; (8003bcc <keyb_proc+0xa4c>)
 8003a50:	4b66      	ldr	r3, [pc, #408]	; (8003bec <keyb_proc+0xa6c>)
 8003a52:	780a      	ldrb	r2, [r1, #0]
 8003a54:	eb03 02c2 	add.w	r2, r3, r2, lsl #3
 8003a58:	468a      	mov	sl, r1
 8003a5a:	6852      	ldr	r2, [r2, #4]
 8003a5c:	f412 6f00 	tst.w	r2, #2048	; 0x800
 8003a60:	469b      	mov	fp, r3
 8003a62:	d004      	beq.n	8003a6e <keyb_proc+0x8ee>
 8003a64:	f44f 6100 	mov.w	r1, #2048	; 0x800
 8003a68:	485f      	ldr	r0, [pc, #380]	; (8003be8 <keyb_proc+0xa68>)
 8003a6a:	f7fd f95a 	bl	8000d22 <GPIO_ResetBits>
 8003a6e:	f89a 3000 	ldrb.w	r3, [sl]
 8003a72:	eb0b 03c3 	add.w	r3, fp, r3, lsl #3
 8003a76:	685b      	ldr	r3, [r3, #4]
 8003a78:	04db      	lsls	r3, r3, #19
 8003a7a:	d504      	bpl.n	8003a86 <keyb_proc+0x906>
 8003a7c:	f44f 6180 	mov.w	r1, #1024	; 0x400
 8003a80:	4859      	ldr	r0, [pc, #356]	; (8003be8 <keyb_proc+0xa68>)
 8003a82:	f7fd f94e 	bl	8000d22 <GPIO_ResetBits>
 8003a86:	2101      	movs	r1, #1
 8003a88:	4859      	ldr	r0, [pc, #356]	; (8003bf0 <keyb_proc+0xa70>)
 8003a8a:	f7fd faf0 	bl	800106e <TIM_Cmd>
 8003a8e:	2100      	movs	r1, #0
 8003a90:	4857      	ldr	r0, [pc, #348]	; (8003bf0 <keyb_proc+0xa70>)
 8003a92:	f7fd fadf 	bl	8001054 <TIM_SetCounter>
 8003a96:	793b      	ldrb	r3, [r7, #4]
 8003a98:	f013 0310 	ands.w	r3, r3, #16
 8003a9c:	bf04      	itt	eq
 8003a9e:	4a50      	ldreq	r2, [pc, #320]	; (8003be0 <keyb_proc+0xa60>)
 8003aa0:	7013      	strbeq	r3, [r2, #0]
 8003aa2:	797b      	ldrb	r3, [r7, #5]
 8003aa4:	06d8      	lsls	r0, r3, #27
 8003aa6:	d43a      	bmi.n	8003b1e <keyb_proc+0x99e>
 8003aa8:	4b4e      	ldr	r3, [pc, #312]	; (8003be4 <keyb_proc+0xa64>)
 8003aaa:	4a48      	ldr	r2, [pc, #288]	; (8003bcc <keyb_proc+0xa4c>)
 8003aac:	781b      	ldrb	r3, [r3, #0]
 8003aae:	3b01      	subs	r3, #1
 8003ab0:	b2db      	uxtb	r3, r3
 8003ab2:	7013      	strb	r3, [r2, #0]
 8003ab4:	4b40      	ldr	r3, [pc, #256]	; (8003bb8 <keyb_proc+0xa38>)
 8003ab6:	781b      	ldrb	r3, [r3, #0]
 8003ab8:	b943      	cbnz	r3, 8003acc <keyb_proc+0x94c>
 8003aba:	4b3e      	ldr	r3, [pc, #248]	; (8003bb4 <keyb_proc+0xa34>)
 8003abc:	781a      	ldrb	r2, [r3, #0]
 8003abe:	f042 0201 	orr.w	r2, r2, #1
 8003ac2:	701a      	strb	r2, [r3, #0]
 8003ac4:	781a      	ldrb	r2, [r3, #0]
 8003ac6:	f042 0202 	orr.w	r2, r2, #2
 8003aca:	701a      	strb	r2, [r3, #0]
 8003acc:	f44f 7100 	mov.w	r1, #512	; 0x200
 8003ad0:	4845      	ldr	r0, [pc, #276]	; (8003be8 <keyb_proc+0xa68>)
 8003ad2:	f7fd f926 	bl	8000d22 <GPIO_ResetBits>
 8003ad6:	493d      	ldr	r1, [pc, #244]	; (8003bcc <keyb_proc+0xa4c>)
 8003ad8:	4b44      	ldr	r3, [pc, #272]	; (8003bec <keyb_proc+0xa6c>)
 8003ada:	780a      	ldrb	r2, [r1, #0]
 8003adc:	eb03 02c2 	add.w	r2, r3, r2, lsl #3
 8003ae0:	468a      	mov	sl, r1
 8003ae2:	6852      	ldr	r2, [r2, #4]
 8003ae4:	f412 6f00 	tst.w	r2, #2048	; 0x800
 8003ae8:	469b      	mov	fp, r3
 8003aea:	d004      	beq.n	8003af6 <keyb_proc+0x976>
 8003aec:	f44f 6100 	mov.w	r1, #2048	; 0x800
 8003af0:	483d      	ldr	r0, [pc, #244]	; (8003be8 <keyb_proc+0xa68>)
 8003af2:	f7fd f916 	bl	8000d22 <GPIO_ResetBits>
 8003af6:	f89a 3000 	ldrb.w	r3, [sl]
 8003afa:	eb0b 03c3 	add.w	r3, fp, r3, lsl #3
 8003afe:	685b      	ldr	r3, [r3, #4]
 8003b00:	04d9      	lsls	r1, r3, #19
 8003b02:	d504      	bpl.n	8003b0e <keyb_proc+0x98e>
 8003b04:	f44f 6180 	mov.w	r1, #1024	; 0x400
 8003b08:	4837      	ldr	r0, [pc, #220]	; (8003be8 <keyb_proc+0xa68>)
 8003b0a:	f7fd f90a 	bl	8000d22 <GPIO_ResetBits>
 8003b0e:	2101      	movs	r1, #1
 8003b10:	4837      	ldr	r0, [pc, #220]	; (8003bf0 <keyb_proc+0xa70>)
 8003b12:	f7fd faac 	bl	800106e <TIM_Cmd>
 8003b16:	2100      	movs	r1, #0
 8003b18:	4835      	ldr	r0, [pc, #212]	; (8003bf0 <keyb_proc+0xa70>)
 8003b1a:	f7fd fa9b 	bl	8001054 <TIM_SetCounter>
 8003b1e:	78fb      	ldrb	r3, [r7, #3]
 8003b20:	071a      	lsls	r2, r3, #28
 8003b22:	d53f      	bpl.n	8003ba4 <keyb_proc+0xa24>
 8003b24:	4b33      	ldr	r3, [pc, #204]	; (8003bf4 <keyb_proc+0xa74>)
 8003b26:	781a      	ldrb	r2, [r3, #0]
 8003b28:	2a00      	cmp	r2, #0
 8003b2a:	d13b      	bne.n	8003ba4 <keyb_proc+0xa24>
 8003b2c:	2201      	movs	r2, #1
 8003b2e:	701a      	strb	r2, [r3, #0]
 8003b30:	4b2c      	ldr	r3, [pc, #176]	; (8003be4 <keyb_proc+0xa64>)
 8003b32:	4a29      	ldr	r2, [pc, #164]	; (8003bd8 <keyb_proc+0xa58>)
 8003b34:	785b      	ldrb	r3, [r3, #1]
 8003b36:	3b01      	subs	r3, #1
 8003b38:	b2db      	uxtb	r3, r3
 8003b3a:	7013      	strb	r3, [r2, #0]
 8003b3c:	4b1e      	ldr	r3, [pc, #120]	; (8003bb8 <keyb_proc+0xa38>)
 8003b3e:	781b      	ldrb	r3, [r3, #0]
 8003b40:	2b01      	cmp	r3, #1
 8003b42:	d108      	bne.n	8003b56 <keyb_proc+0x9d6>
 8003b44:	4b1b      	ldr	r3, [pc, #108]	; (8003bb4 <keyb_proc+0xa34>)
 8003b46:	781a      	ldrb	r2, [r3, #0]
 8003b48:	f042 0201 	orr.w	r2, r2, #1
 8003b4c:	701a      	strb	r2, [r3, #0]
 8003b4e:	781a      	ldrb	r2, [r3, #0]
 8003b50:	f042 0202 	orr.w	r2, r2, #2
 8003b54:	701a      	strb	r2, [r3, #0]
 8003b56:	2104      	movs	r1, #4
 8003b58:	4827      	ldr	r0, [pc, #156]	; (8003bf8 <keyb_proc+0xa78>)
 8003b5a:	f7fd f8e2 	bl	8000d22 <GPIO_ResetBits>
 8003b5e:	491b      	ldr	r1, [pc, #108]	; (8003bcc <keyb_proc+0xa4c>)
 8003b60:	4b22      	ldr	r3, [pc, #136]	; (8003bec <keyb_proc+0xa6c>)
 8003b62:	780a      	ldrb	r2, [r1, #0]
 8003b64:	eb03 02c2 	add.w	r2, r3, r2, lsl #3
 8003b68:	468a      	mov	sl, r1
 8003b6a:	6852      	ldr	r2, [r2, #4]
 8003b6c:	f412 6f00 	tst.w	r2, #2048	; 0x800
 8003b70:	469b      	mov	fp, r3
 8003b72:	d003      	beq.n	8003b7c <keyb_proc+0x9fc>
 8003b74:	2108      	movs	r1, #8
 8003b76:	4820      	ldr	r0, [pc, #128]	; (8003bf8 <keyb_proc+0xa78>)
 8003b78:	f7fd f8d3 	bl	8000d22 <GPIO_ResetBits>
 8003b7c:	f89a 3000 	ldrb.w	r3, [sl]
 8003b80:	eb0b 03c3 	add.w	r3, fp, r3, lsl #3
 8003b84:	685b      	ldr	r3, [r3, #4]
 8003b86:	04db      	lsls	r3, r3, #19
 8003b88:	d504      	bpl.n	8003b94 <keyb_proc+0xa14>
 8003b8a:	f44f 5180 	mov.w	r1, #4096	; 0x1000
 8003b8e:	481a      	ldr	r0, [pc, #104]	; (8003bf8 <keyb_proc+0xa78>)
 8003b90:	f7fd f8c7 	bl	8000d22 <GPIO_ResetBits>
 8003b94:	2101      	movs	r1, #1
 8003b96:	4819      	ldr	r0, [pc, #100]	; (8003bfc <keyb_proc+0xa7c>)
 8003b98:	f7fd fa69 	bl	800106e <TIM_Cmd>
 8003b9c:	2100      	movs	r1, #0
 8003b9e:	4817      	ldr	r0, [pc, #92]	; (8003bfc <keyb_proc+0xa7c>)
 8003ba0:	f7fd fa58 	bl	8001054 <TIM_SetCounter>
 8003ba4:	78fb      	ldrb	r3, [r7, #3]
 8003ba6:	f013 0108 	ands.w	r1, r3, #8
 8003baa:	bf04      	itt	eq
 8003bac:	4a11      	ldreq	r2, [pc, #68]	; (8003bf4 <keyb_proc+0xa74>)
 8003bae:	7011      	strbeq	r1, [r2, #0]
 8003bb0:	e028      	b.n	8003c04 <keyb_proc+0xa84>
 8003bb2:	bf00      	nop
 8003bb4:	200002e8 	.word	0x200002e8
 8003bb8:	200002a8 	.word	0x200002a8
 8003bbc:	200002a6 	.word	0x200002a6
 8003bc0:	200002c4 	.word	0x200002c4
 8003bc4:	200002b4 	.word	0x200002b4
 8003bc8:	200002b9 	.word	0x200002b9
 8003bcc:	200002b7 	.word	0x200002b7
 8003bd0:	200002b5 	.word	0x200002b5
 8003bd4:	200002ba 	.word	0x200002ba
 8003bd8:	200002b8 	.word	0x200002b8
 8003bdc:	200002b6 	.word	0x200002b6
 8003be0:	200002d0 	.word	0x200002d0
 8003be4:	20000271 	.word	0x20000271
 8003be8:	40020400 	.word	0x40020400
 8003bec:	20000898 	.word	0x20000898
 8003bf0:	40002000 	.word	0x40002000
 8003bf4:	200002d1 	.word	0x200002d1
 8003bf8:	40020000 	.word	0x40020000
 8003bfc:	40010400 	.word	0x40010400
 8003c00:	200002a9 	.word	0x200002a9
 8003c04:	0798      	lsls	r0, r3, #30
 8003c06:	d43c      	bmi.n	8003c82 <keyb_proc+0xb02>
 8003c08:	4bc0      	ldr	r3, [pc, #768]	; (8003f0c <keyb_proc+0xd8c>)
 8003c0a:	4ac1      	ldr	r2, [pc, #772]	; (8003f10 <keyb_proc+0xd90>)
 8003c0c:	785b      	ldrb	r3, [r3, #1]
 8003c0e:	3b01      	subs	r3, #1
 8003c10:	b2db      	uxtb	r3, r3
 8003c12:	7013      	strb	r3, [r2, #0]
 8003c14:	4bbf      	ldr	r3, [pc, #764]	; (8003f14 <keyb_proc+0xd94>)
 8003c16:	781b      	ldrb	r3, [r3, #0]
 8003c18:	2b01      	cmp	r3, #1
 8003c1a:	d108      	bne.n	8003c2e <keyb_proc+0xaae>
 8003c1c:	4bbe      	ldr	r3, [pc, #760]	; (8003f18 <keyb_proc+0xd98>)
 8003c1e:	781a      	ldrb	r2, [r3, #0]
 8003c20:	f042 0201 	orr.w	r2, r2, #1
 8003c24:	701a      	strb	r2, [r3, #0]
 8003c26:	781a      	ldrb	r2, [r3, #0]
 8003c28:	f042 0202 	orr.w	r2, r2, #2
 8003c2c:	701a      	strb	r2, [r3, #0]
 8003c2e:	2104      	movs	r1, #4
 8003c30:	48ba      	ldr	r0, [pc, #744]	; (8003f1c <keyb_proc+0xd9c>)
 8003c32:	f7fd f876 	bl	8000d22 <GPIO_ResetBits>
 8003c36:	4ab6      	ldr	r2, [pc, #728]	; (8003f10 <keyb_proc+0xd90>)
 8003c38:	49b9      	ldr	r1, [pc, #740]	; (8003f20 <keyb_proc+0xda0>)
 8003c3a:	7813      	ldrb	r3, [r2, #0]
 8003c3c:	3320      	adds	r3, #32
 8003c3e:	eb01 03c3 	add.w	r3, r1, r3, lsl #3
 8003c42:	4693      	mov	fp, r2
 8003c44:	685b      	ldr	r3, [r3, #4]
 8003c46:	f413 6f00 	tst.w	r3, #2048	; 0x800
 8003c4a:	468a      	mov	sl, r1
 8003c4c:	d003      	beq.n	8003c56 <keyb_proc+0xad6>
 8003c4e:	2108      	movs	r1, #8
 8003c50:	48b2      	ldr	r0, [pc, #712]	; (8003f1c <keyb_proc+0xd9c>)
 8003c52:	f7fd f866 	bl	8000d22 <GPIO_ResetBits>
 8003c56:	f89b 3000 	ldrb.w	r3, [fp]
 8003c5a:	3320      	adds	r3, #32
 8003c5c:	eb0a 0ac3 	add.w	sl, sl, r3, lsl #3
 8003c60:	f8da 3004 	ldr.w	r3, [sl, #4]
 8003c64:	04d9      	lsls	r1, r3, #19
 8003c66:	d504      	bpl.n	8003c72 <keyb_proc+0xaf2>
 8003c68:	f44f 5180 	mov.w	r1, #4096	; 0x1000
 8003c6c:	48ab      	ldr	r0, [pc, #684]	; (8003f1c <keyb_proc+0xd9c>)
 8003c6e:	f7fd f858 	bl	8000d22 <GPIO_ResetBits>
 8003c72:	2101      	movs	r1, #1
 8003c74:	48ab      	ldr	r0, [pc, #684]	; (8003f24 <keyb_proc+0xda4>)
 8003c76:	f7fd f9fa 	bl	800106e <TIM_Cmd>
 8003c7a:	2100      	movs	r1, #0
 8003c7c:	48a9      	ldr	r0, [pc, #676]	; (8003f24 <keyb_proc+0xda4>)
 8003c7e:	f7fd f9e9 	bl	8001054 <TIM_SetCounter>
 8003c82:	7979      	ldrb	r1, [r7, #5]
 8003c84:	4ba8      	ldr	r3, [pc, #672]	; (8003f28 <keyb_proc+0xda8>)
 8003c86:	f011 0020 	ands.w	r0, r1, #32
 8003c8a:	781a      	ldrb	r2, [r3, #0]
 8003c8c:	f040 818a 	bne.w	8003fa4 <keyb_proc+0xe24>
 8003c90:	2a01      	cmp	r2, #1
 8003c92:	d00e      	beq.n	8003cb2 <keyb_proc+0xb32>
 8003c94:	781a      	ldrb	r2, [r3, #0]
 8003c96:	f8df c2c4 	ldr.w	ip, [pc, #708]	; 8003f5c <keyb_proc+0xddc>
 8003c9a:	b2d2      	uxtb	r2, r2
 8003c9c:	f88c 2000 	strb.w	r2, [ip]
 8003ca0:	2201      	movs	r2, #1
 8003ca2:	701a      	strb	r2, [r3, #0]
 8003ca4:	4a9c      	ldr	r2, [pc, #624]	; (8003f18 <keyb_proc+0xd98>)
 8003ca6:	7813      	ldrb	r3, [r2, #0]
 8003ca8:	f043 0301 	orr.w	r3, r3, #1
 8003cac:	7013      	strb	r3, [r2, #0]
 8003cae:	4b9f      	ldr	r3, [pc, #636]	; (8003f2c <keyb_proc+0xdac>)
 8003cb0:	7018      	strb	r0, [r3, #0]
 8003cb2:	78fa      	ldrb	r2, [r7, #3]
 8003cb4:	4b9e      	ldr	r3, [pc, #632]	; (8003f30 <keyb_proc+0xdb0>)
 8003cb6:	f012 0204 	ands.w	r2, r2, #4
 8003cba:	f040 8187 	bne.w	8003fcc <keyb_proc+0xe4c>
 8003cbe:	7818      	ldrb	r0, [r3, #0]
 8003cc0:	2801      	cmp	r0, #1
 8003cc2:	d00e      	beq.n	8003ce2 <keyb_proc+0xb62>
 8003cc4:	7818      	ldrb	r0, [r3, #0]
 8003cc6:	f8df c298 	ldr.w	ip, [pc, #664]	; 8003f60 <keyb_proc+0xde0>
 8003cca:	b2c0      	uxtb	r0, r0
 8003ccc:	f88c 0000 	strb.w	r0, [ip]
 8003cd0:	2001      	movs	r0, #1
 8003cd2:	7018      	strb	r0, [r3, #0]
 8003cd4:	4890      	ldr	r0, [pc, #576]	; (8003f18 <keyb_proc+0xd98>)
 8003cd6:	7803      	ldrb	r3, [r0, #0]
 8003cd8:	f043 0301 	orr.w	r3, r3, #1
 8003cdc:	7003      	strb	r3, [r0, #0]
 8003cde:	4b93      	ldr	r3, [pc, #588]	; (8003f2c <keyb_proc+0xdac>)
 8003ce0:	701a      	strb	r2, [r3, #0]
 8003ce2:	f011 0f01 	tst.w	r1, #1
 8003ce6:	4a93      	ldr	r2, [pc, #588]	; (8003f34 <keyb_proc+0xdb4>)
 8003ce8:	f040 8198 	bne.w	800401c <keyb_proc+0xe9c>
 8003cec:	7813      	ldrb	r3, [r2, #0]
 8003cee:	3301      	adds	r3, #1
 8003cf0:	b2db      	uxtb	r3, r3
 8003cf2:	7013      	strb	r3, [r2, #0]
 8003cf4:	4b8c      	ldr	r3, [pc, #560]	; (8003f28 <keyb_proc+0xda8>)
 8003cf6:	781a      	ldrb	r2, [r3, #0]
 8003cf8:	2a01      	cmp	r2, #1
 8003cfa:	d044      	beq.n	8003d86 <keyb_proc+0xc06>
 8003cfc:	781a      	ldrb	r2, [r3, #0]
 8003cfe:	f002 0aff 	and.w	sl, r2, #255	; 0xff
 8003d02:	2a00      	cmp	r2, #0
 8003d04:	f040 8176 	bne.w	8003ff4 <keyb_proc+0xe74>
 8003d08:	f8df b238 	ldr.w	fp, [pc, #568]	; 8003f44 <keyb_proc+0xdc4>
 8003d0c:	4650      	mov	r0, sl
 8003d0e:	f89b 1000 	ldrb.w	r1, [fp]
 8003d12:	f7fe fa49 	bl	80021a8 <GetStepVoltage>
 8003d16:	4b88      	ldr	r3, [pc, #544]	; (8003f38 <keyb_proc+0xdb8>)
 8003d18:	6018      	str	r0, [r3, #0]
 8003d1a:	f89b 1000 	ldrb.w	r1, [fp]
 8003d1e:	4650      	mov	r0, sl
 8003d20:	f7fe fb56 	bl	80023d0 <GetNextStep>
 8003d24:	4b85      	ldr	r3, [pc, #532]	; (8003f3c <keyb_proc+0xdbc>)
 8003d26:	f88b 0000 	strb.w	r0, [fp]
 8003d2a:	f8c3 a000 	str.w	sl, [r3]
 8003d2e:	4b7e      	ldr	r3, [pc, #504]	; (8003f28 <keyb_proc+0xda8>)
 8003d30:	4883      	ldr	r0, [pc, #524]	; (8003f40 <keyb_proc+0xdc0>)
 8003d32:	2202      	movs	r2, #2
 8003d34:	f44f 7100 	mov.w	r1, #512	; 0x200
 8003d38:	701a      	strb	r2, [r3, #0]
 8003d3a:	f7fc fff2 	bl	8000d22 <GPIO_ResetBits>
 8003d3e:	4981      	ldr	r1, [pc, #516]	; (8003f44 <keyb_proc+0xdc4>)
 8003d40:	4b77      	ldr	r3, [pc, #476]	; (8003f20 <keyb_proc+0xda0>)
 8003d42:	780a      	ldrb	r2, [r1, #0]
 8003d44:	eb03 02c2 	add.w	r2, r3, r2, lsl #3
 8003d48:	468a      	mov	sl, r1
 8003d4a:	6852      	ldr	r2, [r2, #4]
 8003d4c:	f412 6f00 	tst.w	r2, #2048	; 0x800
 8003d50:	469b      	mov	fp, r3
 8003d52:	d004      	beq.n	8003d5e <keyb_proc+0xbde>
 8003d54:	f44f 6100 	mov.w	r1, #2048	; 0x800
 8003d58:	4879      	ldr	r0, [pc, #484]	; (8003f40 <keyb_proc+0xdc0>)
 8003d5a:	f7fc ffe2 	bl	8000d22 <GPIO_ResetBits>
 8003d5e:	f89a 3000 	ldrb.w	r3, [sl]
 8003d62:	eb0b 03c3 	add.w	r3, fp, r3, lsl #3
 8003d66:	685b      	ldr	r3, [r3, #4]
 8003d68:	04da      	lsls	r2, r3, #19
 8003d6a:	d504      	bpl.n	8003d76 <keyb_proc+0xbf6>
 8003d6c:	f44f 6180 	mov.w	r1, #1024	; 0x400
 8003d70:	4873      	ldr	r0, [pc, #460]	; (8003f40 <keyb_proc+0xdc0>)
 8003d72:	f7fc ffd6 	bl	8000d22 <GPIO_ResetBits>
 8003d76:	2101      	movs	r1, #1
 8003d78:	4873      	ldr	r0, [pc, #460]	; (8003f48 <keyb_proc+0xdc8>)
 8003d7a:	f7fd f978 	bl	800106e <TIM_Cmd>
 8003d7e:	2100      	movs	r1, #0
 8003d80:	4871      	ldr	r0, [pc, #452]	; (8003f48 <keyb_proc+0xdc8>)
 8003d82:	f7fd f967 	bl	8001054 <TIM_SetCounter>
 8003d86:	797b      	ldrb	r3, [r7, #5]
 8003d88:	4a70      	ldr	r2, [pc, #448]	; (8003f4c <keyb_proc+0xdcc>)
 8003d8a:	f013 0f08 	tst.w	r3, #8
 8003d8e:	f040 8159 	bne.w	8004044 <keyb_proc+0xec4>
 8003d92:	7813      	ldrb	r3, [r2, #0]
 8003d94:	3301      	adds	r3, #1
 8003d96:	b2db      	uxtb	r3, r3
 8003d98:	7013      	strb	r3, [r2, #0]
 8003d9a:	4b65      	ldr	r3, [pc, #404]	; (8003f30 <keyb_proc+0xdb0>)
 8003d9c:	781a      	ldrb	r2, [r3, #0]
 8003d9e:	2a01      	cmp	r2, #1
 8003da0:	d042      	beq.n	8003e28 <keyb_proc+0xca8>
 8003da2:	781a      	ldrb	r2, [r3, #0]
 8003da4:	f002 07ff 	and.w	r7, r2, #255	; 0xff
 8003da8:	2a00      	cmp	r2, #0
 8003daa:	f040 813a 	bne.w	8004022 <keyb_proc+0xea2>
 8003dae:	f8df a160 	ldr.w	sl, [pc, #352]	; 8003f10 <keyb_proc+0xd90>
 8003db2:	2001      	movs	r0, #1
 8003db4:	f89a 1000 	ldrb.w	r1, [sl]
 8003db8:	f7fe f9f6 	bl	80021a8 <GetStepVoltage>
 8003dbc:	4b64      	ldr	r3, [pc, #400]	; (8003f50 <keyb_proc+0xdd0>)
 8003dbe:	6018      	str	r0, [r3, #0]
 8003dc0:	f89a 1000 	ldrb.w	r1, [sl]
 8003dc4:	2001      	movs	r0, #1
 8003dc6:	f7fe fb03 	bl	80023d0 <GetNextStep>
 8003dca:	4b62      	ldr	r3, [pc, #392]	; (8003f54 <keyb_proc+0xdd4>)
 8003dcc:	f88a 0000 	strb.w	r0, [sl]
 8003dd0:	601f      	str	r7, [r3, #0]
 8003dd2:	4b57      	ldr	r3, [pc, #348]	; (8003f30 <keyb_proc+0xdb0>)
 8003dd4:	4851      	ldr	r0, [pc, #324]	; (8003f1c <keyb_proc+0xd9c>)
 8003dd6:	4f52      	ldr	r7, [pc, #328]	; (8003f20 <keyb_proc+0xda0>)
 8003dd8:	2202      	movs	r2, #2
 8003dda:	2104      	movs	r1, #4
 8003ddc:	701a      	strb	r2, [r3, #0]
 8003dde:	f7fc ffa0 	bl	8000d22 <GPIO_ResetBits>
 8003de2:	4a4b      	ldr	r2, [pc, #300]	; (8003f10 <keyb_proc+0xd90>)
 8003de4:	7813      	ldrb	r3, [r2, #0]
 8003de6:	3320      	adds	r3, #32
 8003de8:	eb07 03c3 	add.w	r3, r7, r3, lsl #3
 8003dec:	4692      	mov	sl, r2
 8003dee:	685b      	ldr	r3, [r3, #4]
 8003df0:	f413 6f00 	tst.w	r3, #2048	; 0x800
 8003df4:	d003      	beq.n	8003dfe <keyb_proc+0xc7e>
 8003df6:	2108      	movs	r1, #8
 8003df8:	4848      	ldr	r0, [pc, #288]	; (8003f1c <keyb_proc+0xd9c>)
 8003dfa:	f7fc ff92 	bl	8000d22 <GPIO_ResetBits>
 8003dfe:	f89a 3000 	ldrb.w	r3, [sl]
 8003e02:	3320      	adds	r3, #32
 8003e04:	eb07 07c3 	add.w	r7, r7, r3, lsl #3
 8003e08:	687b      	ldr	r3, [r7, #4]
 8003e0a:	04db      	lsls	r3, r3, #19
 8003e0c:	d504      	bpl.n	8003e18 <keyb_proc+0xc98>
 8003e0e:	f44f 5180 	mov.w	r1, #4096	; 0x1000
 8003e12:	4842      	ldr	r0, [pc, #264]	; (8003f1c <keyb_proc+0xd9c>)
 8003e14:	f7fc ff85 	bl	8000d22 <GPIO_ResetBits>
 8003e18:	2101      	movs	r1, #1
 8003e1a:	4842      	ldr	r0, [pc, #264]	; (8003f24 <keyb_proc+0xda4>)
 8003e1c:	f7fd f927 	bl	800106e <TIM_Cmd>
 8003e20:	2100      	movs	r1, #0
 8003e22:	4840      	ldr	r0, [pc, #256]	; (8003f24 <keyb_proc+0xda4>)
 8003e24:	f7fd f916 	bl	8001054 <TIM_SetCounter>
 8003e28:	4b4b      	ldr	r3, [pc, #300]	; (8003f58 <keyb_proc+0xdd8>)
 8003e2a:	781a      	ldrb	r2, [r3, #0]
 8003e2c:	2a00      	cmp	r2, #0
 8003e2e:	f040 810c 	bne.w	800404a <keyb_proc+0xeca>
 8003e32:	f89d 3053 	ldrb.w	r3, [sp, #83]	; 0x53
 8003e36:	9a0c      	ldr	r2, [sp, #48]	; 0x30
 8003e38:	f362 0300 	bfi	r3, r2, #0, #1
 8003e3c:	9a0d      	ldr	r2, [sp, #52]	; 0x34
 8003e3e:	f362 0341 	bfi	r3, r2, #1, #1
 8003e42:	9a04      	ldr	r2, [sp, #16]
 8003e44:	f362 0382 	bfi	r3, r2, #2, #1
 8003e48:	9a0b      	ldr	r2, [sp, #44]	; 0x2c
 8003e4a:	f362 03c3 	bfi	r3, r2, #3, #1
 8003e4e:	9a05      	ldr	r2, [sp, #20]
 8003e50:	f362 1304 	bfi	r3, r2, #4, #1
 8003e54:	9a06      	ldr	r2, [sp, #24]
 8003e56:	f362 1345 	bfi	r3, r2, #5, #1
 8003e5a:	9a07      	ldr	r2, [sp, #28]
 8003e5c:	f362 1386 	bfi	r3, r2, #6, #1
 8003e60:	f366 13c7 	bfi	r3, r6, #7, #1
 8003e64:	f88d 3053 	strb.w	r3, [sp, #83]	; 0x53
 8003e68:	f89d 3054 	ldrb.w	r3, [sp, #84]	; 0x54
 8003e6c:	9a08      	ldr	r2, [sp, #32]
 8003e6e:	f364 0300 	bfi	r3, r4, #0, #1
 8003e72:	f369 0341 	bfi	r3, r9, #1, #1
 8003e76:	f368 0382 	bfi	r3, r8, #2, #1
 8003e7a:	f365 03c3 	bfi	r3, r5, #3, #1
 8003e7e:	f362 1304 	bfi	r3, r2, #4, #1
 8003e82:	9a09      	ldr	r2, [sp, #36]	; 0x24
 8003e84:	f362 1345 	bfi	r3, r2, #5, #1
 8003e88:	9a0e      	ldr	r2, [sp, #56]	; 0x38
 8003e8a:	f362 1386 	bfi	r3, r2, #6, #1
 8003e8e:	9a0f      	ldr	r2, [sp, #60]	; 0x3c
 8003e90:	f362 13c7 	bfi	r3, r2, #7, #1
 8003e94:	f88d 3054 	strb.w	r3, [sp, #84]	; 0x54
 8003e98:	9a0a      	ldr	r2, [sp, #40]	; 0x28
 8003e9a:	f89d 3055 	ldrb.w	r3, [sp, #85]	; 0x55
 8003e9e:	f362 0300 	bfi	r3, r2, #0, #1
 8003ea2:	9a01      	ldr	r2, [sp, #4]
 8003ea4:	f362 0341 	bfi	r3, r2, #1, #1
 8003ea8:	9a10      	ldr	r2, [sp, #64]	; 0x40
 8003eaa:	f362 0382 	bfi	r3, r2, #2, #1
 8003eae:	9a11      	ldr	r2, [sp, #68]	; 0x44
 8003eb0:	f362 03c3 	bfi	r3, r2, #3, #1
 8003eb4:	9a12      	ldr	r2, [sp, #72]	; 0x48
 8003eb6:	f362 1304 	bfi	r3, r2, #4, #1
 8003eba:	f88d 3055 	strb.w	r3, [sp, #85]	; 0x55
 8003ebe:	e9dd 3202 	ldrd	r3, r2, [sp, #8]
 8003ec2:	eb03 1342 	add.w	r3, r3, r2, lsl #5
 8003ec6:	4a16      	ldr	r2, [pc, #88]	; (8003f20 <keyb_proc+0xda0>)
 8003ec8:	eb02 03c3 	add.w	r3, r2, r3, lsl #3
 8003ecc:	aa16      	add	r2, sp, #88	; 0x58
 8003ece:	e912 0003 	ldmdb	r2, {r0, r1}
 8003ed2:	e883 0003 	stmia.w	r3, {r0, r1}
 8003ed6:	4a10      	ldr	r2, [pc, #64]	; (8003f18 <keyb_proc+0xd98>)
 8003ed8:	7813      	ldrb	r3, [r2, #0]
 8003eda:	f043 0301 	orr.w	r3, r3, #1
 8003ede:	7013      	strb	r3, [r2, #0]
 8003ee0:	2001      	movs	r0, #1
 8003ee2:	b017      	add	sp, #92	; 0x5c
 8003ee4:	e8bd 8ff0 	ldmia.w	sp!, {r4, r5, r6, r7, r8, r9, sl, fp, pc}
 8003ee8:	f5b1 7f16 	cmp.w	r1, #600	; 0x258
 8003eec:	f67f ad0a 	bls.w	8003904 <keyb_proc+0x784>
 8003ef0:	f44f 72fa 	mov.w	r2, #500	; 0x1f4
 8003ef4:	801a      	strh	r2, [r3, #0]
 8003ef6:	2200      	movs	r2, #0
 8003ef8:	e410      	b.n	800371c <keyb_proc+0x59c>
 8003efa:	f5b2 7f16 	cmp.w	r2, #600	; 0x258
 8003efe:	f67f ad2a 	bls.w	8003956 <keyb_proc+0x7d6>
 8003f02:	f44f 72fa 	mov.w	r2, #500	; 0x1f4
 8003f06:	8002      	strh	r2, [r0, #0]
 8003f08:	e522      	b.n	8003950 <keyb_proc+0x7d0>
 8003f0a:	bf00      	nop
 8003f0c:	20000271 	.word	0x20000271
 8003f10:	200002b8 	.word	0x200002b8
 8003f14:	200002a8 	.word	0x200002a8
 8003f18:	200002e8 	.word	0x200002e8
 8003f1c:	40020000 	.word	0x40020000
 8003f20:	20000898 	.word	0x20000898
 8003f24:	40010400 	.word	0x40010400
 8003f28:	200002b9 	.word	0x200002b9
 8003f2c:	200002c4 	.word	0x200002c4
 8003f30:	200002ba 	.word	0x200002ba
 8003f34:	200002a0 	.word	0x200002a0
 8003f38:	20000298 	.word	0x20000298
 8003f3c:	200002bc 	.word	0x200002bc
 8003f40:	40020400 	.word	0x40020400
 8003f44:	200002b7 	.word	0x200002b7
 8003f48:	40002000 	.word	0x40002000
 8003f4c:	200002a1 	.word	0x200002a1
 8003f50:	2000029c 	.word	0x2000029c
 8003f54:	200002c0 	.word	0x200002c0
 8003f58:	200002b4 	.word	0x200002b4
 8003f5c:	200002b5 	.word	0x200002b5
 8003f60:	200002b6 	.word	0x200002b6
 8003f64:	b99a      	cbnz	r2, 8003f8e <keyb_proc+0xe0e>
 8003f66:	f7fd fc39 	bl	80017dc <Is_Expander_Present>
 8003f6a:	b940      	cbnz	r0, 8003f7e <keyb_proc+0xdfe>
 8003f6c:	4b38      	ldr	r3, [pc, #224]	; (8004050 <keyb_proc+0xed0>)
 8003f6e:	f88a 0000 	strb.w	r0, [sl]
 8003f72:	781a      	ldrb	r2, [r3, #0]
 8003f74:	2a01      	cmp	r2, #1
 8003f76:	bf0c      	ite	eq
 8003f78:	2202      	moveq	r2, #2
 8003f7a:	2201      	movne	r2, #1
 8003f7c:	e001      	b.n	8003f82 <keyb_proc+0xe02>
 8003f7e:	4b35      	ldr	r3, [pc, #212]	; (8004054 <keyb_proc+0xed4>)
 8003f80:	2200      	movs	r2, #0
 8003f82:	701a      	strb	r2, [r3, #0]
 8003f84:	4a34      	ldr	r2, [pc, #208]	; (8004058 <keyb_proc+0xed8>)
 8003f86:	8813      	ldrh	r3, [r2, #0]
 8003f88:	3301      	adds	r3, #1
 8003f8a:	8013      	strh	r3, [r2, #0]
 8003f8c:	e4e6      	b.n	800395c <keyb_proc+0x7dc>
 8003f8e:	f5b2 7f16 	cmp.w	r2, #600	; 0x258
 8003f92:	d9f7      	bls.n	8003f84 <keyb_proc+0xe04>
 8003f94:	f44f 73fa 	mov.w	r3, #500	; 0x1f4
 8003f98:	8003      	strh	r3, [r0, #0]
 8003f9a:	e7e4      	b.n	8003f66 <keyb_proc+0xde6>
 8003f9c:	4b2e      	ldr	r3, [pc, #184]	; (8004058 <keyb_proc+0xed8>)
 8003f9e:	2200      	movs	r2, #0
 8003fa0:	801a      	strh	r2, [r3, #0]
 8003fa2:	e4e0      	b.n	8003966 <keyb_proc+0x7e6>
 8003fa4:	2a01      	cmp	r2, #1
 8003fa6:	f47f ae84 	bne.w	8003cb2 <keyb_proc+0xb32>
 8003faa:	4a2c      	ldr	r2, [pc, #176]	; (800405c <keyb_proc+0xedc>)
 8003fac:	7812      	ldrb	r2, [r2, #0]
 8003fae:	b2d2      	uxtb	r2, r2
 8003fb0:	701a      	strb	r2, [r3, #0]
 8003fb2:	4b2b      	ldr	r3, [pc, #172]	; (8004060 <keyb_proc+0xee0>)
 8003fb4:	781a      	ldrb	r2, [r3, #0]
 8003fb6:	f042 0201 	orr.w	r2, r2, #1
 8003fba:	701a      	strb	r2, [r3, #0]
 8003fbc:	781a      	ldrb	r2, [r3, #0]
 8003fbe:	f042 0202 	orr.w	r2, r2, #2
 8003fc2:	701a      	strb	r2, [r3, #0]
 8003fc4:	4b27      	ldr	r3, [pc, #156]	; (8004064 <keyb_proc+0xee4>)
 8003fc6:	2200      	movs	r2, #0
 8003fc8:	701a      	strb	r2, [r3, #0]
 8003fca:	e672      	b.n	8003cb2 <keyb_proc+0xb32>
 8003fcc:	781a      	ldrb	r2, [r3, #0]
 8003fce:	2a01      	cmp	r2, #1
 8003fd0:	f47f ae87 	bne.w	8003ce2 <keyb_proc+0xb62>
 8003fd4:	4a24      	ldr	r2, [pc, #144]	; (8004068 <keyb_proc+0xee8>)
 8003fd6:	7812      	ldrb	r2, [r2, #0]
 8003fd8:	b2d2      	uxtb	r2, r2
 8003fda:	701a      	strb	r2, [r3, #0]
 8003fdc:	4b20      	ldr	r3, [pc, #128]	; (8004060 <keyb_proc+0xee0>)
 8003fde:	781a      	ldrb	r2, [r3, #0]
 8003fe0:	f042 0201 	orr.w	r2, r2, #1
 8003fe4:	701a      	strb	r2, [r3, #0]
 8003fe6:	781a      	ldrb	r2, [r3, #0]
 8003fe8:	f042 0202 	orr.w	r2, r2, #2
 8003fec:	701a      	strb	r2, [r3, #0]
 8003fee:	4b1d      	ldr	r3, [pc, #116]	; (8004064 <keyb_proc+0xee4>)
 8003ff0:	2200      	movs	r2, #0
 8003ff2:	e675      	b.n	8003ce0 <keyb_proc+0xb60>
 8003ff4:	781a      	ldrb	r2, [r3, #0]
 8003ff6:	2a05      	cmp	r2, #5
 8003ff8:	d006      	beq.n	8004008 <keyb_proc+0xe88>
 8003ffa:	781a      	ldrb	r2, [r3, #0]
 8003ffc:	2a04      	cmp	r2, #4
 8003ffe:	bf1f      	itttt	ne
 8004000:	781b      	ldrbne	r3, [r3, #0]
 8004002:	4a16      	ldrne	r2, [pc, #88]	; (800405c <keyb_proc+0xedc>)
 8004004:	b2db      	uxtbne	r3, r3
 8004006:	7013      	strbne	r3, [r2, #0]
 8004008:	f8df a064 	ldr.w	sl, [pc, #100]	; 8004070 <keyb_proc+0xef0>
 800400c:	2000      	movs	r0, #0
 800400e:	f89a 1000 	ldrb.w	r1, [sl]
 8004012:	f7fe f9dd 	bl	80023d0 <GetNextStep>
 8004016:	f88a 0000 	strb.w	r0, [sl]
 800401a:	e688      	b.n	8003d2e <keyb_proc+0xbae>
 800401c:	2300      	movs	r3, #0
 800401e:	7013      	strb	r3, [r2, #0]
 8004020:	e6b1      	b.n	8003d86 <keyb_proc+0xc06>
 8004022:	781a      	ldrb	r2, [r3, #0]
 8004024:	2a05      	cmp	r2, #5
 8004026:	d006      	beq.n	8004036 <keyb_proc+0xeb6>
 8004028:	781a      	ldrb	r2, [r3, #0]
 800402a:	2a04      	cmp	r2, #4
 800402c:	bf1f      	itttt	ne
 800402e:	781b      	ldrbne	r3, [r3, #0]
 8004030:	4a0d      	ldrne	r2, [pc, #52]	; (8004068 <keyb_proc+0xee8>)
 8004032:	b2db      	uxtbne	r3, r3
 8004034:	7013      	strbne	r3, [r2, #0]
 8004036:	4f0d      	ldr	r7, [pc, #52]	; (800406c <keyb_proc+0xeec>)
 8004038:	2001      	movs	r0, #1
 800403a:	7839      	ldrb	r1, [r7, #0]
 800403c:	f7fe f9c8 	bl	80023d0 <GetNextStep>
 8004040:	7038      	strb	r0, [r7, #0]
 8004042:	e6c6      	b.n	8003dd2 <keyb_proc+0xc52>
 8004044:	2300      	movs	r3, #0
 8004046:	7013      	strb	r3, [r2, #0]
 8004048:	e6ee      	b.n	8003e28 <keyb_proc+0xca8>
 800404a:	2200      	movs	r2, #0
 800404c:	701a      	strb	r2, [r3, #0]
 800404e:	e747      	b.n	8003ee0 <keyb_proc+0xd60>
 8004050:	20000270 	.word	0x20000270
 8004054:	200002a9 	.word	0x200002a9
 8004058:	200002a6 	.word	0x200002a6
 800405c:	200002b5 	.word	0x200002b5
 8004060:	200002e8 	.word	0x200002e8
 8004064:	200002c4 	.word	0x200002c4
 8004068:	200002b6 	.word	0x200002b6
 800406c:	200002b8 	.word	0x200002b8
 8004070:	200002b7 	.word	0x200002b7

08004074 <UpdateModeSection>:
 8004074:	b513      	push	{r0, r1, r4, lr}
 8004076:	f04f 33ff 	mov.w	r3, #4294967295	; 0xffffffff
 800407a:	9301      	str	r3, [sp, #4]
 800407c:	4bbc      	ldr	r3, [pc, #752]	; (8004370 <UpdateModeSection+0x2fc>)
 800407e:	781a      	ldrb	r2, [r3, #0]
 8004080:	b112      	cbz	r2, 8004088 <UpdateModeSection+0x14>
 8004082:	781a      	ldrb	r2, [r3, #0]
 8004084:	2a06      	cmp	r2, #6
 8004086:	d105      	bne.n	8004094 <UpdateModeSection+0x20>
 8004088:	f89d 2004 	ldrb.w	r2, [sp, #4]
 800408c:	f36f 0282 	bfc	r2, #2, #1
 8004090:	f88d 2004 	strb.w	r2, [sp, #4]
 8004094:	781a      	ldrb	r2, [r3, #0]
 8004096:	2a01      	cmp	r2, #1
 8004098:	d005      	beq.n	80040a6 <UpdateModeSection+0x32>
 800409a:	781a      	ldrb	r2, [r3, #0]
 800409c:	2a04      	cmp	r2, #4
 800409e:	d002      	beq.n	80040a6 <UpdateModeSection+0x32>
 80040a0:	781a      	ldrb	r2, [r3, #0]
 80040a2:	2a05      	cmp	r2, #5
 80040a4:	d105      	bne.n	80040b2 <UpdateModeSection+0x3e>
 80040a6:	f89d 2004 	ldrb.w	r2, [sp, #4]
 80040aa:	f36f 0241 	bfc	r2, #1, #1
 80040ae:	f88d 2004 	strb.w	r2, [sp, #4]
 80040b2:	781b      	ldrb	r3, [r3, #0]
 80040b4:	2b02      	cmp	r3, #2
 80040b6:	bf02      	ittt	eq
 80040b8:	f89d 3004 	ldrbeq.w	r3, [sp, #4]
 80040bc:	f36f 0300 	bfceq	r3, #0, #1
 80040c0:	f88d 3004 	strbeq.w	r3, [sp, #4]
 80040c4:	4bab      	ldr	r3, [pc, #684]	; (8004374 <UpdateModeSection+0x300>)
 80040c6:	781a      	ldrb	r2, [r3, #0]
 80040c8:	b112      	cbz	r2, 80040d0 <UpdateModeSection+0x5c>
 80040ca:	781a      	ldrb	r2, [r3, #0]
 80040cc:	2a06      	cmp	r2, #6
 80040ce:	d105      	bne.n	80040dc <UpdateModeSection+0x68>
 80040d0:	f89d 2004 	ldrb.w	r2, [sp, #4]
 80040d4:	f36f 1245 	bfc	r2, #5, #1
 80040d8:	f88d 2004 	strb.w	r2, [sp, #4]
 80040dc:	781a      	ldrb	r2, [r3, #0]
 80040de:	2a01      	cmp	r2, #1
 80040e0:	d005      	beq.n	80040ee <UpdateModeSection+0x7a>
 80040e2:	781a      	ldrb	r2, [r3, #0]
 80040e4:	2a04      	cmp	r2, #4
 80040e6:	d002      	beq.n	80040ee <UpdateModeSection+0x7a>
 80040e8:	781a      	ldrb	r2, [r3, #0]
 80040ea:	2a05      	cmp	r2, #5
 80040ec:	d105      	bne.n	80040fa <UpdateModeSection+0x86>
 80040ee:	f89d 2004 	ldrb.w	r2, [sp, #4]
 80040f2:	f36f 1204 	bfc	r2, #4, #1
 80040f6:	f88d 2004 	strb.w	r2, [sp, #4]
 80040fa:	781b      	ldrb	r3, [r3, #0]
 80040fc:	4c9e      	ldr	r4, [pc, #632]	; (8004378 <UpdateModeSection+0x304>)
 80040fe:	2b02      	cmp	r3, #2
 8004100:	bf02      	ittt	eq
 8004102:	f89d 3004 	ldrbeq.w	r3, [sp, #4]
 8004106:	f36f 03c3 	bfceq	r3, #3, #1
 800410a:	f88d 3004 	strbeq.w	r3, [sp, #4]
 800410e:	7823      	ldrb	r3, [r4, #0]
 8004110:	2b00      	cmp	r3, #0
 8004112:	f040 8151 	bne.w	80043b8 <UpdateModeSection+0x344>
 8004116:	4b99      	ldr	r3, [pc, #612]	; (800437c <UpdateModeSection+0x308>)
 8004118:	781a      	ldrb	r2, [r3, #0]
 800411a:	b2d2      	uxtb	r2, r2
 800411c:	7823      	ldrb	r3, [r4, #0]
 800411e:	b2db      	uxtb	r3, r3
 8004120:	2b01      	cmp	r3, #1
 8004122:	bf02      	ittt	eq
 8004124:	4a96      	ldreq	r2, [pc, #600]	; (8004380 <UpdateModeSection+0x30c>)
 8004126:	7811      	ldrbeq	r1, [r2, #0]
 8004128:	b2ca      	uxtbeq	r2, r1
 800412a:	7821      	ldrb	r1, [r4, #0]
 800412c:	bf18      	it	ne
 800412e:	2300      	movne	r3, #0
 8004130:	2902      	cmp	r1, #2
 8004132:	bf08      	it	eq
 8004134:	4b93      	ldreq	r3, [pc, #588]	; (8004384 <UpdateModeSection+0x310>)
 8004136:	7821      	ldrb	r1, [r4, #0]
 8004138:	bf04      	itt	eq
 800413a:	781a      	ldrbeq	r2, [r3, #0]
 800413c:	2300      	moveq	r3, #0
 800413e:	2903      	cmp	r1, #3
 8004140:	bf08      	it	eq
 8004142:	4b90      	ldreq	r3, [pc, #576]	; (8004384 <UpdateModeSection+0x310>)
 8004144:	f89d 1007 	ldrb.w	r1, [sp, #7]
 8004148:	bf04      	itt	eq
 800414a:	781a      	ldrbeq	r2, [r3, #0]
 800414c:	2301      	moveq	r3, #1
 800414e:	eb02 1243 	add.w	r2, r2, r3, lsl #5
 8004152:	4b8d      	ldr	r3, [pc, #564]	; (8004388 <UpdateModeSection+0x314>)
 8004154:	eb03 03c2 	add.w	r3, r3, r2, lsl #3
 8004158:	78da      	ldrb	r2, [r3, #3]
 800415a:	f3c2 0280 	ubfx	r2, r2, #2, #1
 800415e:	43d2      	mvns	r2, r2
 8004160:	f362 0182 	bfi	r1, r2, #2, #1
 8004164:	f88d 1007 	strb.w	r1, [sp, #7]
 8004168:	78da      	ldrb	r2, [r3, #3]
 800416a:	f3c2 1200 	ubfx	r2, r2, #4, #1
 800416e:	43d2      	mvns	r2, r2
 8004170:	b2c9      	uxtb	r1, r1
 8004172:	f362 1104 	bfi	r1, r2, #4, #1
 8004176:	f88d 1007 	strb.w	r1, [sp, #7]
 800417a:	78da      	ldrb	r2, [r3, #3]
 800417c:	f3c2 1240 	ubfx	r2, r2, #5, #1
 8004180:	43d2      	mvns	r2, r2
 8004182:	b2c9      	uxtb	r1, r1
 8004184:	f362 1145 	bfi	r1, r2, #5, #1
 8004188:	f88d 1007 	strb.w	r1, [sp, #7]
 800418c:	78da      	ldrb	r2, [r3, #3]
 800418e:	f3c2 1280 	ubfx	r2, r2, #6, #1
 8004192:	43d2      	mvns	r2, r2
 8004194:	b2c9      	uxtb	r1, r1
 8004196:	f362 1186 	bfi	r1, r2, #6, #1
 800419a:	f88d 1007 	strb.w	r1, [sp, #7]
 800419e:	78da      	ldrb	r2, [r3, #3]
 80041a0:	b2c9      	uxtb	r1, r1
 80041a2:	ea6f 12d2 	mvn.w	r2, r2, lsr #7
 80041a6:	f362 11c7 	bfi	r1, r2, #7, #1
 80041aa:	f88d 1007 	strb.w	r1, [sp, #7]
 80041ae:	791a      	ldrb	r2, [r3, #4]
 80041b0:	f89d 1006 	ldrb.w	r1, [sp, #6]
 80041b4:	f002 0201 	and.w	r2, r2, #1
 80041b8:	43d2      	mvns	r2, r2
 80041ba:	f362 0100 	bfi	r1, r2, #0, #1
 80041be:	f88d 1006 	strb.w	r1, [sp, #6]
 80041c2:	795a      	ldrb	r2, [r3, #5]
 80041c4:	f89d 1004 	ldrb.w	r1, [sp, #4]
 80041c8:	f3c2 02c0 	ubfx	r2, r2, #3, #1
 80041cc:	43d2      	mvns	r2, r2
 80041ce:	f362 1186 	bfi	r1, r2, #6, #1
 80041d2:	f88d 1004 	strb.w	r1, [sp, #4]
 80041d6:	795a      	ldrb	r2, [r3, #5]
 80041d8:	f3c2 1200 	ubfx	r2, r2, #4, #1
 80041dc:	43d2      	mvns	r2, r2
 80041de:	b2c9      	uxtb	r1, r1
 80041e0:	f362 11c7 	bfi	r1, r2, #7, #1
 80041e4:	f88d 1004 	strb.w	r1, [sp, #4]
 80041e8:	791a      	ldrb	r2, [r3, #4]
 80041ea:	f89d 1006 	ldrb.w	r1, [sp, #6]
 80041ee:	f3c2 1200 	ubfx	r2, r2, #4, #1
 80041f2:	43d2      	mvns	r2, r2
 80041f4:	f362 1104 	bfi	r1, r2, #4, #1
 80041f8:	f88d 1006 	strb.w	r1, [sp, #6]
 80041fc:	791a      	ldrb	r2, [r3, #4]
 80041fe:	f3c2 1240 	ubfx	r2, r2, #5, #1
 8004202:	43d2      	mvns	r2, r2
 8004204:	b2c9      	uxtb	r1, r1
 8004206:	f362 1145 	bfi	r1, r2, #5, #1
 800420a:	f88d 1006 	strb.w	r1, [sp, #6]
 800420e:	78da      	ldrb	r2, [r3, #3]
 8004210:	f89d 1007 	ldrb.w	r1, [sp, #7]
 8004214:	f3c2 02c0 	ubfx	r2, r2, #3, #1
 8004218:	43d2      	mvns	r2, r2
 800421a:	f362 01c3 	bfi	r1, r2, #3, #1
 800421e:	f88d 1007 	strb.w	r1, [sp, #7]
 8004222:	78da      	ldrb	r2, [r3, #3]
 8004224:	f3c2 0240 	ubfx	r2, r2, #1, #1
 8004228:	43d2      	mvns	r2, r2
 800422a:	b2c9      	uxtb	r1, r1
 800422c:	f362 0141 	bfi	r1, r2, #1, #1
 8004230:	f88d 1007 	strb.w	r1, [sp, #7]
 8004234:	78da      	ldrb	r2, [r3, #3]
 8004236:	f002 0201 	and.w	r2, r2, #1
 800423a:	43d2      	mvns	r2, r2
 800423c:	b2c9      	uxtb	r1, r1
 800423e:	f362 0100 	bfi	r1, r2, #0, #1
 8004242:	f88d 1007 	strb.w	r1, [sp, #7]
 8004246:	791a      	ldrb	r2, [r3, #4]
 8004248:	f89d 1006 	ldrb.w	r1, [sp, #6]
 800424c:	f3c2 1280 	ubfx	r2, r2, #6, #1
 8004250:	43d2      	mvns	r2, r2
 8004252:	f362 1186 	bfi	r1, r2, #6, #1
 8004256:	f88d 1006 	strb.w	r1, [sp, #6]
 800425a:	791a      	ldrb	r2, [r3, #4]
 800425c:	b2c9      	uxtb	r1, r1
 800425e:	ea6f 12d2 	mvn.w	r2, r2, lsr #7
 8004262:	f362 11c7 	bfi	r1, r2, #7, #1
 8004266:	f88d 1006 	strb.w	r1, [sp, #6]
 800426a:	795a      	ldrb	r2, [r3, #5]
 800426c:	f89d 1005 	ldrb.w	r1, [sp, #5]
 8004270:	f002 0201 	and.w	r2, r2, #1
 8004274:	43d2      	mvns	r2, r2
 8004276:	f362 0100 	bfi	r1, r2, #0, #1
 800427a:	f88d 1005 	strb.w	r1, [sp, #5]
 800427e:	795a      	ldrb	r2, [r3, #5]
 8004280:	f3c2 0240 	ubfx	r2, r2, #1, #1
 8004284:	43d2      	mvns	r2, r2
 8004286:	b2c9      	uxtb	r1, r1
 8004288:	f362 0141 	bfi	r1, r2, #1, #1
 800428c:	f88d 1005 	strb.w	r1, [sp, #5]
 8004290:	795a      	ldrb	r2, [r3, #5]
 8004292:	f3c2 0280 	ubfx	r2, r2, #2, #1
 8004296:	43d2      	mvns	r2, r2
 8004298:	b2c9      	uxtb	r1, r1
 800429a:	f362 0182 	bfi	r1, r2, #2, #1
 800429e:	f88d 1005 	strb.w	r1, [sp, #5]
 80042a2:	791a      	ldrb	r2, [r3, #4]
 80042a4:	f89d 1006 	ldrb.w	r1, [sp, #6]
 80042a8:	f3c2 0240 	ubfx	r2, r2, #1, #1
 80042ac:	43d2      	mvns	r2, r2
 80042ae:	f362 0141 	bfi	r1, r2, #1, #1
 80042b2:	f88d 1006 	strb.w	r1, [sp, #6]
 80042b6:	791a      	ldrb	r2, [r3, #4]
 80042b8:	f3c2 0280 	ubfx	r2, r2, #2, #1
 80042bc:	43d2      	mvns	r2, r2
 80042be:	b2c9      	uxtb	r1, r1
 80042c0:	f362 0182 	bfi	r1, r2, #2, #1
 80042c4:	f88d 1006 	strb.w	r1, [sp, #6]
 80042c8:	791b      	ldrb	r3, [r3, #4]
 80042ca:	f3c3 03c0 	ubfx	r3, r3, #3, #1
 80042ce:	43db      	mvns	r3, r3
 80042d0:	b2ca      	uxtb	r2, r1
 80042d2:	f363 02c3 	bfi	r2, r3, #3, #1
 80042d6:	7823      	ldrb	r3, [r4, #0]
 80042d8:	f88d 2006 	strb.w	r2, [sp, #6]
 80042dc:	2b04      	cmp	r3, #4
 80042de:	d008      	beq.n	80042f2 <UpdateModeSection+0x27e>
 80042e0:	7823      	ldrb	r3, [r4, #0]
 80042e2:	2b05      	cmp	r3, #5
 80042e4:	d005      	beq.n	80042f2 <UpdateModeSection+0x27e>
 80042e6:	7823      	ldrb	r3, [r4, #0]
 80042e8:	2b06      	cmp	r3, #6
 80042ea:	d002      	beq.n	80042f2 <UpdateModeSection+0x27e>
 80042ec:	7823      	ldrb	r3, [r4, #0]
 80042ee:	2b07      	cmp	r3, #7
 80042f0:	d12c      	bne.n	800434c <UpdateModeSection+0x2d8>
 80042f2:	f04f 33ff 	mov.w	r3, #4294967295	; 0xffffffff
 80042f6:	9301      	str	r3, [sp, #4]
 80042f8:	7823      	ldrb	r3, [r4, #0]
 80042fa:	2b04      	cmp	r3, #4
 80042fc:	d002      	beq.n	8004304 <UpdateModeSection+0x290>
 80042fe:	7823      	ldrb	r3, [r4, #0]
 8004300:	2b05      	cmp	r3, #5
 8004302:	d165      	bne.n	80043d0 <UpdateModeSection+0x35c>
 8004304:	f89d 3004 	ldrb.w	r3, [sp, #4]
 8004308:	f043 0310 	orr.w	r3, r3, #16
 800430c:	f88d 3004 	strb.w	r3, [sp, #4]
 8004310:	4b1e      	ldr	r3, [pc, #120]	; (800438c <UpdateModeSection+0x318>)
 8004312:	681a      	ldr	r2, [r3, #0]
 8004314:	3201      	adds	r2, #1
 8004316:	601a      	str	r2, [r3, #0]
 8004318:	6819      	ldr	r1, [r3, #0]
 800431a:	f240 52db 	movw	r2, #1499	; 0x5db
 800431e:	4291      	cmp	r1, r2
 8004320:	d84c      	bhi.n	80043bc <UpdateModeSection+0x348>
 8004322:	f89d 3004 	ldrb.w	r3, [sp, #4]
 8004326:	f36f 0341 	bfc	r3, #1, #1
 800432a:	f88d 3004 	strb.w	r3, [sp, #4]
 800432e:	f7fd fa55 	bl	80017dc <Is_Expander_Present>
 8004332:	b958      	cbnz	r0, 800434c <UpdateModeSection+0x2d8>
 8004334:	4b16      	ldr	r3, [pc, #88]	; (8004390 <UpdateModeSection+0x31c>)
 8004336:	781a      	ldrb	r2, [r3, #0]
 8004338:	f89d 3004 	ldrb.w	r3, [sp, #4]
 800433c:	2a01      	cmp	r2, #1
 800433e:	bf0c      	ite	eq
 8004340:	f023 0340 	biceq.w	r3, r3, #64	; 0x40
 8004344:	f003 037f 	andne.w	r3, r3, #127	; 0x7f
 8004348:	f88d 3004 	strb.w	r3, [sp, #4]
 800434c:	a801      	add	r0, sp, #4
 800434e:	f7fd fa8b 	bl	8001868 <LEDS_modes_SendStruct>
 8004352:	7823      	ldrb	r3, [r4, #0]
 8004354:	b113      	cbz	r3, 800435c <UpdateModeSection+0x2e8>
 8004356:	7823      	ldrb	r3, [r4, #0]
 8004358:	2b02      	cmp	r3, #2
 800435a:	d11d      	bne.n	8004398 <UpdateModeSection+0x324>
 800435c:	2140      	movs	r1, #64	; 0x40
 800435e:	480d      	ldr	r0, [pc, #52]	; (8004394 <UpdateModeSection+0x320>)
 8004360:	f7fc fcdd 	bl	8000d1e <GPIO_SetBits>
 8004364:	2180      	movs	r1, #128	; 0x80
 8004366:	480b      	ldr	r0, [pc, #44]	; (8004394 <UpdateModeSection+0x320>)
 8004368:	f7fc fcdb 	bl	8000d22 <GPIO_ResetBits>
 800436c:	e014      	b.n	8004398 <UpdateModeSection+0x324>
 800436e:	bf00      	nop
 8004370:	200002b9 	.word	0x200002b9
 8004374:	200002ba 	.word	0x200002ba
 8004378:	200002a8 	.word	0x200002a8
 800437c:	200002b7 	.word	0x200002b7
 8004380:	200002b8 	.word	0x200002b8
 8004384:	200002a9 	.word	0x200002a9
 8004388:	20000898 	.word	0x20000898
 800438c:	200002cc 	.word	0x200002cc
 8004390:	20000270 	.word	0x20000270
 8004394:	40020000 	.word	0x40020000
 8004398:	7823      	ldrb	r3, [r4, #0]
 800439a:	2b01      	cmp	r3, #1
 800439c:	d002      	beq.n	80043a4 <UpdateModeSection+0x330>
 800439e:	7823      	ldrb	r3, [r4, #0]
 80043a0:	2b03      	cmp	r3, #3
 80043a2:	d107      	bne.n	80043b4 <UpdateModeSection+0x340>
 80043a4:	2180      	movs	r1, #128	; 0x80
 80043a6:	481e      	ldr	r0, [pc, #120]	; (8004420 <UpdateModeSection+0x3ac>)
 80043a8:	f7fc fcb9 	bl	8000d1e <GPIO_SetBits>
 80043ac:	2140      	movs	r1, #64	; 0x40
 80043ae:	481c      	ldr	r0, [pc, #112]	; (8004420 <UpdateModeSection+0x3ac>)
 80043b0:	f7fc fcb7 	bl	8000d22 <GPIO_ResetBits>
 80043b4:	b002      	add	sp, #8
 80043b6:	bd10      	pop	{r4, pc}
 80043b8:	2200      	movs	r2, #0
 80043ba:	e6af      	b.n	800411c <UpdateModeSection+0xa8>
 80043bc:	6819      	ldr	r1, [r3, #0]
 80043be:	f640 32b7 	movw	r2, #2999	; 0xbb7
 80043c2:	4291      	cmp	r1, r2
 80043c4:	d828      	bhi.n	8004418 <UpdateModeSection+0x3a4>
 80043c6:	f89d 3004 	ldrb.w	r3, [sp, #4]
 80043ca:	f043 0302 	orr.w	r3, r3, #2
 80043ce:	e7ac      	b.n	800432a <UpdateModeSection+0x2b6>
 80043d0:	7823      	ldrb	r3, [r4, #0]
 80043d2:	2b06      	cmp	r3, #6
 80043d4:	d002      	beq.n	80043dc <UpdateModeSection+0x368>
 80043d6:	7823      	ldrb	r3, [r4, #0]
 80043d8:	2b07      	cmp	r3, #7
 80043da:	d1a8      	bne.n	800432e <UpdateModeSection+0x2ba>
 80043dc:	f89d 3004 	ldrb.w	r3, [sp, #4]
 80043e0:	f043 0302 	orr.w	r3, r3, #2
 80043e4:	f88d 3004 	strb.w	r3, [sp, #4]
 80043e8:	4b0e      	ldr	r3, [pc, #56]	; (8004424 <UpdateModeSection+0x3b0>)
 80043ea:	681a      	ldr	r2, [r3, #0]
 80043ec:	3201      	adds	r2, #1
 80043ee:	601a      	str	r2, [r3, #0]
 80043f0:	6819      	ldr	r1, [r3, #0]
 80043f2:	f240 52db 	movw	r2, #1499	; 0x5db
 80043f6:	4291      	cmp	r1, r2
 80043f8:	d804      	bhi.n	8004404 <UpdateModeSection+0x390>
 80043fa:	f89d 3004 	ldrb.w	r3, [sp, #4]
 80043fe:	f36f 1304 	bfc	r3, #4, #1
 8004402:	e792      	b.n	800432a <UpdateModeSection+0x2b6>
 8004404:	6819      	ldr	r1, [r3, #0]
 8004406:	f640 32b7 	movw	r2, #2999	; 0xbb7
 800440a:	4291      	cmp	r1, r2
 800440c:	d804      	bhi.n	8004418 <UpdateModeSection+0x3a4>
 800440e:	f89d 3004 	ldrb.w	r3, [sp, #4]
 8004412:	f043 0310 	orr.w	r3, r3, #16
 8004416:	e788      	b.n	800432a <UpdateModeSection+0x2b6>
 8004418:	2200      	movs	r2, #0
 800441a:	601a      	str	r2, [r3, #0]
 800441c:	e787      	b.n	800432e <UpdateModeSection+0x2ba>
 800441e:	bf00      	nop
 8004420:	40020000 	.word	0x40020000
 8004424:	200002c8 	.word	0x200002c8

08004428 <UpdateStepSection>:
 8004428:	b510      	push	{r4, lr}
 800442a:	4c13      	ldr	r4, [pc, #76]	; (8004478 <UpdateStepSection+0x50>)
 800442c:	7823      	ldrb	r3, [r4, #0]
 800442e:	b91b      	cbnz	r3, 8004438 <UpdateStepSection+0x10>
 8004430:	4b12      	ldr	r3, [pc, #72]	; (800447c <UpdateStepSection+0x54>)
 8004432:	7818      	ldrb	r0, [r3, #0]
 8004434:	f7fd fa8e 	bl	8001954 <LED_STEP_LightStep>
 8004438:	7823      	ldrb	r3, [r4, #0]
 800443a:	2b01      	cmp	r3, #1
 800443c:	d103      	bne.n	8004446 <UpdateStepSection+0x1e>
 800443e:	4b10      	ldr	r3, [pc, #64]	; (8004480 <UpdateStepSection+0x58>)
 8004440:	7818      	ldrb	r0, [r3, #0]
 8004442:	f7fd fa87 	bl	8001954 <LED_STEP_LightStep>
 8004446:	7823      	ldrb	r3, [r4, #0]
 8004448:	2b02      	cmp	r3, #2
 800444a:	d00e      	beq.n	800446a <UpdateStepSection+0x42>
 800444c:	7823      	ldrb	r3, [r4, #0]
 800444e:	2b03      	cmp	r3, #3
 8004450:	d00b      	beq.n	800446a <UpdateStepSection+0x42>
 8004452:	7823      	ldrb	r3, [r4, #0]
 8004454:	2b04      	cmp	r3, #4
 8004456:	d008      	beq.n	800446a <UpdateStepSection+0x42>
 8004458:	7823      	ldrb	r3, [r4, #0]
 800445a:	2b05      	cmp	r3, #5
 800445c:	d005      	beq.n	800446a <UpdateStepSection+0x42>
 800445e:	7823      	ldrb	r3, [r4, #0]
 8004460:	2b06      	cmp	r3, #6
 8004462:	d002      	beq.n	800446a <UpdateStepSection+0x42>
 8004464:	7823      	ldrb	r3, [r4, #0]
 8004466:	2b07      	cmp	r3, #7
 8004468:	d105      	bne.n	8004476 <UpdateStepSection+0x4e>
 800446a:	4b06      	ldr	r3, [pc, #24]	; (8004484 <UpdateStepSection+0x5c>)
 800446c:	e8bd 4010 	ldmia.w	sp!, {r4, lr}
 8004470:	7818      	ldrb	r0, [r3, #0]
 8004472:	f7fd ba6f 	b.w	8001954 <LED_STEP_LightStep>
 8004476:	bd10      	pop	{r4, pc}
 8004478:	200002a8 	.word	0x200002a8
 800447c:	200002b7 	.word	0x200002b7
 8004480:	200002b8 	.word	0x200002b8
 8004484:	200002a9 	.word	0x200002a9

08004488 <Calibration>:
 8004488:	e92d 41f3 	stmdb	sp!, {r0, r1, r4, r5, r6, r7, r8, lr}
 800448c:	f7fd f820 	bl	80014d0 <GetButton>
 8004490:	af02      	add	r7, sp, #8
 8004492:	f04f 33ff 	mov.w	r3, #4294967295	; 0xffffffff
 8004496:	f847 3d04 	str.w	r3, [r7, #-4]!
 800449a:	4846      	ldr	r0, [pc, #280]	; (80045b4 <Calibration+0x12c>)
 800449c:	460d      	mov	r5, r1
 800449e:	2180      	movs	r1, #128	; 0x80
 80044a0:	f7fc fc3f 	bl	8000d22 <GPIO_ResetBits>
 80044a4:	2140      	movs	r1, #64	; 0x40
 80044a6:	4843      	ldr	r0, [pc, #268]	; (80045b4 <Calibration+0x12c>)
 80044a8:	f7fc fc3b 	bl	8000d22 <GPIO_ResetBits>
 80044ac:	2600      	movs	r6, #0
 80044ae:	f241 786f 	movw	r8, #5999	; 0x176f
 80044b2:	f3c5 2407 	ubfx	r4, r5, #8, #8
 80044b6:	f014 0408 	ands.w	r4, r4, #8
 80044ba:	d127      	bne.n	800450c <Calibration+0x84>
 80044bc:	4a3e      	ldr	r2, [pc, #248]	; (80045b8 <Calibration+0x130>)
 80044be:	4b3f      	ldr	r3, [pc, #252]	; (80045bc <Calibration+0x134>)
 80044c0:	f640 71ff 	movw	r1, #4095	; 0xfff
 80044c4:	f852 0024 	ldr.w	r0, [r2, r4, lsl #2]
 80044c8:	f843 0024 	str.w	r0, [r3, r4, lsl #2]
 80044cc:	f853 0024 	ldr.w	r0, [r3, r4, lsl #2]
 80044d0:	2863      	cmp	r0, #99	; 0x63
 80044d2:	bf98      	it	ls
 80044d4:	f843 1024 	strls.w	r1, [r3, r4, lsl #2]
 80044d8:	3401      	adds	r4, #1
 80044da:	2c08      	cmp	r4, #8
 80044dc:	d1f2      	bne.n	80044c4 <Calibration+0x3c>
 80044de:	4b38      	ldr	r3, [pc, #224]	; (80045c0 <Calibration+0x138>)
 80044e0:	4936      	ldr	r1, [pc, #216]	; (80045bc <Calibration+0x134>)
 80044e2:	f44f 2280 	mov.w	r2, #262144	; 0x40000
 80044e6:	f8c3 2080 	str.w	r2, [r3, #128]	; 0x80
 80044ea:	f44f 4048 	mov.w	r0, #51200	; 0xc800
 80044ee:	2220      	movs	r2, #32
 80044f0:	f7fc fed2 	bl	8001298 <CAT25512_write_block>
 80044f4:	f7fd fa60 	bl	80019b8 <mADC_init>
 80044f8:	f241 766f 	movw	r6, #5999	; 0x176f
 80044fc:	f3c5 2507 	ubfx	r5, r5, #8, #8
 8004500:	f015 0508 	ands.w	r5, r5, #8
 8004504:	d02c      	beq.n	8004560 <Calibration+0xd8>
 8004506:	b002      	add	sp, #8
 8004508:	e8bd 81f0 	ldmia.w	sp!, {r4, r5, r6, r7, r8, pc}
 800450c:	3601      	adds	r6, #1
 800450e:	f5b6 6ffa 	cmp.w	r6, #2000	; 0x7d0
 8004512:	d210      	bcs.n	8004536 <Calibration+0xae>
 8004514:	f89d 3004 	ldrb.w	r3, [sp, #4]
 8004518:	f003 03d8 	and.w	r3, r3, #216	; 0xd8
 800451c:	f043 0336 	orr.w	r3, r3, #54	; 0x36
 8004520:	f36f 03c3 	bfc	r3, #3, #1
 8004524:	f88d 3004 	strb.w	r3, [sp, #4]
 8004528:	4638      	mov	r0, r7
 800452a:	f7fd f99d 	bl	8001868 <LEDS_modes_SendStruct>
 800452e:	f7fc ffcf 	bl	80014d0 <GetButton>
 8004532:	460d      	mov	r5, r1
 8004534:	e7bd      	b.n	80044b2 <Calibration+0x2a>
 8004536:	f5b6 6f7a 	cmp.w	r6, #4000	; 0xfa0
 800453a:	d206      	bcs.n	800454a <Calibration+0xc2>
 800453c:	f89d 3004 	ldrb.w	r3, [sp, #4]
 8004540:	f003 03c8 	and.w	r3, r3, #200	; 0xc8
 8004544:	f043 031b 	orr.w	r3, r3, #27
 8004548:	e7ec      	b.n	8004524 <Calibration+0x9c>
 800454a:	4546      	cmp	r6, r8
 800454c:	d806      	bhi.n	800455c <Calibration+0xd4>
 800454e:	f89d 3004 	ldrb.w	r3, [sp, #4]
 8004552:	f003 03c0 	and.w	r3, r3, #192	; 0xc0
 8004556:	f043 032d 	orr.w	r3, r3, #45	; 0x2d
 800455a:	e7e3      	b.n	8004524 <Calibration+0x9c>
 800455c:	2600      	movs	r6, #0
 800455e:	e7e3      	b.n	8004528 <Calibration+0xa0>
 8004560:	3401      	adds	r4, #1
 8004562:	f5b4 6ffa 	cmp.w	r4, #2000	; 0x7d0
 8004566:	d210      	bcs.n	800458a <Calibration+0x102>
 8004568:	f89d 3004 	ldrb.w	r3, [sp, #4]
 800456c:	f003 03d8 	and.w	r3, r3, #216	; 0xd8
 8004570:	f043 0336 	orr.w	r3, r3, #54	; 0x36
 8004574:	f365 03c3 	bfi	r3, r5, #3, #1
 8004578:	f88d 3004 	strb.w	r3, [sp, #4]
 800457c:	a801      	add	r0, sp, #4
 800457e:	f7fd f973 	bl	8001868 <LEDS_modes_SendStruct>
 8004582:	f7fc ffa5 	bl	80014d0 <GetButton>
 8004586:	460d      	mov	r5, r1
 8004588:	e7b8      	b.n	80044fc <Calibration+0x74>
 800458a:	f5b4 6f7a 	cmp.w	r4, #4000	; 0xfa0
 800458e:	d206      	bcs.n	800459e <Calibration+0x116>
 8004590:	f89d 3004 	ldrb.w	r3, [sp, #4]
 8004594:	f003 03c8 	and.w	r3, r3, #200	; 0xc8
 8004598:	f043 031b 	orr.w	r3, r3, #27
 800459c:	e7ec      	b.n	8004578 <Calibration+0xf0>
 800459e:	42b4      	cmp	r4, r6
 80045a0:	d806      	bhi.n	80045b0 <Calibration+0x128>
 80045a2:	f89d 3004 	ldrb.w	r3, [sp, #4]
 80045a6:	f003 03c0 	and.w	r3, r3, #192	; 0xc0
 80045aa:	f043 032d 	orr.w	r3, r3, #45	; 0x2d
 80045ae:	e7e3      	b.n	8004578 <Calibration+0xf0>
 80045b0:	462c      	mov	r4, r5
 80045b2:	e7e3      	b.n	800457c <Calibration+0xf4>
 80045b4:	40020000 	.word	0x40020000
 80045b8:	200007ec 	.word	0x200007ec
 80045bc:	20000250 	.word	0x20000250
 80045c0:	e000e100 	.word	0xe000e100

080045c4 <delay_ms>:
 80045c4:	b510      	push	{r4, lr}
 80045c6:	b086      	sub	sp, #24
 80045c8:	4604      	mov	r4, r0
 80045ca:	a802      	add	r0, sp, #8
 80045cc:	f7fc fbbe 	bl	8000d4c <RCC_GetClocksFreq>
 80045d0:	9b03      	ldr	r3, [sp, #12]
 80045d2:	f242 7210 	movw	r2, #10000	; 0x2710
 80045d6:	fbb3 f3f2 	udiv	r3, r3, r2
 80045da:	435c      	muls	r4, r3
 80045dc:	9401      	str	r4, [sp, #4]
 80045de:	9b01      	ldr	r3, [sp, #4]
 80045e0:	b90b      	cbnz	r3, 80045e6 <delay_ms+0x22>
 80045e2:	b006      	add	sp, #24
 80045e4:	bd10      	pop	{r4, pc}
 80045e6:	9b01      	ldr	r3, [sp, #4]
 80045e8:	3b01      	subs	r3, #1
 80045ea:	9301      	str	r3, [sp, #4]
 80045ec:	e7f7      	b.n	80045de <delay_ms+0x1a>
	...

080045f0 <TIM6_DAC_IRQHandler>:
 80045f0:	b5f8      	push	{r3, r4, r5, r6, r7, lr}
 80045f2:	4d6b      	ldr	r5, [pc, #428]	; (80047a0 <TIM6_DAC_IRQHandler+0x1b0>)
 80045f4:	f64f 73fe 	movw	r3, #65534	; 0xfffe
 80045f8:	822b      	strh	r3, [r5, #16]
 80045fa:	f7fc ff69 	bl	80014d0 <GetButton>
 80045fe:	4a69      	ldr	r2, [pc, #420]	; (80047a4 <TIM6_DAC_IRQHandler+0x1b4>)
 8004600:	7813      	ldrb	r3, [r2, #0]
 8004602:	2b1d      	cmp	r3, #29
 8004604:	4614      	mov	r4, r2
 8004606:	d821      	bhi.n	800464c <TIM6_DAC_IRQHandler+0x5c>
 8004608:	4e67      	ldr	r6, [pc, #412]	; (80047a8 <TIM6_DAC_IRQHandler+0x1b8>)
 800460a:	7831      	ldrb	r1, [r6, #0]
 800460c:	291d      	cmp	r1, #29
 800460e:	d81f      	bhi.n	8004650 <TIM6_DAC_IRQHandler+0x60>
 8004610:	b2c0      	uxtb	r0, r0
 8004612:	f000 0403 	and.w	r4, r0, #3
 8004616:	2c03      	cmp	r4, #3
 8004618:	d00b      	beq.n	8004632 <TIM6_DAC_IRQHandler+0x42>
 800461a:	07c4      	lsls	r4, r0, #31
 800461c:	bf4c      	ite	mi
 800461e:	2300      	movmi	r3, #0
 8004620:	3301      	addpl	r3, #1
 8004622:	7013      	strb	r3, [r2, #0]
 8004624:	0783      	lsls	r3, r0, #30
 8004626:	bf55      	itete	pl
 8004628:	3101      	addpl	r1, #1
 800462a:	2300      	movmi	r3, #0
 800462c:	7031      	strbpl	r1, [r6, #0]
 800462e:	7033      	strbmi	r3, [r6, #0]
 8004630:	bdf8      	pop	{r3, r4, r5, r6, r7, pc}
 8004632:	2100      	movs	r1, #0
 8004634:	4628      	mov	r0, r5
 8004636:	7011      	strb	r1, [r2, #0]
 8004638:	7031      	strb	r1, [r6, #0]
 800463a:	f7fc fd0b 	bl	8001054 <TIM_SetCounter>
 800463e:	882b      	ldrh	r3, [r5, #0]
 8004640:	f023 0301 	bic.w	r3, r3, #1
 8004644:	041b      	lsls	r3, r3, #16
 8004646:	0c1b      	lsrs	r3, r3, #16
 8004648:	802b      	strh	r3, [r5, #0]
 800464a:	e7f1      	b.n	8004630 <TIM6_DAC_IRQHandler+0x40>
 800464c:	2b1e      	cmp	r3, #30
 800464e:	d003      	beq.n	8004658 <TIM6_DAC_IRQHandler+0x68>
 8004650:	4b55      	ldr	r3, [pc, #340]	; (80047a8 <TIM6_DAC_IRQHandler+0x1b8>)
 8004652:	781b      	ldrb	r3, [r3, #0]
 8004654:	2b1e      	cmp	r3, #30
 8004656:	d1eb      	bne.n	8004630 <TIM6_DAC_IRQHandler+0x40>
 8004658:	2000      	movs	r0, #0
 800465a:	f7fd f963 	bl	8001924 <LED_STEP_SendWord>
 800465e:	f44f 70fa 	mov.w	r0, #500	; 0x1f4
 8004662:	f7ff ffaf 	bl	80045c4 <delay_ms>
 8004666:	f64f 70ff 	movw	r0, #65535	; 0xffff
 800466a:	f7fd f95b 	bl	8001924 <LED_STEP_SendWord>
 800466e:	f44f 70fa 	mov.w	r0, #500	; 0x1f4
 8004672:	f7ff ffa7 	bl	80045c4 <delay_ms>
 8004676:	2000      	movs	r0, #0
 8004678:	f7fd f954 	bl	8001924 <LED_STEP_SendWord>
 800467c:	f44f 70fa 	mov.w	r0, #500	; 0x1f4
 8004680:	f7ff ffa0 	bl	80045c4 <delay_ms>
 8004684:	f64f 70ff 	movw	r0, #65535	; 0xffff
 8004688:	f7fd f94c 	bl	8001924 <LED_STEP_SendWord>
 800468c:	f44f 70fa 	mov.w	r0, #500	; 0x1f4
 8004690:	f7ff ff98 	bl	80045c4 <delay_ms>
 8004694:	2000      	movs	r0, #0
 8004696:	f7fd f945 	bl	8001924 <LED_STEP_SendWord>
 800469a:	4d41      	ldr	r5, [pc, #260]	; (80047a0 <TIM6_DAC_IRQHandler+0x1b0>)
 800469c:	f44f 70fa 	mov.w	r0, #500	; 0x1f4
 80046a0:	f7ff ff90 	bl	80045c4 <delay_ms>
 80046a4:	f64f 70ff 	movw	r0, #65535	; 0xffff
 80046a8:	f7fd f93c 	bl	8001924 <LED_STEP_SendWord>
 80046ac:	2100      	movs	r1, #0
 80046ae:	4628      	mov	r0, r5
 80046b0:	f7fc fcd0 	bl	8001054 <TIM_SetCounter>
 80046b4:	882b      	ldrh	r3, [r5, #0]
 80046b6:	f023 0301 	bic.w	r3, r3, #1
 80046ba:	041b      	lsls	r3, r3, #16
 80046bc:	0c1b      	lsrs	r3, r3, #16
 80046be:	802b      	strh	r3, [r5, #0]
 80046c0:	7823      	ldrb	r3, [r4, #0]
 80046c2:	2b1e      	cmp	r3, #30
 80046c4:	d13a      	bne.n	800473c <TIM6_DAC_IRQHandler+0x14c>
 80046c6:	4b39      	ldr	r3, [pc, #228]	; (80047ac <TIM6_DAC_IRQHandler+0x1bc>)
 80046c8:	2200      	movs	r2, #0
 80046ca:	70da      	strb	r2, [r3, #3]
 80046cc:	711a      	strb	r2, [r3, #4]
 80046ce:	715a      	strb	r2, [r3, #5]
 80046d0:	6859      	ldr	r1, [r3, #4]
 80046d2:	f041 0180 	orr.w	r1, r1, #128	; 0x80
 80046d6:	6059      	str	r1, [r3, #4]
 80046d8:	6819      	ldr	r1, [r3, #0]
 80046da:	f041 6180 	orr.w	r1, r1, #67108864	; 0x4000000
 80046de:	6019      	str	r1, [r3, #0]
 80046e0:	e893 0003 	ldmia.w	r3, {r0, r1}
 80046e4:	eb03 05c2 	add.w	r5, r3, r2, lsl #3
 80046e8:	e885 0003 	stmia.w	r5, {r0, r1}
 80046ec:	e893 0003 	ldmia.w	r3, {r0, r1}
 80046f0:	f102 0510 	add.w	r5, r2, #16
 80046f4:	3201      	adds	r2, #1
 80046f6:	eb03 05c5 	add.w	r5, r3, r5, lsl #3
 80046fa:	2a10      	cmp	r2, #16
 80046fc:	e885 0003 	stmia.w	r5, {r0, r1}
 8004700:	d1ee      	bne.n	80046e0 <TIM6_DAC_IRQHandler+0xf0>
 8004702:	4b2b      	ldr	r3, [pc, #172]	; (80047b0 <TIM6_DAC_IRQHandler+0x1c0>)
 8004704:	2202      	movs	r2, #2
 8004706:	701a      	strb	r2, [r3, #0]
 8004708:	4b2a      	ldr	r3, [pc, #168]	; (80047b4 <TIM6_DAC_IRQHandler+0x1c4>)
 800470a:	2200      	movs	r2, #0
 800470c:	701a      	strb	r2, [r3, #0]
 800470e:	4a26      	ldr	r2, [pc, #152]	; (80047a8 <TIM6_DAC_IRQHandler+0x1b8>)
 8004710:	2300      	movs	r3, #0
 8004712:	7013      	strb	r3, [r2, #0]
 8004714:	7023      	strb	r3, [r4, #0]
 8004716:	4b28      	ldr	r3, [pc, #160]	; (80047b8 <TIM6_DAC_IRQHandler+0x1c8>)
 8004718:	781a      	ldrb	r2, [r3, #0]
 800471a:	2a06      	cmp	r2, #6
 800471c:	d002      	beq.n	8004724 <TIM6_DAC_IRQHandler+0x134>
 800471e:	781a      	ldrb	r2, [r3, #0]
 8004720:	2a04      	cmp	r2, #4
 8004722:	d101      	bne.n	8004728 <TIM6_DAC_IRQHandler+0x138>
 8004724:	2200      	movs	r2, #0
 8004726:	701a      	strb	r2, [r3, #0]
 8004728:	781a      	ldrb	r2, [r3, #0]
 800472a:	2a07      	cmp	r2, #7
 800472c:	d003      	beq.n	8004736 <TIM6_DAC_IRQHandler+0x146>
 800472e:	781a      	ldrb	r2, [r3, #0]
 8004730:	2a05      	cmp	r2, #5
 8004732:	f47f af7d 	bne.w	8004630 <TIM6_DAC_IRQHandler+0x40>
 8004736:	2201      	movs	r2, #1
 8004738:	701a      	strb	r2, [r3, #0]
 800473a:	e779      	b.n	8004630 <TIM6_DAC_IRQHandler+0x40>
 800473c:	4b1a      	ldr	r3, [pc, #104]	; (80047a8 <TIM6_DAC_IRQHandler+0x1b8>)
 800473e:	781b      	ldrb	r3, [r3, #0]
 8004740:	2b1e      	cmp	r3, #30
 8004742:	d1e4      	bne.n	800470e <TIM6_DAC_IRQHandler+0x11e>
 8004744:	4b19      	ldr	r3, [pc, #100]	; (80047ac <TIM6_DAC_IRQHandler+0x1bc>)
 8004746:	2200      	movs	r2, #0
 8004748:	f883 2103 	strb.w	r2, [r3, #259]	; 0x103
 800474c:	f883 2104 	strb.w	r2, [r3, #260]	; 0x104
 8004750:	f883 2105 	strb.w	r2, [r3, #261]	; 0x105
 8004754:	f8d3 1104 	ldr.w	r1, [r3, #260]	; 0x104
 8004758:	f041 0180 	orr.w	r1, r1, #128	; 0x80
 800475c:	f8c3 1104 	str.w	r1, [r3, #260]	; 0x104
 8004760:	f8d3 1100 	ldr.w	r1, [r3, #256]	; 0x100
 8004764:	f041 6180 	orr.w	r1, r1, #67108864	; 0x4000000
 8004768:	f8c3 1100 	str.w	r1, [r3, #256]	; 0x100
 800476c:	f503 7680 	add.w	r6, r3, #256	; 0x100
 8004770:	e896 0003 	ldmia.w	r6, {r0, r1}
 8004774:	f102 0520 	add.w	r5, r2, #32
 8004778:	eb03 05c5 	add.w	r5, r3, r5, lsl #3
 800477c:	e885 0003 	stmia.w	r5, {r0, r1}
 8004780:	e896 0003 	ldmia.w	r6, {r0, r1}
 8004784:	f102 0530 	add.w	r5, r2, #48	; 0x30
 8004788:	3201      	adds	r2, #1
 800478a:	eb03 05c5 	add.w	r5, r3, r5, lsl #3
 800478e:	2a10      	cmp	r2, #16
 8004790:	e885 0003 	stmia.w	r5, {r0, r1}
 8004794:	d1ec      	bne.n	8004770 <TIM6_DAC_IRQHandler+0x180>
 8004796:	4b09      	ldr	r3, [pc, #36]	; (80047bc <TIM6_DAC_IRQHandler+0x1cc>)
 8004798:	2202      	movs	r2, #2
 800479a:	701a      	strb	r2, [r3, #0]
 800479c:	4b08      	ldr	r3, [pc, #32]	; (80047c0 <TIM6_DAC_IRQHandler+0x1d0>)
 800479e:	e7b4      	b.n	800470a <TIM6_DAC_IRQHandler+0x11a>
 80047a0:	40001000 	.word	0x40001000
 80047a4:	200002a2 	.word	0x200002a2
 80047a8:	200002a3 	.word	0x200002a3
 80047ac:	20000898 	.word	0x20000898
 80047b0:	200002b9 	.word	0x200002b9
 80047b4:	200002b7 	.word	0x200002b7
 80047b8:	200002a8 	.word	0x200002a8
 80047bc:	200002ba 	.word	0x200002ba
 80047c0:	200002b8 	.word	0x200002b8
 80047c4:	00000000 	.word	0x00000000

080047c8 <main>:
 80047c8:	e92d 4ff0 	stmdb	sp!, {r4, r5, r6, r7, r8, r9, sl, fp, lr}
 80047cc:	4ca0      	ldr	r4, [pc, #640]	; (8004a50 <main+0x288>)
 80047ce:	2300      	movs	r3, #0
 80047d0:	7023      	strb	r3, [r4, #0]
 80047d2:	7823      	ldrb	r3, [r4, #0]
 80047d4:	f043 0301 	orr.w	r3, r3, #1
 80047d8:	7023      	strb	r3, [r4, #0]
 80047da:	7823      	ldrb	r3, [r4, #0]
 80047dc:	ed2d 8b02 	vpush	{d8}
 80047e0:	f043 0302 	orr.w	r3, r3, #2
 80047e4:	7023      	strb	r3, [r4, #0]
 80047e6:	4b9b      	ldr	r3, [pc, #620]	; (8004a54 <main+0x28c>)
 80047e8:	685a      	ldr	r2, [r3, #4]
 80047ea:	f042 0280 	orr.w	r2, r2, #128	; 0x80
 80047ee:	605a      	str	r2, [r3, #4]
 80047f0:	681a      	ldr	r2, [r3, #0]
 80047f2:	f042 6280 	orr.w	r2, r2, #67108864	; 0x4000000
 80047f6:	601a      	str	r2, [r3, #0]
 80047f8:	e893 0003 	ldmia.w	r3, {r0, r1}
 80047fc:	f503 7280 	add.w	r2, r3, #256	; 0x100
 8004800:	e882 0003 	stmia.w	r2, {r0, r1}
 8004804:	b08b      	sub	sp, #44	; 0x2c
 8004806:	2201      	movs	r2, #1
 8004808:	e893 0003 	ldmia.w	r3, {r0, r1}
 800480c:	eb03 05c2 	add.w	r5, r3, r2, lsl #3
 8004810:	e885 0003 	stmia.w	r5, {r0, r1}
 8004814:	e893 0003 	ldmia.w	r3, {r0, r1}
 8004818:	f102 0520 	add.w	r5, r2, #32
 800481c:	eb03 05c5 	add.w	r5, r3, r5, lsl #3
 8004820:	e885 0003 	stmia.w	r5, {r0, r1}
 8004824:	e893 0003 	ldmia.w	r3, {r0, r1}
 8004828:	f102 0510 	add.w	r5, r2, #16
 800482c:	eb03 05c5 	add.w	r5, r3, r5, lsl #3
 8004830:	e885 0003 	stmia.w	r5, {r0, r1}
 8004834:	e893 0003 	ldmia.w	r3, {r0, r1}
 8004838:	f102 0530 	add.w	r5, r2, #48	; 0x30
 800483c:	3201      	adds	r2, #1
 800483e:	eb03 05c5 	add.w	r5, r3, r5, lsl #3
 8004842:	2a10      	cmp	r2, #16
 8004844:	e885 0003 	stmia.w	r5, {r0, r1}
 8004848:	d1de      	bne.n	8004808 <main+0x40>
 800484a:	4883      	ldr	r0, [pc, #524]	; (8004a58 <main+0x290>)
 800484c:	4d83      	ldr	r5, [pc, #524]	; (8004a5c <main+0x294>)
 800484e:	f7fc fa7d 	bl	8000d4c <RCC_GetClocksFreq>
 8004852:	f7fe fbf7 	bl	8003044 <PulsesInit>
 8004856:	f7fe fc3f 	bl	80030d8 <DisplayLedsIOInit>
 800485a:	f7fc ff67 	bl	800172c <DipConfig_init>
 800485e:	f7fc ff7f 	bl	8001760 <GetDipConfig>
 8004862:	7028      	strb	r0, [r5, #0]
 8004864:	f7fd f81c 	bl	80018a0 <LED_STEP_init>
 8004868:	f64f 70ff 	movw	r0, #65535	; 0xffff
 800486c:	f7fd f85a 	bl	8001924 <LED_STEP_SendWord>
 8004870:	f44f 707a 	mov.w	r0, #1000	; 0x3e8
 8004874:	f7ff fea6 	bl	80045c4 <delay_ms>
 8004878:	7828      	ldrb	r0, [r5, #0]
 800487a:	f440 407f 	orr.w	r0, r0, #65280	; 0xff00
 800487e:	f040 00f0 	orr.w	r0, r0, #240	; 0xf0
 8004882:	f7fd f84f 	bl	8001924 <LED_STEP_SendWord>
 8004886:	f44f 707a 	mov.w	r0, #1000	; 0x3e8
 800488a:	f7ff fe9b 	bl	80045c4 <delay_ms>
 800488e:	f7fc fc61 	bl	8001154 <CAT25512_init>
 8004892:	f7fc ffa9 	bl	80017e8 <LEDS_modes_init>
 8004896:	a80a      	add	r0, sp, #40	; 0x28
 8004898:	f06f 0309 	mvn.w	r3, #9
 800489c:	f840 3d1c 	str.w	r3, [r0, #-28]!
 80048a0:	f7fc ffe2 	bl	8001868 <LEDS_modes_SendStruct>
 80048a4:	f7fc fd78 	bl	8001398 <init_HC165>
 80048a8:	f7fc fe12 	bl	80014d0 <GetButton>
 80048ac:	a366      	add	r3, pc, #408	; (adr r3, 8004a48 <main+0x280>)
 80048ae:	e9d3 2300 	ldrd	r2, r3, [r3]
 80048b2:	e9cd 0106 	strd	r0, r1, [sp, #24]
 80048b6:	e9cd 2308 	strd	r2, r3, [sp, #32]
 80048ba:	f7fc fe59 	bl	8001570 <MAX5135init>
 80048be:	f7fc fed7 	bl	8001670 <ADC_POTS_selector_init>
 80048c2:	2000      	movs	r0, #0
 80048c4:	f7fc ff28 	bl	8001718 <ADC_POTS_selector_Ch>
 80048c8:	f7fd f876 	bl	80019b8 <mADC_init>
 80048cc:	f7fe fa1a 	bl	8002d04 <mTimersInit>
 80048d0:	f7fd f91a 	bl	8001b08 <mInterruptInit>
 80048d4:	f7fe fc1a 	bl	800310c <InternalDACInit>
 80048d8:	f7fc ff66 	bl	80017a8 <Init_Expander_GPIO>
 80048dc:	4a60      	ldr	r2, [pc, #384]	; (8004a60 <main+0x298>)
 80048de:	2302      	movs	r3, #2
 80048e0:	7013      	strb	r3, [r2, #0]
 80048e2:	4a60      	ldr	r2, [pc, #384]	; (8004a64 <main+0x29c>)
 80048e4:	7013      	strb	r3, [r2, #0]
 80048e6:	f7fc fdf3 	bl	80014d0 <GetButton>
 80048ea:	e9cd 0106 	strd	r0, r1, [sp, #24]
 80048ee:	e9dd 2306 	ldrd	r2, r3, [sp, #24]
 80048f2:	f413 7f80 	tst.w	r3, #256	; 0x100
 80048f6:	e9cd 2304 	strd	r2, r3, [sp, #16]
 80048fa:	9501      	str	r5, [sp, #4]
 80048fc:	d114      	bne.n	8004928 <main+0x160>
 80048fe:	f7ff fdc3 	bl	8004488 <Calibration>
 8004902:	f8df 917c 	ldr.w	r9, [pc, #380]	; 8004a80 <main+0x2b8>
 8004906:	f8df 817c 	ldr.w	r8, [pc, #380]	; 8004a84 <main+0x2bc>
 800490a:	ed9f 8a57 	vldr	s16, [pc, #348]	; 8004a68 <main+0x2a0>
 800490e:	2500      	movs	r5, #0
 8004910:	9b01      	ldr	r3, [sp, #4]
 8004912:	781b      	ldrb	r3, [r3, #0]
 8004914:	0798      	lsls	r0, r3, #30
 8004916:	d51b      	bpl.n	8004950 <main+0x188>
 8004918:	f240 1399 	movw	r3, #409	; 0x199
 800491c:	f8c9 3000 	str.w	r3, [r9]
 8004920:	4b52      	ldr	r3, [pc, #328]	; (8004a6c <main+0x2a4>)
 8004922:	f8c8 3000 	str.w	r3, [r8]
 8004926:	e01d      	b.n	8004964 <main+0x19c>
 8004928:	2220      	movs	r2, #32
 800492a:	4951      	ldr	r1, [pc, #324]	; (8004a70 <main+0x2a8>)
 800492c:	f44f 4048 	mov.w	r0, #51200	; 0xc800
 8004930:	f7fc fd0c 	bl	800134c <CAT25512_read_block>
 8004934:	4a4e      	ldr	r2, [pc, #312]	; (8004a70 <main+0x2a8>)
 8004936:	2300      	movs	r3, #0
 8004938:	f640 71ff 	movw	r1, #4095	; 0xfff
 800493c:	f852 0023 	ldr.w	r0, [r2, r3, lsl #2]
 8004940:	2863      	cmp	r0, #99	; 0x63
 8004942:	bf98      	it	ls
 8004944:	f842 1023 	strls.w	r1, [r2, r3, lsl #2]
 8004948:	3301      	adds	r3, #1
 800494a:	2b08      	cmp	r3, #8
 800494c:	d1f6      	bne.n	800493c <main+0x174>
 800494e:	e7d8      	b.n	8004902 <main+0x13a>
 8004950:	9b01      	ldr	r3, [sp, #4]
 8004952:	781b      	ldrb	r3, [r3, #0]
 8004954:	07d9      	lsls	r1, r3, #31
 8004956:	d542      	bpl.n	80049de <main+0x216>
 8004958:	f240 13ed 	movw	r3, #493	; 0x1ed
 800495c:	f8c9 3000 	str.w	r3, [r9]
 8004960:	ed88 8a00 	vstr	s16, [r8]
 8004964:	2d00      	cmp	r5, #0
 8004966:	d140      	bne.n	80049ea <main+0x222>
 8004968:	f7fc fdb2 	bl	80014d0 <GetButton>
 800496c:	e9cd 0106 	strd	r0, r1, [sp, #24]
 8004970:	3501      	adds	r5, #1
 8004972:	b2ed      	uxtb	r5, r5
 8004974:	2d03      	cmp	r5, #3
 8004976:	bf28      	it	cs
 8004978:	2500      	movcs	r5, #0
 800497a:	7823      	ldrb	r3, [r4, #0]
 800497c:	07da      	lsls	r2, r3, #31
 800497e:	d516      	bpl.n	80049ae <main+0x1e6>
 8004980:	f7ff fb78 	bl	8004074 <UpdateModeSection>
 8004984:	7823      	ldrb	r3, [r4, #0]
 8004986:	f36f 0300 	bfc	r3, #0, #1
 800498a:	7023      	strb	r3, [r4, #0]
 800498c:	4b39      	ldr	r3, [pc, #228]	; (8004a74 <main+0x2ac>)
 800498e:	781a      	ldrb	r2, [r3, #0]
 8004990:	2a04      	cmp	r2, #4
 8004992:	d008      	beq.n	80049a6 <main+0x1de>
 8004994:	781a      	ldrb	r2, [r3, #0]
 8004996:	2a05      	cmp	r2, #5
 8004998:	d005      	beq.n	80049a6 <main+0x1de>
 800499a:	781a      	ldrb	r2, [r3, #0]
 800499c:	2a06      	cmp	r2, #6
 800499e:	d002      	beq.n	80049a6 <main+0x1de>
 80049a0:	781b      	ldrb	r3, [r3, #0]
 80049a2:	2b07      	cmp	r3, #7
 80049a4:	d103      	bne.n	80049ae <main+0x1e6>
 80049a6:	7823      	ldrb	r3, [r4, #0]
 80049a8:	f043 0301 	orr.w	r3, r3, #1
 80049ac:	7023      	strb	r3, [r4, #0]
 80049ae:	7823      	ldrb	r3, [r4, #0]
 80049b0:	079b      	lsls	r3, r3, #30
 80049b2:	d505      	bpl.n	80049c0 <main+0x1f8>
 80049b4:	f7ff fd38 	bl	8004428 <UpdateStepSection>
 80049b8:	7823      	ldrb	r3, [r4, #0]
 80049ba:	f36f 0341 	bfc	r3, #1, #1
 80049be:	7023      	strb	r3, [r4, #0]
 80049c0:	4f2d      	ldr	r7, [pc, #180]	; (8004a78 <main+0x2b0>)
 80049c2:	f8df a0ac 	ldr.w	sl, [pc, #172]	; 8004a70 <main+0x2a8>
 80049c6:	2600      	movs	r6, #0
 80049c8:	f7fc ff08 	bl	80017dc <Is_Expander_Present>
 80049cc:	2800      	cmp	r0, #0
 80049ce:	d15b      	bne.n	8004a88 <main+0x2c0>
 80049d0:	5dbb      	ldrb	r3, [r7, r6]
 80049d2:	2b10      	cmp	r3, #16
 80049d4:	d901      	bls.n	80049da <main+0x212>
 80049d6:	2301      	movs	r3, #1
 80049d8:	55bb      	strb	r3, [r7, r6]
 80049da:	200f      	movs	r0, #15
 80049dc:	e055      	b.n	8004a8a <main+0x2c2>
 80049de:	f240 3333 	movw	r3, #819	; 0x333
 80049e2:	f8c9 3000 	str.w	r3, [r9]
 80049e6:	4b25      	ldr	r3, [pc, #148]	; (8004a7c <main+0x2b4>)
 80049e8:	e79b      	b.n	8004922 <main+0x15a>
 80049ea:	2d02      	cmp	r5, #2
 80049ec:	d1c0      	bne.n	8004970 <main+0x1a8>
 80049ee:	f7fc fd6f 	bl	80014d0 <GetButton>
 80049f2:	e9dd 2306 	ldrd	r2, r3, [sp, #24]
 80049f6:	4299      	cmp	r1, r3
 80049f8:	bf08      	it	eq
 80049fa:	4290      	cmpeq	r0, r2
 80049fc:	f040 80a4 	bne.w	8004b48 <main+0x380>
 8004a00:	491c      	ldr	r1, [pc, #112]	; (8004a74 <main+0x2ac>)
 8004a02:	e9dd 2306 	ldrd	r2, r3, [sp, #24]
 8004a06:	7808      	ldrb	r0, [r1, #0]
 8004a08:	2804      	cmp	r0, #4
 8004a0a:	e9cd 2304 	strd	r2, r3, [sp, #16]
 8004a0e:	d006      	beq.n	8004a1e <main+0x256>
 8004a10:	7808      	ldrb	r0, [r1, #0]
 8004a12:	2805      	cmp	r0, #5
 8004a14:	d003      	beq.n	8004a1e <main+0x256>
 8004a16:	7808      	ldrb	r0, [r1, #0]
 8004a18:	2806      	cmp	r0, #6
 8004a1a:	bf18      	it	ne
 8004a1c:	7809      	ldrbne	r1, [r1, #0]
 8004a1e:	e9dd 6706 	ldrd	r6, r7, [sp, #24]
 8004a22:	e9dd 0108 	ldrd	r0, r1, [sp, #32]
 8004a26:	428f      	cmp	r7, r1
 8004a28:	bf08      	it	eq
 8004a2a:	4286      	cmpeq	r6, r0
 8004a2c:	d104      	bne.n	8004a38 <main+0x270>
 8004a2e:	f002 020c 	and.w	r2, r2, #12
 8004a32:	2a0c      	cmp	r2, #12
 8004a34:	f000 8088 	beq.w	8004b48 <main+0x380>
 8004a38:	a804      	add	r0, sp, #16
 8004a3a:	f7fe fba1 	bl	8003180 <keyb_proc>
 8004a3e:	e9dd 2306 	ldrd	r2, r3, [sp, #24]
 8004a42:	e9cd 2308 	strd	r2, r3, [sp, #32]
 8004a46:	e793      	b.n	8004970 <main+0x1a8>
 8004a48:	f7fffdff 	.word	0xf7fffdff
 8004a4c:	007fbf67 	.word	0x007fbf67
 8004a50:	200002e8 	.word	0x200002e8
 8004a54:	20000898 	.word	0x20000898
 8004a58:	20000b18 	.word	0x20000b18
 8004a5c:	200002e0 	.word	0x200002e0
 8004a60:	200002b9 	.word	0x200002b9
 8004a64:	200002ba 	.word	0x200002ba
 8004a68:	4104a3d7 	.word	0x4104a3d7
 8004a6c:	41200000 	.word	0x41200000
 8004a70:	20000250 	.word	0x20000250
 8004a74:	200002a8 	.word	0x200002a8
 8004a78:	20000271 	.word	0x20000271
 8004a7c:	40a00000 	.word	0x40a00000
 8004a80:	20000894 	.word	0x20000894
 8004a84:	2000088c 	.word	0x2000088c
 8004a88:	201f      	movs	r0, #31
 8004a8a:	5dbb      	ldrb	r3, [r7, r6]
 8004a8c:	4a2f      	ldr	r2, [pc, #188]	; (8004b4c <main+0x384>)
 8004a8e:	b2db      	uxtb	r3, r3
 8004a90:	5593      	strb	r3, [r2, r6]
 8004a92:	5dbb      	ldrb	r3, [r7, r6]
 8004a94:	4283      	cmp	r3, r0
 8004a96:	d84e      	bhi.n	8004b36 <main+0x36e>
 8004a98:	1db3      	adds	r3, r6, #6
 8004a9a:	5dba      	ldrb	r2, [r7, r6]
 8004a9c:	f85a 3023 	ldr.w	r3, [sl, r3, lsl #2]
 8004aa0:	4353      	muls	r3, r2
 8004aa2:	1c42      	adds	r2, r0, #1
 8004aa4:	fbb3 f3f2 	udiv	r3, r3, r2
 8004aa8:	3314      	adds	r3, #20
 8004aaa:	b29b      	uxth	r3, r3
 8004aac:	5dba      	ldrb	r2, [r7, r6]
 8004aae:	2a01      	cmp	r2, #1
 8004ab0:	d943      	bls.n	8004b3a <main+0x372>
 8004ab2:	1db2      	adds	r2, r6, #6
 8004ab4:	5db9      	ldrb	r1, [r7, r6]
 8004ab6:	f85a 2022 	ldr.w	r2, [sl, r2, lsl #2]
 8004aba:	3901      	subs	r1, #1
 8004abc:	434a      	muls	r2, r1
 8004abe:	1c41      	adds	r1, r0, #1
 8004ac0:	fbb2 f2f1 	udiv	r2, r2, r1
 8004ac4:	3a14      	subs	r2, #20
 8004ac6:	fa1f fc82 	uxth.w	ip, r2
 8004aca:	220a      	movs	r2, #10
 8004acc:	9200      	str	r2, [sp, #0]
 8004ace:	f640 7eff 	movw	lr, #4095	; 0xfff
 8004ad2:	2200      	movs	r2, #0
 8004ad4:	491e      	ldr	r1, [pc, #120]	; (8004b50 <main+0x388>)
 8004ad6:	2e00      	cmp	r6, #0
 8004ad8:	d132      	bne.n	8004b40 <main+0x378>
 8004ada:	6989      	ldr	r1, [r1, #24]
 8004adc:	f8da b018 	ldr.w	fp, [sl, #24]
 8004ae0:	ebc1 3101 	rsb	r1, r1, r1, lsl #12
 8004ae4:	fbb1 f1fb 	udiv	r1, r1, fp
 8004ae8:	b289      	uxth	r1, r1
 8004aea:	4571      	cmp	r1, lr
 8004aec:	bf94      	ite	ls
 8004aee:	1852      	addls	r2, r2, r1
 8004af0:	4472      	addhi	r2, lr
 8004af2:	9900      	ldr	r1, [sp, #0]
 8004af4:	3901      	subs	r1, #1
 8004af6:	9100      	str	r1, [sp, #0]
 8004af8:	d1ec      	bne.n	8004ad4 <main+0x30c>
 8004afa:	5db9      	ldrb	r1, [r7, r6]
 8004afc:	4281      	cmp	r1, r0
 8004afe:	d808      	bhi.n	8004b12 <main+0x34a>
 8004b00:	210a      	movs	r1, #10
 8004b02:	fb92 f1f1 	sdiv	r1, r2, r1
 8004b06:	4299      	cmp	r1, r3
 8004b08:	bfc1      	itttt	gt
 8004b0a:	5dbb      	ldrbgt	r3, [r7, r6]
 8004b0c:	3301      	addgt	r3, #1
 8004b0e:	b2db      	uxtbgt	r3, r3
 8004b10:	55bb      	strbgt	r3, [r7, r6]
 8004b12:	5dbb      	ldrb	r3, [r7, r6]
 8004b14:	2b01      	cmp	r3, #1
 8004b16:	d909      	bls.n	8004b2c <main+0x364>
 8004b18:	230a      	movs	r3, #10
 8004b1a:	fb92 f2f3 	sdiv	r2, r2, r3
 8004b1e:	4562      	cmp	r2, ip
 8004b20:	bfbf      	itttt	lt
 8004b22:	5dbb      	ldrblt	r3, [r7, r6]
 8004b24:	f103 33ff 	addlt.w	r3, r3, #4294967295	; 0xffffffff
 8004b28:	b2db      	uxtblt	r3, r3
 8004b2a:	55bb      	strblt	r3, [r7, r6]
 8004b2c:	2e00      	cmp	r6, #0
 8004b2e:	f47f aeef 	bne.w	8004910 <main+0x148>
 8004b32:	2601      	movs	r6, #1
 8004b34:	e748      	b.n	80049c8 <main+0x200>
 8004b36:	2300      	movs	r3, #0
 8004b38:	e7b8      	b.n	8004aac <main+0x2e4>
 8004b3a:	f04f 0c00 	mov.w	ip, #0
 8004b3e:	e7c4      	b.n	8004aca <main+0x302>
 8004b40:	69c9      	ldr	r1, [r1, #28]
 8004b42:	f8da b01c 	ldr.w	fp, [sl, #28]
 8004b46:	e7cb      	b.n	8004ae0 <main+0x318>
 8004b48:	2500      	movs	r5, #0
 8004b4a:	e716      	b.n	800497a <main+0x1b2>
 8004b4c:	20000273 	.word	0x20000273
 8004b50:	200007ec 	.word	0x200007ec

08004b54 <delay_us>:
 8004b54:	b510      	push	{r4, lr}
 8004b56:	b086      	sub	sp, #24
 8004b58:	4604      	mov	r4, r0
 8004b5a:	a802      	add	r0, sp, #8
 8004b5c:	f7fc f8f6 	bl	8000d4c <RCC_GetClocksFreq>
 8004b60:	9b03      	ldr	r3, [sp, #12]
 8004b62:	4a06      	ldr	r2, [pc, #24]	; (8004b7c <delay_us+0x28>)
 8004b64:	fbb3 f3f2 	udiv	r3, r3, r2
 8004b68:	435c      	muls	r4, r3
 8004b6a:	9401      	str	r4, [sp, #4]
 8004b6c:	9b01      	ldr	r3, [sp, #4]
 8004b6e:	b90b      	cbnz	r3, 8004b74 <delay_us+0x20>
 8004b70:	b006      	add	sp, #24
 8004b72:	bd10      	pop	{r4, pc}
 8004b74:	9b01      	ldr	r3, [sp, #4]
 8004b76:	3b01      	subs	r3, #1
 8004b78:	9301      	str	r3, [sp, #4]
 8004b7a:	e7f7      	b.n	8004b6c <delay_us+0x18>
 8004b7c:	00989680 	.word	0x00989680

08004b80 <ADC_IRQHandler>:
 8004b80:	b5f8      	push	{r3, r4, r5, r6, r7, lr}
 8004b82:	4cbe      	ldr	r4, [pc, #760]	; (8004e7c <ADC_IRQHandler+0x2fc>)
 8004b84:	2102      	movs	r1, #2
 8004b86:	4620      	mov	r0, r4
 8004b88:	f7fb ffc3 	bl	8000b12 <ADC_GetFlagStatus>
 8004b8c:	2801      	cmp	r0, #1
 8004b8e:	4620      	mov	r0, r4
 8004b90:	f040 81d4 	bne.w	8004f3c <ADC_IRQHandler+0x3bc>
 8004b94:	4bba      	ldr	r3, [pc, #744]	; (8004e80 <ADC_IRQHandler+0x300>)
 8004b96:	781a      	ldrb	r2, [r3, #0]
 8004b98:	2a0f      	cmp	r2, #15
 8004b9a:	f200 816d 	bhi.w	8004e78 <ADC_IRQHandler+0x2f8>
 8004b9e:	781a      	ldrb	r2, [r3, #0]
 8004ba0:	49b8      	ldr	r1, [pc, #736]	; (8004e84 <ADC_IRQHandler+0x304>)
 8004ba2:	3220      	adds	r2, #32
 8004ba4:	eb01 02c2 	add.w	r2, r1, r2, lsl #3
 8004ba8:	6852      	ldr	r2, [r2, #4]
 8004baa:	6ce4      	ldr	r4, [r4, #76]	; 0x4c
 8004bac:	f412 5f00 	tst.w	r2, #8192	; 0x2000
 8004bb0:	781a      	ldrb	r2, [r3, #0]
 8004bb2:	f000 810c 	beq.w	8004dce <ADC_IRQHandler+0x24e>
 8004bb6:	3220      	adds	r2, #32
 8004bb8:	f851 2032 	ldr.w	r2, [r1, r2, lsl #3]
 8004bbc:	f3c2 1207 	ubfx	r2, r2, #4, #8
 8004bc0:	ebb2 1f14 	cmp.w	r2, r4, lsr #4
 8004bc4:	d107      	bne.n	8004bd6 <ADC_IRQHandler+0x56>
 8004bc6:	781a      	ldrb	r2, [r3, #0]
 8004bc8:	3220      	adds	r2, #32
 8004bca:	eb01 02c2 	add.w	r2, r1, r2, lsl #3
 8004bce:	6854      	ldr	r4, [r2, #4]
 8004bd0:	f36f 344d 	bfc	r4, #13, #1
 8004bd4:	6054      	str	r4, [r2, #4]
 8004bd6:	781a      	ldrb	r2, [r3, #0]
 8004bd8:	eb01 02c2 	add.w	r2, r1, r2, lsl #3
 8004bdc:	6854      	ldr	r4, [r2, #4]
 8004bde:	f3c4 3440 	ubfx	r4, r4, #13, #1
 8004be2:	2c00      	cmp	r4, #0
 8004be4:	f000 811c 	beq.w	8004e20 <ADC_IRQHandler+0x2a0>
 8004be8:	6cc5      	ldr	r5, [r0, #76]	; 0x4c
 8004bea:	781a      	ldrb	r2, [r3, #0]
 8004bec:	b2d2      	uxtb	r2, r2
 8004bee:	f851 2032 	ldr.w	r2, [r1, r2, lsl #3]
 8004bf2:	f3c2 1207 	ubfx	r2, r2, #4, #8
 8004bf6:	ebb2 1f15 	cmp.w	r2, r5, lsr #4
 8004bfa:	d106      	bne.n	8004c0a <ADC_IRQHandler+0x8a>
 8004bfc:	781a      	ldrb	r2, [r3, #0]
 8004bfe:	eb01 01c2 	add.w	r1, r1, r2, lsl #3
 8004c02:	684a      	ldr	r2, [r1, #4]
 8004c04:	f36f 324d 	bfc	r2, #13, #1
 8004c08:	604a      	str	r2, [r1, #4]
 8004c0a:	781a      	ldrb	r2, [r3, #0]
 8004c0c:	2a27      	cmp	r2, #39	; 0x27
 8004c0e:	d937      	bls.n	8004c80 <ADC_IRQHandler+0x100>
 8004c10:	781a      	ldrb	r2, [r3, #0]
 8004c12:	2a37      	cmp	r2, #55	; 0x37
 8004c14:	d834      	bhi.n	8004c80 <ADC_IRQHandler+0x100>
 8004c16:	7819      	ldrb	r1, [r3, #0]
 8004c18:	4a9a      	ldr	r2, [pc, #616]	; (8004e84 <ADC_IRQHandler+0x304>)
 8004c1a:	3108      	adds	r1, #8
 8004c1c:	eb02 01c1 	add.w	r1, r2, r1, lsl #3
 8004c20:	6849      	ldr	r1, [r1, #4]
 8004c22:	048d      	lsls	r5, r1, #18
 8004c24:	f140 8136 	bpl.w	8004e94 <ADC_IRQHandler+0x314>
 8004c28:	6cc4      	ldr	r4, [r0, #76]	; 0x4c
 8004c2a:	7819      	ldrb	r1, [r3, #0]
 8004c2c:	3108      	adds	r1, #8
 8004c2e:	f852 1031 	ldr.w	r1, [r2, r1, lsl #3]
 8004c32:	f3c1 010b 	ubfx	r1, r1, #0, #12
 8004c36:	428c      	cmp	r4, r1
 8004c38:	d107      	bne.n	8004c4a <ADC_IRQHandler+0xca>
 8004c3a:	7819      	ldrb	r1, [r3, #0]
 8004c3c:	3108      	adds	r1, #8
 8004c3e:	eb02 01c1 	add.w	r1, r2, r1, lsl #3
 8004c42:	684c      	ldr	r4, [r1, #4]
 8004c44:	f36f 344d 	bfc	r4, #13, #1
 8004c48:	604c      	str	r4, [r1, #4]
 8004c4a:	7819      	ldrb	r1, [r3, #0]
 8004c4c:	3918      	subs	r1, #24
 8004c4e:	eb02 01c1 	add.w	r1, r2, r1, lsl #3
 8004c52:	684c      	ldr	r4, [r1, #4]
 8004c54:	6cc5      	ldr	r5, [r0, #76]	; 0x4c
 8004c56:	f3c4 3440 	ubfx	r4, r4, #13, #1
 8004c5a:	2c00      	cmp	r4, #0
 8004c5c:	f000 812d 	beq.w	8004eba <ADC_IRQHandler+0x33a>
 8004c60:	7819      	ldrb	r1, [r3, #0]
 8004c62:	3918      	subs	r1, #24
 8004c64:	f852 1031 	ldr.w	r1, [r2, r1, lsl #3]
 8004c68:	f3c1 010b 	ubfx	r1, r1, #0, #12
 8004c6c:	428d      	cmp	r5, r1
 8004c6e:	d107      	bne.n	8004c80 <ADC_IRQHandler+0x100>
 8004c70:	7819      	ldrb	r1, [r3, #0]
 8004c72:	3918      	subs	r1, #24
 8004c74:	eb02 02c1 	add.w	r2, r2, r1, lsl #3
 8004c78:	6851      	ldr	r1, [r2, #4]
 8004c7a:	f36f 314d 	bfc	r1, #13, #1
 8004c7e:	6051      	str	r1, [r2, #4]
 8004c80:	781a      	ldrb	r2, [r3, #0]
 8004c82:	2a37      	cmp	r2, #55	; 0x37
 8004c84:	d930      	bls.n	8004ce8 <ADC_IRQHandler+0x168>
 8004c86:	781a      	ldrb	r2, [r3, #0]
 8004c88:	2a47      	cmp	r2, #71	; 0x47
 8004c8a:	d82d      	bhi.n	8004ce8 <ADC_IRQHandler+0x168>
 8004c8c:	6cc5      	ldr	r5, [r0, #76]	; 0x4c
 8004c8e:	781a      	ldrb	r2, [r3, #0]
 8004c90:	4c7c      	ldr	r4, [pc, #496]	; (8004e84 <ADC_IRQHandler+0x304>)
 8004c92:	3a28      	subs	r2, #40	; 0x28
 8004c94:	f854 6032 	ldr.w	r6, [r4, r2, lsl #3]
 8004c98:	781a      	ldrb	r2, [r3, #0]
 8004c9a:	3a28      	subs	r2, #40	; 0x28
 8004c9c:	f3c6 360b 	ubfx	r6, r6, #12, #12
 8004ca0:	f854 1032 	ldr.w	r1, [r4, r2, lsl #3]
 8004ca4:	1bad      	subs	r5, r5, r6
 8004ca6:	f3c1 310b 	ubfx	r1, r1, #12, #12
 8004caa:	eb01 1115 	add.w	r1, r1, r5, lsr #4
 8004cae:	f854 5032 	ldr.w	r5, [r4, r2, lsl #3]
 8004cb2:	f361 3517 	bfi	r5, r1, #12, #12
 8004cb6:	f844 5032 	str.w	r5, [r4, r2, lsl #3]
 8004cba:	6cc5      	ldr	r5, [r0, #76]	; 0x4c
 8004cbc:	781a      	ldrb	r2, [r3, #0]
 8004cbe:	3a08      	subs	r2, #8
 8004cc0:	f854 6032 	ldr.w	r6, [r4, r2, lsl #3]
 8004cc4:	781a      	ldrb	r2, [r3, #0]
 8004cc6:	3a08      	subs	r2, #8
 8004cc8:	f3c6 360b 	ubfx	r6, r6, #12, #12
 8004ccc:	f854 1032 	ldr.w	r1, [r4, r2, lsl #3]
 8004cd0:	1bad      	subs	r5, r5, r6
 8004cd2:	f3c1 310b 	ubfx	r1, r1, #12, #12
 8004cd6:	eb01 1115 	add.w	r1, r1, r5, lsr #4
 8004cda:	f854 5032 	ldr.w	r5, [r4, r2, lsl #3]
 8004cde:	f361 3517 	bfi	r5, r1, #12, #12
 8004ce2:	f844 5032 	str.w	r5, [r4, r2, lsl #3]
 8004ce6:	2401      	movs	r4, #1
 8004ce8:	781a      	ldrb	r2, [r3, #0]
 8004cea:	2a17      	cmp	r2, #23
 8004cec:	d938      	bls.n	8004d60 <ADC_IRQHandler+0x1e0>
 8004cee:	781a      	ldrb	r2, [r3, #0]
 8004cf0:	2a27      	cmp	r2, #39	; 0x27
 8004cf2:	d835      	bhi.n	8004d60 <ADC_IRQHandler+0x1e0>
 8004cf4:	7819      	ldrb	r1, [r3, #0]
 8004cf6:	4a63      	ldr	r2, [pc, #396]	; (8004e84 <ADC_IRQHandler+0x304>)
 8004cf8:	3918      	subs	r1, #24
 8004cfa:	eb02 01c1 	add.w	r1, r2, r1, lsl #3
 8004cfe:	6849      	ldr	r1, [r1, #4]
 8004d00:	044c      	lsls	r4, r1, #17
 8004d02:	f140 80ed 	bpl.w	8004ee0 <ADC_IRQHandler+0x360>
 8004d06:	7819      	ldrb	r1, [r3, #0]
 8004d08:	3918      	subs	r1, #24
 8004d0a:	f852 1031 	ldr.w	r1, [r2, r1, lsl #3]
 8004d0e:	6cc4      	ldr	r4, [r0, #76]	; 0x4c
 8004d10:	f3c1 4107 	ubfx	r1, r1, #16, #8
 8004d14:	ebb1 1f14 	cmp.w	r1, r4, lsr #4
 8004d18:	d107      	bne.n	8004d2a <ADC_IRQHandler+0x1aa>
 8004d1a:	7819      	ldrb	r1, [r3, #0]
 8004d1c:	3918      	subs	r1, #24
 8004d1e:	eb02 01c1 	add.w	r1, r2, r1, lsl #3
 8004d22:	684c      	ldr	r4, [r1, #4]
 8004d24:	f36f 348e 	bfc	r4, #14, #1
 8004d28:	604c      	str	r4, [r1, #4]
 8004d2a:	7819      	ldrb	r1, [r3, #0]
 8004d2c:	3108      	adds	r1, #8
 8004d2e:	eb02 01c1 	add.w	r1, r2, r1, lsl #3
 8004d32:	6849      	ldr	r1, [r1, #4]
 8004d34:	0449      	lsls	r1, r1, #17
 8004d36:	f140 80ea 	bpl.w	8004f0e <ADC_IRQHandler+0x38e>
 8004d3a:	7819      	ldrb	r1, [r3, #0]
 8004d3c:	3108      	adds	r1, #8
 8004d3e:	f852 1031 	ldr.w	r1, [r2, r1, lsl #3]
 8004d42:	6cc0      	ldr	r0, [r0, #76]	; 0x4c
 8004d44:	f3c1 4107 	ubfx	r1, r1, #16, #8
 8004d48:	ebb1 1f10 	cmp.w	r1, r0, lsr #4
 8004d4c:	d107      	bne.n	8004d5e <ADC_IRQHandler+0x1de>
 8004d4e:	781b      	ldrb	r3, [r3, #0]
 8004d50:	3308      	adds	r3, #8
 8004d52:	eb02 02c3 	add.w	r2, r2, r3, lsl #3
 8004d56:	6853      	ldr	r3, [r2, #4]
 8004d58:	f36f 338e 	bfc	r3, #14, #1
 8004d5c:	6053      	str	r3, [r2, #4]
 8004d5e:	2401      	movs	r4, #1
 8004d60:	2102      	movs	r1, #2
 8004d62:	4846      	ldr	r0, [pc, #280]	; (8004e7c <ADC_IRQHandler+0x2fc>)
 8004d64:	f7fb fedb 	bl	8000b1e <ADC_ClearFlag>
 8004d68:	4d47      	ldr	r5, [pc, #284]	; (8004e88 <ADC_IRQHandler+0x308>)
 8004d6a:	2102      	movs	r1, #2
 8004d6c:	4628      	mov	r0, r5
 8004d6e:	f7fb fed0 	bl	8000b12 <ADC_GetFlagStatus>
 8004d72:	2801      	cmp	r0, #1
 8004d74:	d111      	bne.n	8004d9a <ADC_IRQHandler+0x21a>
 8004d76:	4b42      	ldr	r3, [pc, #264]	; (8004e80 <ADC_IRQHandler+0x300>)
 8004d78:	781a      	ldrb	r2, [r3, #0]
 8004d7a:	2a0f      	cmp	r2, #15
 8004d7c:	d909      	bls.n	8004d92 <ADC_IRQHandler+0x212>
 8004d7e:	781a      	ldrb	r2, [r3, #0]
 8004d80:	2a17      	cmp	r2, #23
 8004d82:	d806      	bhi.n	8004d92 <ADC_IRQHandler+0x212>
 8004d84:	781b      	ldrb	r3, [r3, #0]
 8004d86:	4a41      	ldr	r2, [pc, #260]	; (8004e8c <ADC_IRQHandler+0x30c>)
 8004d88:	6ce9      	ldr	r1, [r5, #76]	; 0x4c
 8004d8a:	3b10      	subs	r3, #16
 8004d8c:	4604      	mov	r4, r0
 8004d8e:	f842 1023 	str.w	r1, [r2, r3, lsl #2]
 8004d92:	2102      	movs	r1, #2
 8004d94:	483c      	ldr	r0, [pc, #240]	; (8004e88 <ADC_IRQHandler+0x308>)
 8004d96:	f7fb fec2 	bl	8000b1e <ADC_ClearFlag>
 8004d9a:	f7fc fd1f 	bl	80017dc <Is_Expander_Present>
 8004d9e:	2800      	cmp	r0, #0
 8004da0:	f000 80ce 	beq.w	8004f40 <ADC_IRQHandler+0x3c0>
 8004da4:	2c00      	cmp	r4, #0
 8004da6:	f000 80d6 	beq.w	8004f56 <ADC_IRQHandler+0x3d6>
 8004daa:	4b35      	ldr	r3, [pc, #212]	; (8004e80 <ADC_IRQHandler+0x300>)
 8004dac:	781a      	ldrb	r2, [r3, #0]
 8004dae:	3201      	adds	r2, #1
 8004db0:	b2d2      	uxtb	r2, r2
 8004db2:	701a      	strb	r2, [r3, #0]
 8004db4:	781a      	ldrb	r2, [r3, #0]
 8004db6:	2a47      	cmp	r2, #71	; 0x47
 8004db8:	d901      	bls.n	8004dbe <ADC_IRQHandler+0x23e>
 8004dba:	2200      	movs	r2, #0
 8004dbc:	701a      	strb	r2, [r3, #0]
 8004dbe:	7818      	ldrb	r0, [r3, #0]
 8004dc0:	f7fc fcaa 	bl	8001718 <ADC_POTS_selector_Ch>
 8004dc4:	200a      	movs	r0, #10
 8004dc6:	e8bd 40f8 	ldmia.w	sp!, {r3, r4, r5, r6, r7, lr}
 8004dca:	f7ff bec3 	b.w	8004b54 <delay_us>
 8004dce:	4d30      	ldr	r5, [pc, #192]	; (8004e90 <ADC_IRQHandler+0x310>)
 8004dd0:	3220      	adds	r2, #32
 8004dd2:	b2a4      	uxth	r4, r4
 8004dd4:	f835 7012 	ldrh.w	r7, [r5, r2, lsl #1]
 8004dd8:	781e      	ldrb	r6, [r3, #0]
 8004dda:	3620      	adds	r6, #32
 8004ddc:	1be4      	subs	r4, r4, r7
 8004dde:	f835 2016 	ldrh.w	r2, [r5, r6, lsl #1]
 8004de2:	eb02 1224 	add.w	r2, r2, r4, asr #4
 8004de6:	b292      	uxth	r2, r2
 8004de8:	f825 2016 	strh.w	r2, [r5, r6, lsl #1]
 8004dec:	781a      	ldrb	r2, [r3, #0]
 8004dee:	3220      	adds	r2, #32
 8004df0:	f835 5012 	ldrh.w	r5, [r5, r2, lsl #1]
 8004df4:	781a      	ldrb	r2, [r3, #0]
 8004df6:	3220      	adds	r2, #32
 8004df8:	f851 6032 	ldr.w	r6, [r1, r2, lsl #3]
 8004dfc:	781a      	ldrb	r2, [r3, #0]
 8004dfe:	3220      	adds	r2, #32
 8004e00:	f3c6 060b 	ubfx	r6, r6, #0, #12
 8004e04:	f851 4032 	ldr.w	r4, [r1, r2, lsl #3]
 8004e08:	1bad      	subs	r5, r5, r6
 8004e0a:	f3c4 040b 	ubfx	r4, r4, #0, #12
 8004e0e:	eb04 1425 	add.w	r4, r4, r5, asr #4
 8004e12:	f851 5032 	ldr.w	r5, [r1, r2, lsl #3]
 8004e16:	f364 050b 	bfi	r5, r4, #0, #12
 8004e1a:	f841 5032 	str.w	r5, [r1, r2, lsl #3]
 8004e1e:	e6da      	b.n	8004bd6 <ADC_IRQHandler+0x56>
 8004e20:	6cc4      	ldr	r4, [r0, #76]	; 0x4c
 8004e22:	781a      	ldrb	r2, [r3, #0]
 8004e24:	4d1a      	ldr	r5, [pc, #104]	; (8004e90 <ADC_IRQHandler+0x310>)
 8004e26:	b2d2      	uxtb	r2, r2
 8004e28:	b2a4      	uxth	r4, r4
 8004e2a:	f835 7012 	ldrh.w	r7, [r5, r2, lsl #1]
 8004e2e:	781e      	ldrb	r6, [r3, #0]
 8004e30:	b2f6      	uxtb	r6, r6
 8004e32:	1be4      	subs	r4, r4, r7
 8004e34:	f835 2016 	ldrh.w	r2, [r5, r6, lsl #1]
 8004e38:	eb02 1224 	add.w	r2, r2, r4, asr #4
 8004e3c:	b292      	uxth	r2, r2
 8004e3e:	f825 2016 	strh.w	r2, [r5, r6, lsl #1]
 8004e42:	781a      	ldrb	r2, [r3, #0]
 8004e44:	b2d2      	uxtb	r2, r2
 8004e46:	f835 5012 	ldrh.w	r5, [r5, r2, lsl #1]
 8004e4a:	781a      	ldrb	r2, [r3, #0]
 8004e4c:	b2d2      	uxtb	r2, r2
 8004e4e:	f851 6032 	ldr.w	r6, [r1, r2, lsl #3]
 8004e52:	781a      	ldrb	r2, [r3, #0]
 8004e54:	b2d2      	uxtb	r2, r2
 8004e56:	f3c6 060b 	ubfx	r6, r6, #0, #12
 8004e5a:	f851 4032 	ldr.w	r4, [r1, r2, lsl #3]
 8004e5e:	1bad      	subs	r5, r5, r6
 8004e60:	f3c4 040b 	ubfx	r4, r4, #0, #12
 8004e64:	eb04 1425 	add.w	r4, r4, r5, asr #4
 8004e68:	f851 5032 	ldr.w	r5, [r1, r2, lsl #3]
 8004e6c:	f364 050b 	bfi	r5, r4, #0, #12
 8004e70:	f841 5032 	str.w	r5, [r1, r2, lsl #3]
 8004e74:	2401      	movs	r4, #1
 8004e76:	e6c8      	b.n	8004c0a <ADC_IRQHandler+0x8a>
 8004e78:	2400      	movs	r4, #0
 8004e7a:	e6c6      	b.n	8004c0a <ADC_IRQHandler+0x8a>
 8004e7c:	40012000 	.word	0x40012000
 8004e80:	20000294 	.word	0x20000294
 8004e84:	20000898 	.word	0x20000898
 8004e88:	40012100 	.word	0x40012100
 8004e8c:	200007ec 	.word	0x200007ec
 8004e90:	20000a98 	.word	0x20000a98
 8004e94:	6cc5      	ldr	r5, [r0, #76]	; 0x4c
 8004e96:	781c      	ldrb	r4, [r3, #0]
 8004e98:	3408      	adds	r4, #8
 8004e9a:	f852 1034 	ldr.w	r1, [r2, r4, lsl #3]
 8004e9e:	781c      	ldrb	r4, [r3, #0]
 8004ea0:	3408      	adds	r4, #8
 8004ea2:	f3c1 010b 	ubfx	r1, r1, #0, #12
 8004ea6:	4429      	add	r1, r5
 8004ea8:	f852 5034 	ldr.w	r5, [r2, r4, lsl #3]
 8004eac:	f3c1 014b 	ubfx	r1, r1, #1, #12
 8004eb0:	f361 050b 	bfi	r5, r1, #0, #12
 8004eb4:	f842 5034 	str.w	r5, [r2, r4, lsl #3]
 8004eb8:	e6c7      	b.n	8004c4a <ADC_IRQHandler+0xca>
 8004eba:	781c      	ldrb	r4, [r3, #0]
 8004ebc:	3c18      	subs	r4, #24
 8004ebe:	f852 1034 	ldr.w	r1, [r2, r4, lsl #3]
 8004ec2:	781c      	ldrb	r4, [r3, #0]
 8004ec4:	3c18      	subs	r4, #24
 8004ec6:	f3c1 010b 	ubfx	r1, r1, #0, #12
 8004eca:	4429      	add	r1, r5
 8004ecc:	f852 5034 	ldr.w	r5, [r2, r4, lsl #3]
 8004ed0:	f3c1 014b 	ubfx	r1, r1, #1, #12
 8004ed4:	f361 050b 	bfi	r5, r1, #0, #12
 8004ed8:	f842 5034 	str.w	r5, [r2, r4, lsl #3]
 8004edc:	2401      	movs	r4, #1
 8004ede:	e6cf      	b.n	8004c80 <ADC_IRQHandler+0x100>
 8004ee0:	6cc5      	ldr	r5, [r0, #76]	; 0x4c
 8004ee2:	7819      	ldrb	r1, [r3, #0]
 8004ee4:	3918      	subs	r1, #24
 8004ee6:	f852 6031 	ldr.w	r6, [r2, r1, lsl #3]
 8004eea:	7819      	ldrb	r1, [r3, #0]
 8004eec:	3918      	subs	r1, #24
 8004eee:	f3c6 360b 	ubfx	r6, r6, #12, #12
 8004ef2:	f852 4031 	ldr.w	r4, [r2, r1, lsl #3]
 8004ef6:	1bad      	subs	r5, r5, r6
 8004ef8:	f3c4 340b 	ubfx	r4, r4, #12, #12
 8004efc:	eb04 1415 	add.w	r4, r4, r5, lsr #4
 8004f00:	f852 5031 	ldr.w	r5, [r2, r1, lsl #3]
 8004f04:	f364 3517 	bfi	r5, r4, #12, #12
 8004f08:	f842 5031 	str.w	r5, [r2, r1, lsl #3]
 8004f0c:	e70d      	b.n	8004d2a <ADC_IRQHandler+0x1aa>
 8004f0e:	6cc0      	ldr	r0, [r0, #76]	; 0x4c
 8004f10:	7819      	ldrb	r1, [r3, #0]
 8004f12:	3108      	adds	r1, #8
 8004f14:	f852 4031 	ldr.w	r4, [r2, r1, lsl #3]
 8004f18:	781b      	ldrb	r3, [r3, #0]
 8004f1a:	3308      	adds	r3, #8
 8004f1c:	f3c4 340b 	ubfx	r4, r4, #12, #12
 8004f20:	f852 1033 	ldr.w	r1, [r2, r3, lsl #3]
 8004f24:	1b00      	subs	r0, r0, r4
 8004f26:	f3c1 310b 	ubfx	r1, r1, #12, #12
 8004f2a:	eb01 1110 	add.w	r1, r1, r0, lsr #4
 8004f2e:	f852 0033 	ldr.w	r0, [r2, r3, lsl #3]
 8004f32:	f361 3017 	bfi	r0, r1, #12, #12
 8004f36:	f842 0033 	str.w	r0, [r2, r3, lsl #3]
 8004f3a:	e710      	b.n	8004d5e <ADC_IRQHandler+0x1de>
 8004f3c:	2400      	movs	r4, #0
 8004f3e:	e713      	b.n	8004d68 <ADC_IRQHandler+0x1e8>
 8004f40:	b14c      	cbz	r4, 8004f56 <ADC_IRQHandler+0x3d6>
 8004f42:	4b05      	ldr	r3, [pc, #20]	; (8004f58 <ADC_IRQHandler+0x3d8>)
 8004f44:	781a      	ldrb	r2, [r3, #0]
 8004f46:	3201      	adds	r2, #1
 8004f48:	b2d2      	uxtb	r2, r2
 8004f4a:	701a      	strb	r2, [r3, #0]
 8004f4c:	781a      	ldrb	r2, [r3, #0]
 8004f4e:	2a27      	cmp	r2, #39	; 0x27
 8004f50:	bf88      	it	hi
 8004f52:	7018      	strbhi	r0, [r3, #0]
 8004f54:	e733      	b.n	8004dbe <ADC_IRQHandler+0x23e>
 8004f56:	bdf8      	pop	{r3, r4, r5, r6, r7, pc}
 8004f58:	20000294 	.word	0x20000294

08004f5c <delay_ns>:
 8004f5c:	b57f      	push	{r0, r1, r2, r3, r4, r5, r6, lr}
 8004f5e:	a802      	add	r0, sp, #8
 8004f60:	f7fb fef4 	bl	8000d4c <RCC_GetClocksFreq>
 8004f64:	2300      	movs	r3, #0
 8004f66:	9301      	str	r3, [sp, #4]
 8004f68:	9b01      	ldr	r3, [sp, #4]
 8004f6a:	b913      	cbnz	r3, 8004f72 <delay_ns+0x16>
 8004f6c:	b007      	add	sp, #28
 8004f6e:	f85d fb04 	ldr.w	pc, [sp], #4
 8004f72:	9b01      	ldr	r3, [sp, #4]
 8004f74:	3b01      	subs	r3, #1
 8004f76:	e7f6      	b.n	8004f66 <delay_ns+0xa>

08004f78 <Reset_Handler>:
 8004f78:	f8df d034 	ldr.w	sp, [pc, #52]	; 8004fb0 <LoopFillZerobss+0x14>
 8004f7c:	2100      	movs	r1, #0
 8004f7e:	e003      	b.n	8004f88 <LoopCopyDataInit>

08004f80 <CopyDataInit>:
 8004f80:	4b0c      	ldr	r3, [pc, #48]	; (8004fb4 <LoopFillZerobss+0x18>)
 8004f82:	585b      	ldr	r3, [r3, r1]
 8004f84:	5043      	str	r3, [r0, r1]
 8004f86:	3104      	adds	r1, #4

08004f88 <LoopCopyDataInit>:
 8004f88:	480b      	ldr	r0, [pc, #44]	; (8004fb8 <LoopFillZerobss+0x1c>)
 8004f8a:	4b0c      	ldr	r3, [pc, #48]	; (8004fbc <LoopFillZerobss+0x20>)
 8004f8c:	1842      	adds	r2, r0, r1
 8004f8e:	429a      	cmp	r2, r3
 8004f90:	d3f6      	bcc.n	8004f80 <CopyDataInit>
 8004f92:	4a0b      	ldr	r2, [pc, #44]	; (8004fc0 <LoopFillZerobss+0x24>)
 8004f94:	e002      	b.n	8004f9c <LoopFillZerobss>

08004f96 <FillZerobss>:
 8004f96:	2300      	movs	r3, #0
 8004f98:	f842 3b04 	str.w	r3, [r2], #4

08004f9c <LoopFillZerobss>:
 8004f9c:	4b09      	ldr	r3, [pc, #36]	; (8004fc4 <LoopFillZerobss+0x28>)
 8004f9e:	429a      	cmp	r2, r3
 8004fa0:	d3f9      	bcc.n	8004f96 <FillZerobss>
 8004fa2:	f000 f833 	bl	800500c <SystemInit>
 8004fa6:	f000 f97f 	bl	80052a8 <__libc_init_array>
 8004faa:	f7ff fc0d 	bl	80047c8 <main>
 8004fae:	4770      	bx	lr
 8004fb0:	20020000 	.word	0x20020000
 8004fb4:	08005338 	.word	0x08005338
 8004fb8:	20000000 	.word	0x20000000
 8004fbc:	20000278 	.word	0x20000278
 8004fc0:	20000278 	.word	0x20000278
 8004fc4:	20000b28 	.word	0x20000b28

08004fc8 <CAN1_RX0_IRQHandler>:
 8004fc8:	e7fe      	b.n	8004fc8 <CAN1_RX0_IRQHandler>

08004fca <NMI_Handler>:
 8004fca:	4770      	bx	lr

08004fcc <HardFault_Handler>:
 8004fcc:	e7fe      	b.n	8004fcc <HardFault_Handler>

08004fce <MemManage_Handler>:
 8004fce:	e7fe      	b.n	8004fce <MemManage_Handler>

08004fd0 <BusFault_Handler>:
 8004fd0:	e7fe      	b.n	8004fd0 <BusFault_Handler>

08004fd2 <UsageFault_Handler>:
 8004fd2:	e7fe      	b.n	8004fd2 <UsageFault_Handler>

08004fd4 <SVC_Handler>:
 8004fd4:	4770      	bx	lr

08004fd6 <DebugMon_Handler>:
 8004fd6:	4770      	bx	lr

08004fd8 <PendSV_Handler>:
 8004fd8:	4770      	bx	lr

08004fda <SysTick_Handler>:
 8004fda:	4770      	bx	lr

08004fdc <_write>:
 8004fdc:	b510      	push	{r4, lr}
 8004fde:	2300      	movs	r3, #0
 8004fe0:	f04f 4460 	mov.w	r4, #3758096384	; 0xe0000000
 8004fe4:	4293      	cmp	r3, r2
 8004fe6:	db01      	blt.n	8004fec <_write+0x10>
 8004fe8:	4610      	mov	r0, r2
 8004fea:	bd10      	pop	{r4, pc}
 8004fec:	f8d4 0e80 	ldr.w	r0, [r4, #3712]	; 0xe80
 8004ff0:	07c0      	lsls	r0, r0, #31
 8004ff2:	d508      	bpl.n	8005006 <_write+0x2a>
 8004ff4:	f8d4 0e00 	ldr.w	r0, [r4, #3584]	; 0xe00
 8004ff8:	07c0      	lsls	r0, r0, #31
 8004ffa:	d504      	bpl.n	8005006 <_write+0x2a>
 8004ffc:	6820      	ldr	r0, [r4, #0]
 8004ffe:	2800      	cmp	r0, #0
 8005000:	d0fc      	beq.n	8004ffc <_write+0x20>
 8005002:	5cc8      	ldrb	r0, [r1, r3]
 8005004:	7020      	strb	r0, [r4, #0]
 8005006:	3301      	adds	r3, #1
 8005008:	e7ec      	b.n	8004fe4 <_write+0x8>
	...

0800500c <SystemInit>:
 800500c:	4a36      	ldr	r2, [pc, #216]	; (80050e8 <SystemInit+0xdc>)
 800500e:	f8d2 3088 	ldr.w	r3, [r2, #136]	; 0x88
 8005012:	f443 0370 	orr.w	r3, r3, #15728640	; 0xf00000
 8005016:	f8c2 3088 	str.w	r3, [r2, #136]	; 0x88
 800501a:	4b34      	ldr	r3, [pc, #208]	; (80050ec <SystemInit+0xe0>)
 800501c:	681a      	ldr	r2, [r3, #0]
 800501e:	2100      	movs	r1, #0
 8005020:	f042 0201 	orr.w	r2, r2, #1
 8005024:	601a      	str	r2, [r3, #0]
 8005026:	6099      	str	r1, [r3, #8]
 8005028:	681a      	ldr	r2, [r3, #0]
 800502a:	f022 7284 	bic.w	r2, r2, #17301504	; 0x1080000
 800502e:	f422 3280 	bic.w	r2, r2, #65536	; 0x10000
 8005032:	601a      	str	r2, [r3, #0]
 8005034:	4a2e      	ldr	r2, [pc, #184]	; (80050f0 <SystemInit+0xe4>)
 8005036:	605a      	str	r2, [r3, #4]
 8005038:	681a      	ldr	r2, [r3, #0]
 800503a:	b082      	sub	sp, #8
 800503c:	f422 2280 	bic.w	r2, r2, #262144	; 0x40000
 8005040:	601a      	str	r2, [r3, #0]
 8005042:	60d9      	str	r1, [r3, #12]
 8005044:	9100      	str	r1, [sp, #0]
 8005046:	9101      	str	r1, [sp, #4]
 8005048:	681a      	ldr	r2, [r3, #0]
 800504a:	f442 3280 	orr.w	r2, r2, #65536	; 0x10000
 800504e:	601a      	str	r2, [r3, #0]
 8005050:	4619      	mov	r1, r3
 8005052:	681a      	ldr	r2, [r3, #0]
 8005054:	f402 3200 	and.w	r2, r2, #131072	; 0x20000
 8005058:	9201      	str	r2, [sp, #4]
 800505a:	9a00      	ldr	r2, [sp, #0]
 800505c:	3201      	adds	r2, #1
 800505e:	9200      	str	r2, [sp, #0]
 8005060:	9a01      	ldr	r2, [sp, #4]
 8005062:	b91a      	cbnz	r2, 800506c <SystemInit+0x60>
 8005064:	9a00      	ldr	r2, [sp, #0]
 8005066:	f5b2 6fa0 	cmp.w	r2, #1280	; 0x500
 800506a:	d1f2      	bne.n	8005052 <SystemInit+0x46>
 800506c:	680b      	ldr	r3, [r1, #0]
 800506e:	f413 3300 	ands.w	r3, r3, #131072	; 0x20000
 8005072:	bf18      	it	ne
 8005074:	2301      	movne	r3, #1
 8005076:	9301      	str	r3, [sp, #4]
 8005078:	9b01      	ldr	r3, [sp, #4]
 800507a:	2b01      	cmp	r3, #1
 800507c:	d12e      	bne.n	80050dc <SystemInit+0xd0>
 800507e:	4b1b      	ldr	r3, [pc, #108]	; (80050ec <SystemInit+0xe0>)
 8005080:	491c      	ldr	r1, [pc, #112]	; (80050f4 <SystemInit+0xe8>)
 8005082:	6c1a      	ldr	r2, [r3, #64]	; 0x40
 8005084:	f042 5280 	orr.w	r2, r2, #268435456	; 0x10000000
 8005088:	641a      	str	r2, [r3, #64]	; 0x40
 800508a:	680a      	ldr	r2, [r1, #0]
 800508c:	f442 4240 	orr.w	r2, r2, #49152	; 0xc000
 8005090:	600a      	str	r2, [r1, #0]
 8005092:	689a      	ldr	r2, [r3, #8]
 8005094:	609a      	str	r2, [r3, #8]
 8005096:	689a      	ldr	r2, [r3, #8]
 8005098:	f442 4200 	orr.w	r2, r2, #32768	; 0x8000
 800509c:	609a      	str	r2, [r3, #8]
 800509e:	689a      	ldr	r2, [r3, #8]
 80050a0:	f442 52a0 	orr.w	r2, r2, #5120	; 0x1400
 80050a4:	609a      	str	r2, [r3, #8]
 80050a6:	4a14      	ldr	r2, [pc, #80]	; (80050f8 <SystemInit+0xec>)
 80050a8:	605a      	str	r2, [r3, #4]
 80050aa:	681a      	ldr	r2, [r3, #0]
 80050ac:	f042 7280 	orr.w	r2, r2, #16777216	; 0x1000000
 80050b0:	601a      	str	r2, [r3, #0]
 80050b2:	681a      	ldr	r2, [r3, #0]
 80050b4:	0192      	lsls	r2, r2, #6
 80050b6:	d5fc      	bpl.n	80050b2 <SystemInit+0xa6>
 80050b8:	4a10      	ldr	r2, [pc, #64]	; (80050fc <SystemInit+0xf0>)
 80050ba:	f240 7105 	movw	r1, #1797	; 0x705
 80050be:	6011      	str	r1, [r2, #0]
 80050c0:	689a      	ldr	r2, [r3, #8]
 80050c2:	f022 0203 	bic.w	r2, r2, #3
 80050c6:	609a      	str	r2, [r3, #8]
 80050c8:	689a      	ldr	r2, [r3, #8]
 80050ca:	f042 0202 	orr.w	r2, r2, #2
 80050ce:	609a      	str	r2, [r3, #8]
 80050d0:	4a06      	ldr	r2, [pc, #24]	; (80050ec <SystemInit+0xe0>)
 80050d2:	6893      	ldr	r3, [r2, #8]
 80050d4:	f003 030c 	and.w	r3, r3, #12
 80050d8:	2b08      	cmp	r3, #8
 80050da:	d1fa      	bne.n	80050d2 <SystemInit+0xc6>
 80050dc:	4b02      	ldr	r3, [pc, #8]	; (80050e8 <SystemInit+0xdc>)
 80050de:	f04f 6200 	mov.w	r2, #134217728	; 0x8000000
 80050e2:	609a      	str	r2, [r3, #8]
 80050e4:	b002      	add	sp, #8
 80050e6:	4770      	bx	lr
 80050e8:	e000ed00 	.word	0xe000ed00
 80050ec:	40023800 	.word	0x40023800
 80050f0:	24003010 	.word	0x24003010
 80050f4:	40007000 	.word	0x40007000
 80050f8:	07405419 	.word	0x07405419
 80050fc:	40023c00 	.word	0x40023c00

08005100 <ts_itoa>:
 8005100:	b5f0      	push	{r4, r5, r6, r7, lr}
 8005102:	2301      	movs	r3, #1
 8005104:	fbb1 f4f3 	udiv	r4, r1, r3
 8005108:	4294      	cmp	r4, r2
 800510a:	d201      	bcs.n	8005110 <ts_itoa+0x10>
 800510c:	b913      	cbnz	r3, 8005114 <ts_itoa+0x14>
 800510e:	bdf0      	pop	{r4, r5, r6, r7, pc}
 8005110:	4353      	muls	r3, r2
 8005112:	e7f7      	b.n	8005104 <ts_itoa+0x4>
 8005114:	6805      	ldr	r5, [r0, #0]
 8005116:	fbb1 f6f3 	udiv	r6, r1, r3
 800511a:	b2f4      	uxtb	r4, r6
 800511c:	2e09      	cmp	r6, #9
 800511e:	f105 0701 	add.w	r7, r5, #1
 8005122:	bfcc      	ite	gt
 8005124:	3437      	addgt	r4, #55	; 0x37
 8005126:	3430      	addle	r4, #48	; 0x30
 8005128:	fb03 1116 	mls	r1, r3, r6, r1
 800512c:	6007      	str	r7, [r0, #0]
 800512e:	fb93 f3f2 	sdiv	r3, r3, r2
 8005132:	702c      	strb	r4, [r5, #0]
 8005134:	e7ea      	b.n	800510c <ts_itoa+0xc>

08005136 <ts_formatstring>:
 8005136:	e92d 41f3 	stmdb	sp!, {r0, r1, r4, r5, r6, r7, r8, lr}
 800513a:	ad02      	add	r5, sp, #8
 800513c:	460c      	mov	r4, r1
 800513e:	f845 0d04 	str.w	r0, [r5, #-4]!
 8005142:	4613      	mov	r3, r2
 8005144:	4606      	mov	r6, r0
 8005146:	272d      	movs	r7, #45	; 0x2d
 8005148:	7822      	ldrb	r2, [r4, #0]
 800514a:	b932      	cbnz	r2, 800515a <ts_formatstring+0x24>
 800514c:	9b01      	ldr	r3, [sp, #4]
 800514e:	701a      	strb	r2, [r3, #0]
 8005150:	9801      	ldr	r0, [sp, #4]
 8005152:	1b80      	subs	r0, r0, r6
 8005154:	b002      	add	sp, #8
 8005156:	e8bd 81f0 	ldmia.w	sp!, {r4, r5, r6, r7, r8, pc}
 800515a:	2a25      	cmp	r2, #37	; 0x25
 800515c:	d147      	bne.n	80051ee <ts_formatstring+0xb8>
 800515e:	7862      	ldrb	r2, [r4, #1]
 8005160:	2a64      	cmp	r2, #100	; 0x64
 8005162:	d021      	beq.n	80051a8 <ts_formatstring+0x72>
 8005164:	d80a      	bhi.n	800517c <ts_formatstring+0x46>
 8005166:	2a58      	cmp	r2, #88	; 0x58
 8005168:	d013      	beq.n	8005192 <ts_formatstring+0x5c>
 800516a:	2a63      	cmp	r2, #99	; 0x63
 800516c:	d015      	beq.n	800519a <ts_formatstring+0x64>
 800516e:	2a25      	cmp	r2, #37	; 0x25
 8005170:	d109      	bne.n	8005186 <ts_formatstring+0x50>
 8005172:	9901      	ldr	r1, [sp, #4]
 8005174:	1c48      	adds	r0, r1, #1
 8005176:	9001      	str	r0, [sp, #4]
 8005178:	700a      	strb	r2, [r1, #0]
 800517a:	e004      	b.n	8005186 <ts_formatstring+0x50>
 800517c:	2a73      	cmp	r2, #115	; 0x73
 800517e:	d023      	beq.n	80051c8 <ts_formatstring+0x92>
 8005180:	d803      	bhi.n	800518a <ts_formatstring+0x54>
 8005182:	2a69      	cmp	r2, #105	; 0x69
 8005184:	d010      	beq.n	80051a8 <ts_formatstring+0x72>
 8005186:	3402      	adds	r4, #2
 8005188:	e7de      	b.n	8005148 <ts_formatstring+0x12>
 800518a:	2a75      	cmp	r2, #117	; 0x75
 800518c:	d02a      	beq.n	80051e4 <ts_formatstring+0xae>
 800518e:	2a78      	cmp	r2, #120	; 0x78
 8005190:	d1f9      	bne.n	8005186 <ts_formatstring+0x50>
 8005192:	f103 0804 	add.w	r8, r3, #4
 8005196:	2210      	movs	r2, #16
 8005198:	e027      	b.n	80051ea <ts_formatstring+0xb4>
 800519a:	9a01      	ldr	r2, [sp, #4]
 800519c:	6819      	ldr	r1, [r3, #0]
 800519e:	1c50      	adds	r0, r2, #1
 80051a0:	9001      	str	r0, [sp, #4]
 80051a2:	3304      	adds	r3, #4
 80051a4:	7011      	strb	r1, [r2, #0]
 80051a6:	e7ee      	b.n	8005186 <ts_formatstring+0x50>
 80051a8:	6819      	ldr	r1, [r3, #0]
 80051aa:	2900      	cmp	r1, #0
 80051ac:	f103 0804 	add.w	r8, r3, #4
 80051b0:	da04      	bge.n	80051bc <ts_formatstring+0x86>
 80051b2:	9b01      	ldr	r3, [sp, #4]
 80051b4:	1c5a      	adds	r2, r3, #1
 80051b6:	9201      	str	r2, [sp, #4]
 80051b8:	4249      	negs	r1, r1
 80051ba:	701f      	strb	r7, [r3, #0]
 80051bc:	220a      	movs	r2, #10
 80051be:	4628      	mov	r0, r5
 80051c0:	f7ff ff9e 	bl	8005100 <ts_itoa>
 80051c4:	4643      	mov	r3, r8
 80051c6:	e7de      	b.n	8005186 <ts_formatstring+0x50>
 80051c8:	1d19      	adds	r1, r3, #4
 80051ca:	681b      	ldr	r3, [r3, #0]
 80051cc:	3b01      	subs	r3, #1
 80051ce:	f813 2f01 	ldrb.w	r2, [r3, #1]!
 80051d2:	b90a      	cbnz	r2, 80051d8 <ts_formatstring+0xa2>
 80051d4:	460b      	mov	r3, r1
 80051d6:	e7d6      	b.n	8005186 <ts_formatstring+0x50>
 80051d8:	9a01      	ldr	r2, [sp, #4]
 80051da:	1c50      	adds	r0, r2, #1
 80051dc:	9001      	str	r0, [sp, #4]
 80051de:	7818      	ldrb	r0, [r3, #0]
 80051e0:	7010      	strb	r0, [r2, #0]
 80051e2:	e7f4      	b.n	80051ce <ts_formatstring+0x98>
 80051e4:	f103 0804 	add.w	r8, r3, #4
 80051e8:	220a      	movs	r2, #10
 80051ea:	6819      	ldr	r1, [r3, #0]
 80051ec:	e7e7      	b.n	80051be <ts_formatstring+0x88>
 80051ee:	9901      	ldr	r1, [sp, #4]
 80051f0:	1c48      	adds	r0, r1, #1
 80051f2:	9001      	str	r0, [sp, #4]
 80051f4:	3401      	adds	r4, #1
 80051f6:	700a      	strb	r2, [r1, #0]
 80051f8:	e7a6      	b.n	8005148 <ts_formatstring+0x12>

080051fa <ts_formatlength>:
 80051fa:	b530      	push	{r4, r5, lr}
 80051fc:	4602      	mov	r2, r0
 80051fe:	2000      	movs	r0, #0
 8005200:	7813      	ldrb	r3, [r2, #0]
 8005202:	b903      	cbnz	r3, 8005206 <ts_formatlength+0xc>
 8005204:	bd30      	pop	{r4, r5, pc}
 8005206:	2b25      	cmp	r3, #37	; 0x25
 8005208:	f102 0401 	add.w	r4, r2, #1
 800520c:	d126      	bne.n	800525c <ts_formatlength+0x62>
 800520e:	7853      	ldrb	r3, [r2, #1]
 8005210:	2b69      	cmp	r3, #105	; 0x69
 8005212:	d013      	beq.n	800523c <ts_formatlength+0x42>
 8005214:	d808      	bhi.n	8005228 <ts_formatlength+0x2e>
 8005216:	2b63      	cmp	r3, #99	; 0x63
 8005218:	d00e      	beq.n	8005238 <ts_formatlength+0x3e>
 800521a:	2b64      	cmp	r3, #100	; 0x64
 800521c:	d00e      	beq.n	800523c <ts_formatlength+0x42>
 800521e:	2b58      	cmp	r3, #88	; 0x58
 8005220:	d108      	bne.n	8005234 <ts_formatlength+0x3a>
 8005222:	f100 0308 	add.w	r3, r0, #8
 8005226:	e00b      	b.n	8005240 <ts_formatlength+0x46>
 8005228:	2b75      	cmp	r3, #117	; 0x75
 800522a:	d007      	beq.n	800523c <ts_formatlength+0x42>
 800522c:	2b78      	cmp	r3, #120	; 0x78
 800522e:	d0f8      	beq.n	8005222 <ts_formatlength+0x28>
 8005230:	2b73      	cmp	r3, #115	; 0x73
 8005232:	d007      	beq.n	8005244 <ts_formatlength+0x4a>
 8005234:	1c43      	adds	r3, r0, #1
 8005236:	e00e      	b.n	8005256 <ts_formatlength+0x5c>
 8005238:	3104      	adds	r1, #4
 800523a:	e7fb      	b.n	8005234 <ts_formatlength+0x3a>
 800523c:	f100 030b 	add.w	r3, r0, #11
 8005240:	3104      	adds	r1, #4
 8005242:	e008      	b.n	8005256 <ts_formatlength+0x5c>
 8005244:	680a      	ldr	r2, [r1, #0]
 8005246:	1d0d      	adds	r5, r1, #4
 8005248:	1a80      	subs	r0, r0, r2
 800524a:	1813      	adds	r3, r2, r0
 800524c:	f812 1b01 	ldrb.w	r1, [r2], #1
 8005250:	2900      	cmp	r1, #0
 8005252:	d1fa      	bne.n	800524a <ts_formatlength+0x50>
 8005254:	4629      	mov	r1, r5
 8005256:	1c62      	adds	r2, r4, #1
 8005258:	4618      	mov	r0, r3
 800525a:	e7d1      	b.n	8005200 <ts_formatlength+0x6>
 800525c:	1c43      	adds	r3, r0, #1
 800525e:	4614      	mov	r4, r2
 8005260:	e7f9      	b.n	8005256 <ts_formatlength+0x5c>

08005262 <iprintf>:
 8005262:	b40f      	push	{r0, r1, r2, r3}
 8005264:	b5b0      	push	{r4, r5, r7, lr}
 8005266:	b082      	sub	sp, #8
 8005268:	af00      	add	r7, sp, #0
 800526a:	f107 0418 	add.w	r4, r7, #24
 800526e:	f854 5b04 	ldr.w	r5, [r4], #4
 8005272:	607c      	str	r4, [r7, #4]
 8005274:	4621      	mov	r1, r4
 8005276:	4628      	mov	r0, r5
 8005278:	f7ff ffbf 	bl	80051fa <ts_formatlength>
 800527c:	3007      	adds	r0, #7
 800527e:	f020 0007 	bic.w	r0, r0, #7
 8005282:	ebad 0d00 	sub.w	sp, sp, r0
 8005286:	4622      	mov	r2, r4
 8005288:	4629      	mov	r1, r5
 800528a:	4668      	mov	r0, sp
 800528c:	f7ff ff53 	bl	8005136 <ts_formatstring>
 8005290:	4669      	mov	r1, sp
 8005292:	4602      	mov	r2, r0
 8005294:	2001      	movs	r0, #1
 8005296:	f7ff fea1 	bl	8004fdc <_write>
 800529a:	3708      	adds	r7, #8
 800529c:	46bd      	mov	sp, r7
 800529e:	e8bd 40b0 	ldmia.w	sp!, {r4, r5, r7, lr}
 80052a2:	b004      	add	sp, #16
 80052a4:	4770      	bx	lr
	...

080052a8 <__libc_init_array>:
 80052a8:	b570      	push	{r4, r5, r6, lr}
 80052aa:	4e0d      	ldr	r6, [pc, #52]	; (80052e0 <__libc_init_array+0x38>)
 80052ac:	4c0d      	ldr	r4, [pc, #52]	; (80052e4 <__libc_init_array+0x3c>)
 80052ae:	1ba4      	subs	r4, r4, r6
 80052b0:	10a4      	asrs	r4, r4, #2
 80052b2:	2500      	movs	r5, #0
 80052b4:	42a5      	cmp	r5, r4
 80052b6:	d109      	bne.n	80052cc <__libc_init_array+0x24>
 80052b8:	4e0b      	ldr	r6, [pc, #44]	; (80052e8 <__libc_init_array+0x40>)
 80052ba:	4c0c      	ldr	r4, [pc, #48]	; (80052ec <__libc_init_array+0x44>)
 80052bc:	f000 f818 	bl	80052f0 <_init>
 80052c0:	1ba4      	subs	r4, r4, r6
 80052c2:	10a4      	asrs	r4, r4, #2
 80052c4:	2500      	movs	r5, #0
 80052c6:	42a5      	cmp	r5, r4
 80052c8:	d105      	bne.n	80052d6 <__libc_init_array+0x2e>
 80052ca:	bd70      	pop	{r4, r5, r6, pc}
 80052cc:	f856 3025 	ldr.w	r3, [r6, r5, lsl #2]
 80052d0:	4798      	blx	r3
 80052d2:	3501      	adds	r5, #1
 80052d4:	e7ee      	b.n	80052b4 <__libc_init_array+0xc>
 80052d6:	f856 3025 	ldr.w	r3, [r6, r5, lsl #2]
 80052da:	4798      	blx	r3
 80052dc:	3501      	adds	r5, #1
 80052de:	e7f2      	b.n	80052c6 <__libc_init_array+0x1e>
 80052e0:	08005330 	.word	0x08005330
 80052e4:	08005330 	.word	0x08005330
 80052e8:	08005330 	.word	0x08005330
 80052ec:	08005334 	.word	0x08005334

080052f0 <_init>:
 80052f0:	b5f8      	push	{r3, r4, r5, r6, r7, lr}
 80052f2:	bf00      	nop
 80052f4:	bcf8      	pop	{r3, r4, r5, r6, r7}
 80052f6:	bc08      	pop	{r3}
 80052f8:	469e      	mov	lr, r3
 80052fa:	4770      	bx	lr

080052fc <_fini>:
 80052fc:	b5f8      	push	{r3, r4, r5, r6, r7, lr}
 80052fe:	bf00      	nop
 8005300:	bcf8      	pop	{r3, r4, r5, r6, r7}
 8005302:	bc08      	pop	{r3}
 8005304:	469e      	mov	lr, r3
 8005306:	4770      	bx	lr
