
MARF_v2.5.elf:     file format elf32-littlearm

Sections:
Idx Name          Size      VMA       LMA       File off  Algn
  0 .isr_vector   00000188  08000000  08000000  00010000  2**0
                  CONTENTS, ALLOC, LOAD, READONLY, DATA
  1 .text         00007308  08000188  08000188  00010188  2**3
                  CONTENTS, ALLOC, LOAD, READONLY, CODE
  2 .rodata       00000010  08007490  08007490  00017490  2**2
                  CONTENTS, ALLOC, LOAD, READONLY, DATA
  3 .ARM          00000008  080074a0  080074a0  000174a0  2**2
                  CONTENTS, ALLOC, LOAD, READONLY, DATA
  4 .init_array   00000004  080074a8  080074a8  000174a8  2**2
                  CONTENTS, ALLOC, LOAD, DATA
  5 .fini_array   00000004  080074ac  080074ac  000174ac  2**2
                  CONTENTS, ALLOC, LOAD, DATA
  6 .data         00000278  20000000  080074b0  00020000  2**3
                  CONTENTS, ALLOC, LOAD, DATA
  7 .ccmram       00000000  10000000  10000000  00020278  2**0
                  CONTENTS
  8 .bss          000009a8  20000278  20000278  00020278  2**3
                  ALLOC
  9 ._user_heap_stack 00000400  20000c20  20000c20  00020278  2**0
                  ALLOC
 10 .ARM.attributes 00000030  00000000  00000000  00020278  2**0
                  CONTENTS, READONLY
 11 .comment      0000007b  00000000  00000000  000202a8  2**0
                  CONTENTS, READONLY
 12 .debug_frame  000001e4  00000000  00000000  00020324  2**2
                  CONTENTS, READONLY, DEBUGGING

Disassembly of section .text:

08000188 <__do_global_dtors_aux>:
 8000188:	b510      	push	{r4, lr}
 800018a:	4c05      	ldr	r4, [pc, #20]	; (80001a0 <__do_global_dtors_aux+0x18>)
 800018c:	7823      	ldrb	r3, [r4, #0]
 800018e:	b933      	cbnz	r3, 800019e <__do_global_dtors_aux+0x16>
 8000190:	4b04      	ldr	r3, [pc, #16]	; (80001a4 <__do_global_dtors_aux+0x1c>)
 8000192:	b113      	cbz	r3, 800019a <__do_global_dtors_aux+0x12>
 8000194:	4804      	ldr	r0, [pc, #16]	; (80001a8 <__do_global_dtors_aux+0x20>)
 8000196:	f3af 8000 	nop.w
 800019a:	2301      	movs	r3, #1
 800019c:	7023      	strb	r3, [r4, #0]
 800019e:	bd10      	pop	{r4, pc}
 80001a0:	20000278 	.word	0x20000278
 80001a4:	00000000 	.word	0x00000000
 80001a8:	08007478 	.word	0x08007478

080001ac <frame_dummy>:
 80001ac:	b508      	push	{r3, lr}
 80001ae:	4b03      	ldr	r3, [pc, #12]	; (80001bc <frame_dummy+0x10>)
 80001b0:	b11b      	cbz	r3, 80001ba <frame_dummy+0xe>
 80001b2:	4903      	ldr	r1, [pc, #12]	; (80001c0 <frame_dummy+0x14>)
 80001b4:	4803      	ldr	r0, [pc, #12]	; (80001c4 <frame_dummy+0x18>)
 80001b6:	f3af 8000 	nop.w
 80001ba:	bd08      	pop	{r3, pc}
 80001bc:	00000000 	.word	0x00000000
 80001c0:	2000027c 	.word	0x2000027c
 80001c4:	08007478 	.word	0x08007478

080001c8 <strlen>:
 80001c8:	4603      	mov	r3, r0
 80001ca:	f813 2b01 	ldrb.w	r2, [r3], #1
 80001ce:	2a00      	cmp	r2, #0
 80001d0:	d1fb      	bne.n	80001ca <strlen+0x2>
 80001d2:	1a18      	subs	r0, r3, r0
 80001d4:	3801      	subs	r0, #1
 80001d6:	4770      	bx	lr

080001d8 <__aeabi_drsub>:
 80001d8:	f081 4100 	eor.w	r1, r1, #2147483648	; 0x80000000
 80001dc:	e002      	b.n	80001e4 <__adddf3>
 80001de:	bf00      	nop

080001e0 <__aeabi_dsub>:
 80001e0:	f083 4300 	eor.w	r3, r3, #2147483648	; 0x80000000

080001e4 <__adddf3>:
 80001e4:	b530      	push	{r4, r5, lr}
 80001e6:	ea4f 0441 	mov.w	r4, r1, lsl #1
 80001ea:	ea4f 0543 	mov.w	r5, r3, lsl #1
 80001ee:	ea94 0f05 	teq	r4, r5
 80001f2:	bf08      	it	eq
 80001f4:	ea90 0f02 	teqeq	r0, r2
 80001f8:	bf1f      	itttt	ne
 80001fa:	ea54 0c00 	orrsne.w	ip, r4, r0
 80001fe:	ea55 0c02 	orrsne.w	ip, r5, r2
 8000202:	ea7f 5c64 	mvnsne.w	ip, r4, asr #21
 8000206:	ea7f 5c65 	mvnsne.w	ip, r5, asr #21
 800020a:	f000 80e2 	beq.w	80003d2 <__adddf3+0x1ee>
 800020e:	ea4f 5454 	mov.w	r4, r4, lsr #21
 8000212:	ebd4 5555 	rsbs	r5, r4, r5, lsr #21
 8000216:	bfb8      	it	lt
 8000218:	426d      	neglt	r5, r5
 800021a:	dd0c      	ble.n	8000236 <__adddf3+0x52>
 800021c:	442c      	add	r4, r5
 800021e:	ea80 0202 	eor.w	r2, r0, r2
 8000222:	ea81 0303 	eor.w	r3, r1, r3
 8000226:	ea82 0000 	eor.w	r0, r2, r0
 800022a:	ea83 0101 	eor.w	r1, r3, r1
 800022e:	ea80 0202 	eor.w	r2, r0, r2
 8000232:	ea81 0303 	eor.w	r3, r1, r3
 8000236:	2d36      	cmp	r5, #54	; 0x36
 8000238:	bf88      	it	hi
 800023a:	bd30      	pophi	{r4, r5, pc}
 800023c:	f011 4f00 	tst.w	r1, #2147483648	; 0x80000000
 8000240:	ea4f 3101 	mov.w	r1, r1, lsl #12
 8000244:	f44f 1c80 	mov.w	ip, #1048576	; 0x100000
 8000248:	ea4c 3111 	orr.w	r1, ip, r1, lsr #12
 800024c:	d002      	beq.n	8000254 <__adddf3+0x70>
 800024e:	4240      	negs	r0, r0
 8000250:	eb61 0141 	sbc.w	r1, r1, r1, lsl #1
 8000254:	f013 4f00 	tst.w	r3, #2147483648	; 0x80000000
 8000258:	ea4f 3303 	mov.w	r3, r3, lsl #12
 800025c:	ea4c 3313 	orr.w	r3, ip, r3, lsr #12
 8000260:	d002      	beq.n	8000268 <__adddf3+0x84>
 8000262:	4252      	negs	r2, r2
 8000264:	eb63 0343 	sbc.w	r3, r3, r3, lsl #1
 8000268:	ea94 0f05 	teq	r4, r5
 800026c:	f000 80a7 	beq.w	80003be <__adddf3+0x1da>
 8000270:	f1a4 0401 	sub.w	r4, r4, #1
 8000274:	f1d5 0e20 	rsbs	lr, r5, #32
 8000278:	db0d      	blt.n	8000296 <__adddf3+0xb2>
 800027a:	fa02 fc0e 	lsl.w	ip, r2, lr
 800027e:	fa22 f205 	lsr.w	r2, r2, r5
 8000282:	1880      	adds	r0, r0, r2
 8000284:	f141 0100 	adc.w	r1, r1, #0
 8000288:	fa03 f20e 	lsl.w	r2, r3, lr
 800028c:	1880      	adds	r0, r0, r2
 800028e:	fa43 f305 	asr.w	r3, r3, r5
 8000292:	4159      	adcs	r1, r3
 8000294:	e00e      	b.n	80002b4 <__adddf3+0xd0>
 8000296:	f1a5 0520 	sub.w	r5, r5, #32
 800029a:	f10e 0e20 	add.w	lr, lr, #32
 800029e:	2a01      	cmp	r2, #1
 80002a0:	fa03 fc0e 	lsl.w	ip, r3, lr
 80002a4:	bf28      	it	cs
 80002a6:	f04c 0c02 	orrcs.w	ip, ip, #2
 80002aa:	fa43 f305 	asr.w	r3, r3, r5
 80002ae:	18c0      	adds	r0, r0, r3
 80002b0:	eb51 71e3 	adcs.w	r1, r1, r3, asr #31
 80002b4:	f001 4500 	and.w	r5, r1, #2147483648	; 0x80000000
 80002b8:	d507      	bpl.n	80002ca <__adddf3+0xe6>
 80002ba:	f04f 0e00 	mov.w	lr, #0
 80002be:	f1dc 0c00 	rsbs	ip, ip, #0
 80002c2:	eb7e 0000 	sbcs.w	r0, lr, r0
 80002c6:	eb6e 0101 	sbc.w	r1, lr, r1
 80002ca:	f5b1 1f80 	cmp.w	r1, #1048576	; 0x100000
 80002ce:	d31b      	bcc.n	8000308 <__adddf3+0x124>
 80002d0:	f5b1 1f00 	cmp.w	r1, #2097152	; 0x200000
 80002d4:	d30c      	bcc.n	80002f0 <__adddf3+0x10c>
 80002d6:	0849      	lsrs	r1, r1, #1
 80002d8:	ea5f 0030 	movs.w	r0, r0, rrx
 80002dc:	ea4f 0c3c 	mov.w	ip, ip, rrx
 80002e0:	f104 0401 	add.w	r4, r4, #1
 80002e4:	ea4f 5244 	mov.w	r2, r4, lsl #21
 80002e8:	f512 0f80 	cmn.w	r2, #4194304	; 0x400000
 80002ec:	f080 809a 	bcs.w	8000424 <__adddf3+0x240>
 80002f0:	f1bc 4f00 	cmp.w	ip, #2147483648	; 0x80000000
 80002f4:	bf08      	it	eq
 80002f6:	ea5f 0c50 	movseq.w	ip, r0, lsr #1
 80002fa:	f150 0000 	adcs.w	r0, r0, #0
 80002fe:	eb41 5104 	adc.w	r1, r1, r4, lsl #20
 8000302:	ea41 0105 	orr.w	r1, r1, r5
 8000306:	bd30      	pop	{r4, r5, pc}
 8000308:	ea5f 0c4c 	movs.w	ip, ip, lsl #1
 800030c:	4140      	adcs	r0, r0
 800030e:	eb41 0101 	adc.w	r1, r1, r1
 8000312:	f411 1f80 	tst.w	r1, #1048576	; 0x100000
 8000316:	f1a4 0401 	sub.w	r4, r4, #1
 800031a:	d1e9      	bne.n	80002f0 <__adddf3+0x10c>
 800031c:	f091 0f00 	teq	r1, #0
 8000320:	bf04      	itt	eq
 8000322:	4601      	moveq	r1, r0
 8000324:	2000      	moveq	r0, #0
 8000326:	fab1 f381 	clz	r3, r1
 800032a:	bf08      	it	eq
 800032c:	3320      	addeq	r3, #32
 800032e:	f1a3 030b 	sub.w	r3, r3, #11
 8000332:	f1b3 0220 	subs.w	r2, r3, #32
 8000336:	da0c      	bge.n	8000352 <__adddf3+0x16e>
 8000338:	320c      	adds	r2, #12
 800033a:	dd08      	ble.n	800034e <__adddf3+0x16a>
 800033c:	f102 0c14 	add.w	ip, r2, #20
 8000340:	f1c2 020c 	rsb	r2, r2, #12
 8000344:	fa01 f00c 	lsl.w	r0, r1, ip
 8000348:	fa21 f102 	lsr.w	r1, r1, r2
 800034c:	e00c      	b.n	8000368 <__adddf3+0x184>
 800034e:	f102 0214 	add.w	r2, r2, #20
 8000352:	bfd8      	it	le
 8000354:	f1c2 0c20 	rsble	ip, r2, #32
 8000358:	fa01 f102 	lsl.w	r1, r1, r2
 800035c:	fa20 fc0c 	lsr.w	ip, r0, ip
 8000360:	bfdc      	itt	le
 8000362:	ea41 010c 	orrle.w	r1, r1, ip
 8000366:	4090      	lslle	r0, r2
 8000368:	1ae4      	subs	r4, r4, r3
 800036a:	bfa2      	ittt	ge
 800036c:	eb01 5104 	addge.w	r1, r1, r4, lsl #20
 8000370:	4329      	orrge	r1, r5
 8000372:	bd30      	popge	{r4, r5, pc}
 8000374:	ea6f 0404 	mvn.w	r4, r4
 8000378:	3c1f      	subs	r4, #31
 800037a:	da1c      	bge.n	80003b6 <__adddf3+0x1d2>
 800037c:	340c      	adds	r4, #12
 800037e:	dc0e      	bgt.n	800039e <__adddf3+0x1ba>
 8000380:	f104 0414 	add.w	r4, r4, #20
 8000384:	f1c4 0220 	rsb	r2, r4, #32
 8000388:	fa20 f004 	lsr.w	r0, r0, r4
 800038c:	fa01 f302 	lsl.w	r3, r1, r2
 8000390:	ea40 0003 	orr.w	r0, r0, r3
 8000394:	fa21 f304 	lsr.w	r3, r1, r4
 8000398:	ea45 0103 	orr.w	r1, r5, r3
 800039c:	bd30      	pop	{r4, r5, pc}
 800039e:	f1c4 040c 	rsb	r4, r4, #12
 80003a2:	f1c4 0220 	rsb	r2, r4, #32
 80003a6:	fa20 f002 	lsr.w	r0, r0, r2
 80003aa:	fa01 f304 	lsl.w	r3, r1, r4
 80003ae:	ea40 0003 	orr.w	r0, r0, r3
 80003b2:	4629      	mov	r1, r5
 80003b4:	bd30      	pop	{r4, r5, pc}
 80003b6:	fa21 f004 	lsr.w	r0, r1, r4
 80003ba:	4629      	mov	r1, r5
 80003bc:	bd30      	pop	{r4, r5, pc}
 80003be:	f094 0f00 	teq	r4, #0
 80003c2:	f483 1380 	eor.w	r3, r3, #1048576	; 0x100000
 80003c6:	bf06      	itte	eq
 80003c8:	f481 1180 	eoreq.w	r1, r1, #1048576	; 0x100000
 80003cc:	3401      	addeq	r4, #1
 80003ce:	3d01      	subne	r5, #1
 80003d0:	e74e      	b.n	8000270 <__adddf3+0x8c>
 80003d2:	ea7f 5c64 	mvns.w	ip, r4, asr #21
 80003d6:	bf18      	it	ne
 80003d8:	ea7f 5c65 	mvnsne.w	ip, r5, asr #21
 80003dc:	d029      	beq.n	8000432 <__adddf3+0x24e>
 80003de:	ea94 0f05 	teq	r4, r5
 80003e2:	bf08      	it	eq
 80003e4:	ea90 0f02 	teqeq	r0, r2
 80003e8:	d005      	beq.n	80003f6 <__adddf3+0x212>
 80003ea:	ea54 0c00 	orrs.w	ip, r4, r0
 80003ee:	bf04      	itt	eq
 80003f0:	4619      	moveq	r1, r3
 80003f2:	4610      	moveq	r0, r2
 80003f4:	bd30      	pop	{r4, r5, pc}
 80003f6:	ea91 0f03 	teq	r1, r3
 80003fa:	bf1e      	ittt	ne
 80003fc:	2100      	movne	r1, #0
 80003fe:	2000      	movne	r0, #0
 8000400:	bd30      	popne	{r4, r5, pc}
 8000402:	ea5f 5c54 	movs.w	ip, r4, lsr #21
 8000406:	d105      	bne.n	8000414 <__adddf3+0x230>
 8000408:	0040      	lsls	r0, r0, #1
 800040a:	4149      	adcs	r1, r1
 800040c:	bf28      	it	cs
 800040e:	f041 4100 	orrcs.w	r1, r1, #2147483648	; 0x80000000
 8000412:	bd30      	pop	{r4, r5, pc}
 8000414:	f514 0480 	adds.w	r4, r4, #4194304	; 0x400000
 8000418:	bf3c      	itt	cc
 800041a:	f501 1180 	addcc.w	r1, r1, #1048576	; 0x100000
 800041e:	bd30      	popcc	{r4, r5, pc}
 8000420:	f001 4500 	and.w	r5, r1, #2147483648	; 0x80000000
 8000424:	f045 41fe 	orr.w	r1, r5, #2130706432	; 0x7f000000
 8000428:	f441 0170 	orr.w	r1, r1, #15728640	; 0xf00000
 800042c:	f04f 0000 	mov.w	r0, #0
 8000430:	bd30      	pop	{r4, r5, pc}
 8000432:	ea7f 5c64 	mvns.w	ip, r4, asr #21
 8000436:	bf1a      	itte	ne
 8000438:	4619      	movne	r1, r3
 800043a:	4610      	movne	r0, r2
 800043c:	ea7f 5c65 	mvnseq.w	ip, r5, asr #21
 8000440:	bf1c      	itt	ne
 8000442:	460b      	movne	r3, r1
 8000444:	4602      	movne	r2, r0
 8000446:	ea50 3401 	orrs.w	r4, r0, r1, lsl #12
 800044a:	bf06      	itte	eq
 800044c:	ea52 3503 	orrseq.w	r5, r2, r3, lsl #12
 8000450:	ea91 0f03 	teqeq	r1, r3
 8000454:	f441 2100 	orrne.w	r1, r1, #524288	; 0x80000
 8000458:	bd30      	pop	{r4, r5, pc}
 800045a:	bf00      	nop

0800045c <__aeabi_ui2d>:
 800045c:	f090 0f00 	teq	r0, #0
 8000460:	bf04      	itt	eq
 8000462:	2100      	moveq	r1, #0
 8000464:	4770      	bxeq	lr
 8000466:	b530      	push	{r4, r5, lr}
 8000468:	f44f 6480 	mov.w	r4, #1024	; 0x400
 800046c:	f104 0432 	add.w	r4, r4, #50	; 0x32
 8000470:	f04f 0500 	mov.w	r5, #0
 8000474:	f04f 0100 	mov.w	r1, #0
 8000478:	e750      	b.n	800031c <__adddf3+0x138>
 800047a:	bf00      	nop

0800047c <__aeabi_i2d>:
 800047c:	f090 0f00 	teq	r0, #0
 8000480:	bf04      	itt	eq
 8000482:	2100      	moveq	r1, #0
 8000484:	4770      	bxeq	lr
 8000486:	b530      	push	{r4, r5, lr}
 8000488:	f44f 6480 	mov.w	r4, #1024	; 0x400
 800048c:	f104 0432 	add.w	r4, r4, #50	; 0x32
 8000490:	f010 4500 	ands.w	r5, r0, #2147483648	; 0x80000000
 8000494:	bf48      	it	mi
 8000496:	4240      	negmi	r0, r0
 8000498:	f04f 0100 	mov.w	r1, #0
 800049c:	e73e      	b.n	800031c <__adddf3+0x138>
 800049e:	bf00      	nop

080004a0 <__aeabi_f2d>:
 80004a0:	0042      	lsls	r2, r0, #1
 80004a2:	ea4f 01e2 	mov.w	r1, r2, asr #3
 80004a6:	ea4f 0131 	mov.w	r1, r1, rrx
 80004aa:	ea4f 7002 	mov.w	r0, r2, lsl #28
 80004ae:	bf1f      	itttt	ne
 80004b0:	f012 437f 	andsne.w	r3, r2, #4278190080	; 0xff000000
 80004b4:	f093 4f7f 	teqne	r3, #4278190080	; 0xff000000
 80004b8:	f081 5160 	eorne.w	r1, r1, #939524096	; 0x38000000
 80004bc:	4770      	bxne	lr
 80004be:	f032 427f 	bics.w	r2, r2, #4278190080	; 0xff000000
 80004c2:	bf08      	it	eq
 80004c4:	4770      	bxeq	lr
 80004c6:	f093 4f7f 	teq	r3, #4278190080	; 0xff000000
 80004ca:	bf04      	itt	eq
 80004cc:	f441 2100 	orreq.w	r1, r1, #524288	; 0x80000
 80004d0:	4770      	bxeq	lr
 80004d2:	b530      	push	{r4, r5, lr}
 80004d4:	f44f 7460 	mov.w	r4, #896	; 0x380
 80004d8:	f001 4500 	and.w	r5, r1, #2147483648	; 0x80000000
 80004dc:	f021 4100 	bic.w	r1, r1, #2147483648	; 0x80000000
 80004e0:	e71c      	b.n	800031c <__adddf3+0x138>
 80004e2:	bf00      	nop

080004e4 <__aeabi_ul2d>:
 80004e4:	ea50 0201 	orrs.w	r2, r0, r1
 80004e8:	bf08      	it	eq
 80004ea:	4770      	bxeq	lr
 80004ec:	b530      	push	{r4, r5, lr}
 80004ee:	f04f 0500 	mov.w	r5, #0
 80004f2:	e00a      	b.n	800050a <__aeabi_l2d+0x16>

080004f4 <__aeabi_l2d>:
 80004f4:	ea50 0201 	orrs.w	r2, r0, r1
 80004f8:	bf08      	it	eq
 80004fa:	4770      	bxeq	lr
 80004fc:	b530      	push	{r4, r5, lr}
 80004fe:	f011 4500 	ands.w	r5, r1, #2147483648	; 0x80000000
 8000502:	d502      	bpl.n	800050a <__aeabi_l2d+0x16>
 8000504:	4240      	negs	r0, r0
 8000506:	eb61 0141 	sbc.w	r1, r1, r1, lsl #1
 800050a:	f44f 6480 	mov.w	r4, #1024	; 0x400
 800050e:	f104 0432 	add.w	r4, r4, #50	; 0x32
 8000512:	ea5f 5c91 	movs.w	ip, r1, lsr #22
 8000516:	f43f aed8 	beq.w	80002ca <__adddf3+0xe6>
 800051a:	f04f 0203 	mov.w	r2, #3
 800051e:	ea5f 0cdc 	movs.w	ip, ip, lsr #3
 8000522:	bf18      	it	ne
 8000524:	3203      	addne	r2, #3
 8000526:	ea5f 0cdc 	movs.w	ip, ip, lsr #3
 800052a:	bf18      	it	ne
 800052c:	3203      	addne	r2, #3
 800052e:	eb02 02dc 	add.w	r2, r2, ip, lsr #3
 8000532:	f1c2 0320 	rsb	r3, r2, #32
 8000536:	fa00 fc03 	lsl.w	ip, r0, r3
 800053a:	fa20 f002 	lsr.w	r0, r0, r2
 800053e:	fa01 fe03 	lsl.w	lr, r1, r3
 8000542:	ea40 000e 	orr.w	r0, r0, lr
 8000546:	fa21 f102 	lsr.w	r1, r1, r2
 800054a:	4414      	add	r4, r2
 800054c:	e6bd      	b.n	80002ca <__adddf3+0xe6>
 800054e:	bf00      	nop

08000550 <__aeabi_dmul>:
 8000550:	b570      	push	{r4, r5, r6, lr}
 8000552:	f04f 0cff 	mov.w	ip, #255	; 0xff
 8000556:	f44c 6ce0 	orr.w	ip, ip, #1792	; 0x700
 800055a:	ea1c 5411 	ands.w	r4, ip, r1, lsr #20
 800055e:	bf1d      	ittte	ne
 8000560:	ea1c 5513 	andsne.w	r5, ip, r3, lsr #20
 8000564:	ea94 0f0c 	teqne	r4, ip
 8000568:	ea95 0f0c 	teqne	r5, ip
 800056c:	f000 f8de 	bleq	800072c <__aeabi_dmul+0x1dc>
 8000570:	442c      	add	r4, r5
 8000572:	ea81 0603 	eor.w	r6, r1, r3
 8000576:	ea21 514c 	bic.w	r1, r1, ip, lsl #21
 800057a:	ea23 534c 	bic.w	r3, r3, ip, lsl #21
 800057e:	ea50 3501 	orrs.w	r5, r0, r1, lsl #12
 8000582:	bf18      	it	ne
 8000584:	ea52 3503 	orrsne.w	r5, r2, r3, lsl #12
 8000588:	f441 1180 	orr.w	r1, r1, #1048576	; 0x100000
 800058c:	f443 1380 	orr.w	r3, r3, #1048576	; 0x100000
 8000590:	d038      	beq.n	8000604 <__aeabi_dmul+0xb4>
 8000592:	fba0 ce02 	umull	ip, lr, r0, r2
 8000596:	f04f 0500 	mov.w	r5, #0
 800059a:	fbe1 e502 	umlal	lr, r5, r1, r2
 800059e:	f006 4200 	and.w	r2, r6, #2147483648	; 0x80000000
 80005a2:	fbe0 e503 	umlal	lr, r5, r0, r3
 80005a6:	f04f 0600 	mov.w	r6, #0
 80005aa:	fbe1 5603 	umlal	r5, r6, r1, r3
 80005ae:	f09c 0f00 	teq	ip, #0
 80005b2:	bf18      	it	ne
 80005b4:	f04e 0e01 	orrne.w	lr, lr, #1
 80005b8:	f1a4 04ff 	sub.w	r4, r4, #255	; 0xff
 80005bc:	f5b6 7f00 	cmp.w	r6, #512	; 0x200
 80005c0:	f564 7440 	sbc.w	r4, r4, #768	; 0x300
 80005c4:	d204      	bcs.n	80005d0 <__aeabi_dmul+0x80>
 80005c6:	ea5f 0e4e 	movs.w	lr, lr, lsl #1
 80005ca:	416d      	adcs	r5, r5
 80005cc:	eb46 0606 	adc.w	r6, r6, r6
 80005d0:	ea42 21c6 	orr.w	r1, r2, r6, lsl #11
 80005d4:	ea41 5155 	orr.w	r1, r1, r5, lsr #21
 80005d8:	ea4f 20c5 	mov.w	r0, r5, lsl #11
 80005dc:	ea40 505e 	orr.w	r0, r0, lr, lsr #21
 80005e0:	ea4f 2ece 	mov.w	lr, lr, lsl #11
 80005e4:	f1b4 0cfd 	subs.w	ip, r4, #253	; 0xfd
 80005e8:	bf88      	it	hi
 80005ea:	f5bc 6fe0 	cmphi.w	ip, #1792	; 0x700
 80005ee:	d81e      	bhi.n	800062e <__aeabi_dmul+0xde>
 80005f0:	f1be 4f00 	cmp.w	lr, #2147483648	; 0x80000000
 80005f4:	bf08      	it	eq
 80005f6:	ea5f 0e50 	movseq.w	lr, r0, lsr #1
 80005fa:	f150 0000 	adcs.w	r0, r0, #0
 80005fe:	eb41 5104 	adc.w	r1, r1, r4, lsl #20
 8000602:	bd70      	pop	{r4, r5, r6, pc}
 8000604:	f006 4600 	and.w	r6, r6, #2147483648	; 0x80000000
 8000608:	ea46 0101 	orr.w	r1, r6, r1
 800060c:	ea40 0002 	orr.w	r0, r0, r2
 8000610:	ea81 0103 	eor.w	r1, r1, r3
 8000614:	ebb4 045c 	subs.w	r4, r4, ip, lsr #1
 8000618:	bfc2      	ittt	gt
 800061a:	ebd4 050c 	rsbsgt	r5, r4, ip
 800061e:	ea41 5104 	orrgt.w	r1, r1, r4, lsl #20
 8000622:	bd70      	popgt	{r4, r5, r6, pc}
 8000624:	f441 1180 	orr.w	r1, r1, #1048576	; 0x100000
 8000628:	f04f 0e00 	mov.w	lr, #0
 800062c:	3c01      	subs	r4, #1
 800062e:	f300 80ab 	bgt.w	8000788 <__aeabi_dmul+0x238>
 8000632:	f114 0f36 	cmn.w	r4, #54	; 0x36
 8000636:	bfde      	ittt	le
 8000638:	2000      	movle	r0, #0
 800063a:	f001 4100 	andle.w	r1, r1, #2147483648	; 0x80000000
 800063e:	bd70      	pople	{r4, r5, r6, pc}
 8000640:	f1c4 0400 	rsb	r4, r4, #0
 8000644:	3c20      	subs	r4, #32
 8000646:	da35      	bge.n	80006b4 <__aeabi_dmul+0x164>
 8000648:	340c      	adds	r4, #12
 800064a:	dc1b      	bgt.n	8000684 <__aeabi_dmul+0x134>
 800064c:	f104 0414 	add.w	r4, r4, #20
 8000650:	f1c4 0520 	rsb	r5, r4, #32
 8000654:	fa00 f305 	lsl.w	r3, r0, r5
 8000658:	fa20 f004 	lsr.w	r0, r0, r4
 800065c:	fa01 f205 	lsl.w	r2, r1, r5
 8000660:	ea40 0002 	orr.w	r0, r0, r2
 8000664:	f001 4200 	and.w	r2, r1, #2147483648	; 0x80000000
 8000668:	f021 4100 	bic.w	r1, r1, #2147483648	; 0x80000000
 800066c:	eb10 70d3 	adds.w	r0, r0, r3, lsr #31
 8000670:	fa21 f604 	lsr.w	r6, r1, r4
 8000674:	eb42 0106 	adc.w	r1, r2, r6
 8000678:	ea5e 0e43 	orrs.w	lr, lr, r3, lsl #1
 800067c:	bf08      	it	eq
 800067e:	ea20 70d3 	biceq.w	r0, r0, r3, lsr #31
 8000682:	bd70      	pop	{r4, r5, r6, pc}
 8000684:	f1c4 040c 	rsb	r4, r4, #12
 8000688:	f1c4 0520 	rsb	r5, r4, #32
 800068c:	fa00 f304 	lsl.w	r3, r0, r4
 8000690:	fa20 f005 	lsr.w	r0, r0, r5
 8000694:	fa01 f204 	lsl.w	r2, r1, r4
 8000698:	ea40 0002 	orr.w	r0, r0, r2
 800069c:	f001 4100 	and.w	r1, r1, #2147483648	; 0x80000000
 80006a0:	eb10 70d3 	adds.w	r0, r0, r3, lsr #31
 80006a4:	f141 0100 	adc.w	r1, r1, #0
 80006a8:	ea5e 0e43 	orrs.w	lr, lr, r3, lsl #1
 80006ac:	bf08      	it	eq
 80006ae:	ea20 70d3 	biceq.w	r0, r0, r3, lsr #31
 80006b2:	bd70      	pop	{r4, r5, r6, pc}
 80006b4:	f1c4 0520 	rsb	r5, r4, #32
 80006b8:	fa00 f205 	lsl.w	r2, r0, r5
 80006bc:	ea4e 0e02 	orr.w	lr, lr, r2
 80006c0:	fa20 f304 	lsr.w	r3, r0, r4
 80006c4:	fa01 f205 	lsl.w	r2, r1, r5
 80006c8:	ea43 0302 	orr.w	r3, r3, r2
 80006cc:	fa21 f004 	lsr.w	r0, r1, r4
 80006d0:	f001 4100 	and.w	r1, r1, #2147483648	; 0x80000000
 80006d4:	fa21 f204 	lsr.w	r2, r1, r4
 80006d8:	ea20 0002 	bic.w	r0, r0, r2
 80006dc:	eb00 70d3 	add.w	r0, r0, r3, lsr #31
 80006e0:	ea5e 0e43 	orrs.w	lr, lr, r3, lsl #1
 80006e4:	bf08      	it	eq
 80006e6:	ea20 70d3 	biceq.w	r0, r0, r3, lsr #31
 80006ea:	bd70      	pop	{r4, r5, r6, pc}
 80006ec:	f094 0f00 	teq	r4, #0
 80006f0:	d10f      	bne.n	8000712 <__aeabi_dmul+0x1c2>
 80006f2:	f001 4600 	and.w	r6, r1, #2147483648	; 0x80000000
 80006f6:	0040      	lsls	r0, r0, #1
 80006f8:	eb41 0101 	adc.w	r1, r1, r1
 80006fc:	f411 1f80 	tst.w	r1, #1048576	; 0x100000
 8000700:	bf08      	it	eq
 8000702:	3c01      	subeq	r4, #1
 8000704:	d0f7      	beq.n	80006f6 <__aeabi_dmul+0x1a6>
 8000706:	ea41 0106 	orr.w	r1, r1, r6
 800070a:	f095 0f00 	teq	r5, #0
 800070e:	bf18      	it	ne
 8000710:	4770      	bxne	lr
 8000712:	f003 4600 	and.w	r6, r3, #2147483648	; 0x80000000
 8000716:	0052      	lsls	r2, r2, #1
 8000718:	eb43 0303 	adc.w	r3, r3, r3
 800071c:	f413 1f80 	tst.w	r3, #1048576	; 0x100000
 8000720:	bf08      	it	eq
 8000722:	3d01      	subeq	r5, #1
 8000724:	d0f7      	beq.n	8000716 <__aeabi_dmul+0x1c6>
 8000726:	ea43 0306 	orr.w	r3, r3, r6
 800072a:	4770      	bx	lr
 800072c:	ea94 0f0c 	teq	r4, ip
 8000730:	ea0c 5513 	and.w	r5, ip, r3, lsr #20
 8000734:	bf18      	it	ne
 8000736:	ea95 0f0c 	teqne	r5, ip
 800073a:	d00c      	beq.n	8000756 <__aeabi_dmul+0x206>
 800073c:	ea50 0641 	orrs.w	r6, r0, r1, lsl #1
 8000740:	bf18      	it	ne
 8000742:	ea52 0643 	orrsne.w	r6, r2, r3, lsl #1
 8000746:	d1d1      	bne.n	80006ec <__aeabi_dmul+0x19c>
 8000748:	ea81 0103 	eor.w	r1, r1, r3
 800074c:	f001 4100 	and.w	r1, r1, #2147483648	; 0x80000000
 8000750:	f04f 0000 	mov.w	r0, #0
 8000754:	bd70      	pop	{r4, r5, r6, pc}
 8000756:	ea50 0641 	orrs.w	r6, r0, r1, lsl #1
 800075a:	bf06      	itte	eq
 800075c:	4610      	moveq	r0, r2
 800075e:	4619      	moveq	r1, r3
 8000760:	ea52 0643 	orrsne.w	r6, r2, r3, lsl #1
 8000764:	d019      	beq.n	800079a <__aeabi_dmul+0x24a>
 8000766:	ea94 0f0c 	teq	r4, ip
 800076a:	d102      	bne.n	8000772 <__aeabi_dmul+0x222>
 800076c:	ea50 3601 	orrs.w	r6, r0, r1, lsl #12
 8000770:	d113      	bne.n	800079a <__aeabi_dmul+0x24a>
 8000772:	ea95 0f0c 	teq	r5, ip
 8000776:	d105      	bne.n	8000784 <__aeabi_dmul+0x234>
 8000778:	ea52 3603 	orrs.w	r6, r2, r3, lsl #12
 800077c:	bf1c      	itt	ne
 800077e:	4610      	movne	r0, r2
 8000780:	4619      	movne	r1, r3
 8000782:	d10a      	bne.n	800079a <__aeabi_dmul+0x24a>
 8000784:	ea81 0103 	eor.w	r1, r1, r3
 8000788:	f001 4100 	and.w	r1, r1, #2147483648	; 0x80000000
 800078c:	f041 41fe 	orr.w	r1, r1, #2130706432	; 0x7f000000
 8000790:	f441 0170 	orr.w	r1, r1, #15728640	; 0xf00000
 8000794:	f04f 0000 	mov.w	r0, #0
 8000798:	bd70      	pop	{r4, r5, r6, pc}
 800079a:	f041 41fe 	orr.w	r1, r1, #2130706432	; 0x7f000000
 800079e:	f441 0178 	orr.w	r1, r1, #16252928	; 0xf80000
 80007a2:	bd70      	pop	{r4, r5, r6, pc}

080007a4 <__aeabi_ddiv>:
 80007a4:	b570      	push	{r4, r5, r6, lr}
 80007a6:	f04f 0cff 	mov.w	ip, #255	; 0xff
 80007aa:	f44c 6ce0 	orr.w	ip, ip, #1792	; 0x700
 80007ae:	ea1c 5411 	ands.w	r4, ip, r1, lsr #20
 80007b2:	bf1d      	ittte	ne
 80007b4:	ea1c 5513 	andsne.w	r5, ip, r3, lsr #20
 80007b8:	ea94 0f0c 	teqne	r4, ip
 80007bc:	ea95 0f0c 	teqne	r5, ip
 80007c0:	f000 f8a7 	bleq	8000912 <__aeabi_ddiv+0x16e>
 80007c4:	eba4 0405 	sub.w	r4, r4, r5
 80007c8:	ea81 0e03 	eor.w	lr, r1, r3
 80007cc:	ea52 3503 	orrs.w	r5, r2, r3, lsl #12
 80007d0:	ea4f 3101 	mov.w	r1, r1, lsl #12
 80007d4:	f000 8088 	beq.w	80008e8 <__aeabi_ddiv+0x144>
 80007d8:	ea4f 3303 	mov.w	r3, r3, lsl #12
 80007dc:	f04f 5580 	mov.w	r5, #268435456	; 0x10000000
 80007e0:	ea45 1313 	orr.w	r3, r5, r3, lsr #4
 80007e4:	ea43 6312 	orr.w	r3, r3, r2, lsr #24
 80007e8:	ea4f 2202 	mov.w	r2, r2, lsl #8
 80007ec:	ea45 1511 	orr.w	r5, r5, r1, lsr #4
 80007f0:	ea45 6510 	orr.w	r5, r5, r0, lsr #24
 80007f4:	ea4f 2600 	mov.w	r6, r0, lsl #8
 80007f8:	f00e 4100 	and.w	r1, lr, #2147483648	; 0x80000000
 80007fc:	429d      	cmp	r5, r3
 80007fe:	bf08      	it	eq
 8000800:	4296      	cmpeq	r6, r2
 8000802:	f144 04fd 	adc.w	r4, r4, #253	; 0xfd
 8000806:	f504 7440 	add.w	r4, r4, #768	; 0x300
 800080a:	d202      	bcs.n	8000812 <__aeabi_ddiv+0x6e>
 800080c:	085b      	lsrs	r3, r3, #1
 800080e:	ea4f 0232 	mov.w	r2, r2, rrx
 8000812:	1ab6      	subs	r6, r6, r2
 8000814:	eb65 0503 	sbc.w	r5, r5, r3
 8000818:	085b      	lsrs	r3, r3, #1
 800081a:	ea4f 0232 	mov.w	r2, r2, rrx
 800081e:	f44f 1080 	mov.w	r0, #1048576	; 0x100000
 8000822:	f44f 2c00 	mov.w	ip, #524288	; 0x80000
 8000826:	ebb6 0e02 	subs.w	lr, r6, r2
 800082a:	eb75 0e03 	sbcs.w	lr, r5, r3
 800082e:	bf22      	ittt	cs
 8000830:	1ab6      	subcs	r6, r6, r2
 8000832:	4675      	movcs	r5, lr
 8000834:	ea40 000c 	orrcs.w	r0, r0, ip
 8000838:	085b      	lsrs	r3, r3, #1
 800083a:	ea4f 0232 	mov.w	r2, r2, rrx
 800083e:	ebb6 0e02 	subs.w	lr, r6, r2
 8000842:	eb75 0e03 	sbcs.w	lr, r5, r3
 8000846:	bf22      	ittt	cs
 8000848:	1ab6      	subcs	r6, r6, r2
 800084a:	4675      	movcs	r5, lr
 800084c:	ea40 005c 	orrcs.w	r0, r0, ip, lsr #1
 8000850:	085b      	lsrs	r3, r3, #1
 8000852:	ea4f 0232 	mov.w	r2, r2, rrx
 8000856:	ebb6 0e02 	subs.w	lr, r6, r2
 800085a:	eb75 0e03 	sbcs.w	lr, r5, r3
 800085e:	bf22      	ittt	cs
 8000860:	1ab6      	subcs	r6, r6, r2
 8000862:	4675      	movcs	r5, lr
 8000864:	ea40 009c 	orrcs.w	r0, r0, ip, lsr #2
 8000868:	085b      	lsrs	r3, r3, #1
 800086a:	ea4f 0232 	mov.w	r2, r2, rrx
 800086e:	ebb6 0e02 	subs.w	lr, r6, r2
 8000872:	eb75 0e03 	sbcs.w	lr, r5, r3
 8000876:	bf22      	ittt	cs
 8000878:	1ab6      	subcs	r6, r6, r2
 800087a:	4675      	movcs	r5, lr
 800087c:	ea40 00dc 	orrcs.w	r0, r0, ip, lsr #3
 8000880:	ea55 0e06 	orrs.w	lr, r5, r6
 8000884:	d018      	beq.n	80008b8 <__aeabi_ddiv+0x114>
 8000886:	ea4f 1505 	mov.w	r5, r5, lsl #4
 800088a:	ea45 7516 	orr.w	r5, r5, r6, lsr #28
 800088e:	ea4f 1606 	mov.w	r6, r6, lsl #4
 8000892:	ea4f 03c3 	mov.w	r3, r3, lsl #3
 8000896:	ea43 7352 	orr.w	r3, r3, r2, lsr #29
 800089a:	ea4f 02c2 	mov.w	r2, r2, lsl #3
 800089e:	ea5f 1c1c 	movs.w	ip, ip, lsr #4
 80008a2:	d1c0      	bne.n	8000826 <__aeabi_ddiv+0x82>
 80008a4:	f411 1f80 	tst.w	r1, #1048576	; 0x100000
 80008a8:	d10b      	bne.n	80008c2 <__aeabi_ddiv+0x11e>
 80008aa:	ea41 0100 	orr.w	r1, r1, r0
 80008ae:	f04f 0000 	mov.w	r0, #0
 80008b2:	f04f 4c00 	mov.w	ip, #2147483648	; 0x80000000
 80008b6:	e7b6      	b.n	8000826 <__aeabi_ddiv+0x82>
 80008b8:	f411 1f80 	tst.w	r1, #1048576	; 0x100000
 80008bc:	bf04      	itt	eq
 80008be:	4301      	orreq	r1, r0
 80008c0:	2000      	moveq	r0, #0
 80008c2:	f1b4 0cfd 	subs.w	ip, r4, #253	; 0xfd
 80008c6:	bf88      	it	hi
 80008c8:	f5bc 6fe0 	cmphi.w	ip, #1792	; 0x700
 80008cc:	f63f aeaf 	bhi.w	800062e <__aeabi_dmul+0xde>
 80008d0:	ebb5 0c03 	subs.w	ip, r5, r3
 80008d4:	bf04      	itt	eq
 80008d6:	ebb6 0c02 	subseq.w	ip, r6, r2
 80008da:	ea5f 0c50 	movseq.w	ip, r0, lsr #1
 80008de:	f150 0000 	adcs.w	r0, r0, #0
 80008e2:	eb41 5104 	adc.w	r1, r1, r4, lsl #20
 80008e6:	bd70      	pop	{r4, r5, r6, pc}
 80008e8:	f00e 4e00 	and.w	lr, lr, #2147483648	; 0x80000000
 80008ec:	ea4e 3111 	orr.w	r1, lr, r1, lsr #12
 80008f0:	eb14 045c 	adds.w	r4, r4, ip, lsr #1
 80008f4:	bfc2      	ittt	gt
 80008f6:	ebd4 050c 	rsbsgt	r5, r4, ip
 80008fa:	ea41 5104 	orrgt.w	r1, r1, r4, lsl #20
 80008fe:	bd70      	popgt	{r4, r5, r6, pc}
 8000900:	f441 1180 	orr.w	r1, r1, #1048576	; 0x100000
 8000904:	f04f 0e00 	mov.w	lr, #0
 8000908:	3c01      	subs	r4, #1
 800090a:	e690      	b.n	800062e <__aeabi_dmul+0xde>
 800090c:	ea45 0e06 	orr.w	lr, r5, r6
 8000910:	e68d      	b.n	800062e <__aeabi_dmul+0xde>
 8000912:	ea0c 5513 	and.w	r5, ip, r3, lsr #20
 8000916:	ea94 0f0c 	teq	r4, ip
 800091a:	bf08      	it	eq
 800091c:	ea95 0f0c 	teqeq	r5, ip
 8000920:	f43f af3b 	beq.w	800079a <__aeabi_dmul+0x24a>
 8000924:	ea94 0f0c 	teq	r4, ip
 8000928:	d10a      	bne.n	8000940 <__aeabi_ddiv+0x19c>
 800092a:	ea50 3401 	orrs.w	r4, r0, r1, lsl #12
 800092e:	f47f af34 	bne.w	800079a <__aeabi_dmul+0x24a>
 8000932:	ea95 0f0c 	teq	r5, ip
 8000936:	f47f af25 	bne.w	8000784 <__aeabi_dmul+0x234>
 800093a:	4610      	mov	r0, r2
 800093c:	4619      	mov	r1, r3
 800093e:	e72c      	b.n	800079a <__aeabi_dmul+0x24a>
 8000940:	ea95 0f0c 	teq	r5, ip
 8000944:	d106      	bne.n	8000954 <__aeabi_ddiv+0x1b0>
 8000946:	ea52 3503 	orrs.w	r5, r2, r3, lsl #12
 800094a:	f43f aefd 	beq.w	8000748 <__aeabi_dmul+0x1f8>
 800094e:	4610      	mov	r0, r2
 8000950:	4619      	mov	r1, r3
 8000952:	e722      	b.n	800079a <__aeabi_dmul+0x24a>
 8000954:	ea50 0641 	orrs.w	r6, r0, r1, lsl #1
 8000958:	bf18      	it	ne
 800095a:	ea52 0643 	orrsne.w	r6, r2, r3, lsl #1
 800095e:	f47f aec5 	bne.w	80006ec <__aeabi_dmul+0x19c>
 8000962:	ea50 0441 	orrs.w	r4, r0, r1, lsl #1
 8000966:	f47f af0d 	bne.w	8000784 <__aeabi_dmul+0x234>
 800096a:	ea52 0543 	orrs.w	r5, r2, r3, lsl #1
 800096e:	f47f aeeb 	bne.w	8000748 <__aeabi_dmul+0x1f8>
 8000972:	e712      	b.n	800079a <__aeabi_dmul+0x24a>

08000974 <__aeabi_d2uiz>:
 8000974:	004a      	lsls	r2, r1, #1
 8000976:	d211      	bcs.n	800099c <__aeabi_d2uiz+0x28>
 8000978:	f512 1200 	adds.w	r2, r2, #2097152	; 0x200000
 800097c:	d211      	bcs.n	80009a2 <__aeabi_d2uiz+0x2e>
 800097e:	d50d      	bpl.n	800099c <__aeabi_d2uiz+0x28>
 8000980:	f46f 7378 	mvn.w	r3, #992	; 0x3e0
 8000984:	ebb3 5262 	subs.w	r2, r3, r2, asr #21
 8000988:	d40e      	bmi.n	80009a8 <__aeabi_d2uiz+0x34>
 800098a:	ea4f 23c1 	mov.w	r3, r1, lsl #11
 800098e:	f043 4300 	orr.w	r3, r3, #2147483648	; 0x80000000
 8000992:	ea43 5350 	orr.w	r3, r3, r0, lsr #21
 8000996:	fa23 f002 	lsr.w	r0, r3, r2
 800099a:	4770      	bx	lr
 800099c:	f04f 0000 	mov.w	r0, #0
 80009a0:	4770      	bx	lr
 80009a2:	ea50 3001 	orrs.w	r0, r0, r1, lsl #12
 80009a6:	d102      	bne.n	80009ae <__aeabi_d2uiz+0x3a>
 80009a8:	f04f 30ff 	mov.w	r0, #4294967295	; 0xffffffff
 80009ac:	4770      	bx	lr
 80009ae:	f04f 0000 	mov.w	r0, #0
 80009b2:	4770      	bx	lr

080009b4 <__aeabi_ldivmod>:
 80009b4:	b97b      	cbnz	r3, 80009d6 <__aeabi_ldivmod+0x22>
 80009b6:	b972      	cbnz	r2, 80009d6 <__aeabi_ldivmod+0x22>
 80009b8:	2900      	cmp	r1, #0
 80009ba:	bfbe      	ittt	lt
 80009bc:	2000      	movlt	r0, #0
 80009be:	f04f 4100 	movlt.w	r1, #2147483648	; 0x80000000
 80009c2:	e006      	blt.n	80009d2 <__aeabi_ldivmod+0x1e>
 80009c4:	bf08      	it	eq
 80009c6:	2800      	cmpeq	r0, #0
 80009c8:	bf1c      	itt	ne
 80009ca:	f06f 4100 	mvnne.w	r1, #2147483648	; 0x80000000
 80009ce:	f04f 30ff 	movne.w	r0, #4294967295	; 0xffffffff
 80009d2:	f000 b9a5 	b.w	8000d20 <__aeabi_idiv0>
 80009d6:	f1ad 0c08 	sub.w	ip, sp, #8
 80009da:	e96d ce04 	strd	ip, lr, [sp, #-16]!
 80009de:	2900      	cmp	r1, #0
 80009e0:	db09      	blt.n	80009f6 <__aeabi_ldivmod+0x42>
 80009e2:	2b00      	cmp	r3, #0
 80009e4:	db1a      	blt.n	8000a1c <__aeabi_ldivmod+0x68>
 80009e6:	f000 f835 	bl	8000a54 <__udivmoddi4>
 80009ea:	f8dd e004 	ldr.w	lr, [sp, #4]
 80009ee:	e9dd 2302 	ldrd	r2, r3, [sp, #8]
 80009f2:	b004      	add	sp, #16
 80009f4:	4770      	bx	lr
 80009f6:	4240      	negs	r0, r0
 80009f8:	eb61 0141 	sbc.w	r1, r1, r1, lsl #1
 80009fc:	2b00      	cmp	r3, #0
 80009fe:	db1b      	blt.n	8000a38 <__aeabi_ldivmod+0x84>
 8000a00:	f000 f828 	bl	8000a54 <__udivmoddi4>
 8000a04:	f8dd e004 	ldr.w	lr, [sp, #4]
 8000a08:	e9dd 2302 	ldrd	r2, r3, [sp, #8]
 8000a0c:	b004      	add	sp, #16
 8000a0e:	4240      	negs	r0, r0
 8000a10:	eb61 0141 	sbc.w	r1, r1, r1, lsl #1
 8000a14:	4252      	negs	r2, r2
 8000a16:	eb63 0343 	sbc.w	r3, r3, r3, lsl #1
 8000a1a:	4770      	bx	lr
 8000a1c:	4252      	negs	r2, r2
 8000a1e:	eb63 0343 	sbc.w	r3, r3, r3, lsl #1
 8000a22:	f000 f817 	bl	8000a54 <__udivmoddi4>
 8000a26:	f8dd e004 	ldr.w	lr, [sp, #4]
 8000a2a:	e9dd 2302 	ldrd	r2, r3, [sp, #8]
 8000a2e:	b004      	add	sp, #16
 8000a30:	4240      	negs	r0, r0
 8000a32:	eb61 0141 	sbc.w	r1, r1, r1, lsl #1
 8000a36:	4770      	bx	lr
 8000a38:	4252      	negs	r2, r2
 8000a3a:	eb63 0343 	sbc.w	r3, r3, r3, lsl #1
 8000a3e:	f000 f809 	bl	8000a54 <__udivmoddi4>
 8000a42:	f8dd e004 	ldr.w	lr, [sp, #4]
 8000a46:	e9dd 2302 	ldrd	r2, r3, [sp, #8]
 8000a4a:	b004      	add	sp, #16
 8000a4c:	4252      	negs	r2, r2
 8000a4e:	eb63 0343 	sbc.w	r3, r3, r3, lsl #1
 8000a52:	4770      	bx	lr

08000a54 <__udivmoddi4>:
 8000a54:	e92d 47f0 	stmdb	sp!, {r4, r5, r6, r7, r8, r9, sl, lr}
 8000a58:	9e08      	ldr	r6, [sp, #32]
 8000a5a:	4604      	mov	r4, r0
 8000a5c:	4688      	mov	r8, r1
 8000a5e:	2b00      	cmp	r3, #0
 8000a60:	d14b      	bne.n	8000afa <__udivmoddi4+0xa6>
 8000a62:	428a      	cmp	r2, r1
 8000a64:	4615      	mov	r5, r2
 8000a66:	d967      	bls.n	8000b38 <__udivmoddi4+0xe4>
 8000a68:	fab2 f282 	clz	r2, r2
 8000a6c:	b14a      	cbz	r2, 8000a82 <__udivmoddi4+0x2e>
 8000a6e:	f1c2 0720 	rsb	r7, r2, #32
 8000a72:	fa01 f302 	lsl.w	r3, r1, r2
 8000a76:	fa20 f707 	lsr.w	r7, r0, r7
 8000a7a:	4095      	lsls	r5, r2
 8000a7c:	ea47 0803 	orr.w	r8, r7, r3
 8000a80:	4094      	lsls	r4, r2
 8000a82:	ea4f 4e15 	mov.w	lr, r5, lsr #16
 8000a86:	0c23      	lsrs	r3, r4, #16
 8000a88:	fbb8 f7fe 	udiv	r7, r8, lr
 8000a8c:	fa1f fc85 	uxth.w	ip, r5
 8000a90:	fb0e 8817 	mls	r8, lr, r7, r8
 8000a94:	ea43 4308 	orr.w	r3, r3, r8, lsl #16
 8000a98:	fb07 f10c 	mul.w	r1, r7, ip
 8000a9c:	4299      	cmp	r1, r3
 8000a9e:	d909      	bls.n	8000ab4 <__udivmoddi4+0x60>
 8000aa0:	18eb      	adds	r3, r5, r3
 8000aa2:	f107 30ff 	add.w	r0, r7, #4294967295	; 0xffffffff
 8000aa6:	f080 811b 	bcs.w	8000ce0 <__udivmoddi4+0x28c>
 8000aaa:	4299      	cmp	r1, r3
 8000aac:	f240 8118 	bls.w	8000ce0 <__udivmoddi4+0x28c>
 8000ab0:	3f02      	subs	r7, #2
 8000ab2:	442b      	add	r3, r5
 8000ab4:	1a5b      	subs	r3, r3, r1
 8000ab6:	b2a4      	uxth	r4, r4
 8000ab8:	fbb3 f0fe 	udiv	r0, r3, lr
 8000abc:	fb0e 3310 	mls	r3, lr, r0, r3
 8000ac0:	ea44 4403 	orr.w	r4, r4, r3, lsl #16
 8000ac4:	fb00 fc0c 	mul.w	ip, r0, ip
 8000ac8:	45a4      	cmp	ip, r4
 8000aca:	d909      	bls.n	8000ae0 <__udivmoddi4+0x8c>
 8000acc:	192c      	adds	r4, r5, r4
 8000ace:	f100 33ff 	add.w	r3, r0, #4294967295	; 0xffffffff
 8000ad2:	f080 8107 	bcs.w	8000ce4 <__udivmoddi4+0x290>
 8000ad6:	45a4      	cmp	ip, r4
 8000ad8:	f240 8104 	bls.w	8000ce4 <__udivmoddi4+0x290>
 8000adc:	3802      	subs	r0, #2
 8000ade:	442c      	add	r4, r5
 8000ae0:	ea40 4007 	orr.w	r0, r0, r7, lsl #16
 8000ae4:	eba4 040c 	sub.w	r4, r4, ip
 8000ae8:	2700      	movs	r7, #0
 8000aea:	b11e      	cbz	r6, 8000af4 <__udivmoddi4+0xa0>
 8000aec:	40d4      	lsrs	r4, r2
 8000aee:	2300      	movs	r3, #0
 8000af0:	e9c6 4300 	strd	r4, r3, [r6]
 8000af4:	4639      	mov	r1, r7
 8000af6:	e8bd 87f0 	ldmia.w	sp!, {r4, r5, r6, r7, r8, r9, sl, pc}
 8000afa:	428b      	cmp	r3, r1
 8000afc:	d909      	bls.n	8000b12 <__udivmoddi4+0xbe>
 8000afe:	2e00      	cmp	r6, #0
 8000b00:	f000 80eb 	beq.w	8000cda <__udivmoddi4+0x286>
 8000b04:	2700      	movs	r7, #0
 8000b06:	e9c6 0100 	strd	r0, r1, [r6]
 8000b0a:	4638      	mov	r0, r7
 8000b0c:	4639      	mov	r1, r7
 8000b0e:	e8bd 87f0 	ldmia.w	sp!, {r4, r5, r6, r7, r8, r9, sl, pc}
 8000b12:	fab3 f783 	clz	r7, r3
 8000b16:	2f00      	cmp	r7, #0
 8000b18:	d147      	bne.n	8000baa <__udivmoddi4+0x156>
 8000b1a:	428b      	cmp	r3, r1
 8000b1c:	d302      	bcc.n	8000b24 <__udivmoddi4+0xd0>
 8000b1e:	4282      	cmp	r2, r0
 8000b20:	f200 80fa 	bhi.w	8000d18 <__udivmoddi4+0x2c4>
 8000b24:	1a84      	subs	r4, r0, r2
 8000b26:	eb61 0303 	sbc.w	r3, r1, r3
 8000b2a:	2001      	movs	r0, #1
 8000b2c:	4698      	mov	r8, r3
 8000b2e:	2e00      	cmp	r6, #0
 8000b30:	d0e0      	beq.n	8000af4 <__udivmoddi4+0xa0>
 8000b32:	e9c6 4800 	strd	r4, r8, [r6]
 8000b36:	e7dd      	b.n	8000af4 <__udivmoddi4+0xa0>
 8000b38:	b902      	cbnz	r2, 8000b3c <__udivmoddi4+0xe8>
 8000b3a:	deff      	udf	#255	; 0xff
 8000b3c:	fab2 f282 	clz	r2, r2
 8000b40:	2a00      	cmp	r2, #0
 8000b42:	f040 808f 	bne.w	8000c64 <__udivmoddi4+0x210>
 8000b46:	1b49      	subs	r1, r1, r5
 8000b48:	ea4f 4e15 	mov.w	lr, r5, lsr #16
 8000b4c:	fa1f f885 	uxth.w	r8, r5
 8000b50:	2701      	movs	r7, #1
 8000b52:	fbb1 fcfe 	udiv	ip, r1, lr
 8000b56:	0c23      	lsrs	r3, r4, #16
 8000b58:	fb0e 111c 	mls	r1, lr, ip, r1
 8000b5c:	ea43 4301 	orr.w	r3, r3, r1, lsl #16
 8000b60:	fb08 f10c 	mul.w	r1, r8, ip
 8000b64:	4299      	cmp	r1, r3
 8000b66:	d907      	bls.n	8000b78 <__udivmoddi4+0x124>
 8000b68:	18eb      	adds	r3, r5, r3
 8000b6a:	f10c 30ff 	add.w	r0, ip, #4294967295	; 0xffffffff
 8000b6e:	d202      	bcs.n	8000b76 <__udivmoddi4+0x122>
 8000b70:	4299      	cmp	r1, r3
 8000b72:	f200 80cd 	bhi.w	8000d10 <__udivmoddi4+0x2bc>
 8000b76:	4684      	mov	ip, r0
 8000b78:	1a59      	subs	r1, r3, r1
 8000b7a:	b2a3      	uxth	r3, r4
 8000b7c:	fbb1 f0fe 	udiv	r0, r1, lr
 8000b80:	fb0e 1410 	mls	r4, lr, r0, r1
 8000b84:	ea43 4404 	orr.w	r4, r3, r4, lsl #16
 8000b88:	fb08 f800 	mul.w	r8, r8, r0
 8000b8c:	45a0      	cmp	r8, r4
 8000b8e:	d907      	bls.n	8000ba0 <__udivmoddi4+0x14c>
 8000b90:	192c      	adds	r4, r5, r4
 8000b92:	f100 33ff 	add.w	r3, r0, #4294967295	; 0xffffffff
 8000b96:	d202      	bcs.n	8000b9e <__udivmoddi4+0x14a>
 8000b98:	45a0      	cmp	r8, r4
 8000b9a:	f200 80b6 	bhi.w	8000d0a <__udivmoddi4+0x2b6>
 8000b9e:	4618      	mov	r0, r3
 8000ba0:	eba4 0408 	sub.w	r4, r4, r8
 8000ba4:	ea40 400c 	orr.w	r0, r0, ip, lsl #16
 8000ba8:	e79f      	b.n	8000aea <__udivmoddi4+0x96>
 8000baa:	f1c7 0c20 	rsb	ip, r7, #32
 8000bae:	40bb      	lsls	r3, r7
 8000bb0:	fa22 fe0c 	lsr.w	lr, r2, ip
 8000bb4:	ea4e 0e03 	orr.w	lr, lr, r3
 8000bb8:	fa01 f407 	lsl.w	r4, r1, r7
 8000bbc:	fa20 f50c 	lsr.w	r5, r0, ip
 8000bc0:	fa21 f30c 	lsr.w	r3, r1, ip
 8000bc4:	ea4f 481e 	mov.w	r8, lr, lsr #16
 8000bc8:	4325      	orrs	r5, r4
 8000bca:	fbb3 f9f8 	udiv	r9, r3, r8
 8000bce:	0c2c      	lsrs	r4, r5, #16
 8000bd0:	fb08 3319 	mls	r3, r8, r9, r3
 8000bd4:	fa1f fa8e 	uxth.w	sl, lr
 8000bd8:	ea44 4303 	orr.w	r3, r4, r3, lsl #16
 8000bdc:	fb09 f40a 	mul.w	r4, r9, sl
 8000be0:	429c      	cmp	r4, r3
 8000be2:	fa02 f207 	lsl.w	r2, r2, r7
 8000be6:	fa00 f107 	lsl.w	r1, r0, r7
 8000bea:	d90b      	bls.n	8000c04 <__udivmoddi4+0x1b0>
 8000bec:	eb1e 0303 	adds.w	r3, lr, r3
 8000bf0:	f109 30ff 	add.w	r0, r9, #4294967295	; 0xffffffff
 8000bf4:	f080 8087 	bcs.w	8000d06 <__udivmoddi4+0x2b2>
 8000bf8:	429c      	cmp	r4, r3
 8000bfa:	f240 8084 	bls.w	8000d06 <__udivmoddi4+0x2b2>
 8000bfe:	f1a9 0902 	sub.w	r9, r9, #2
 8000c02:	4473      	add	r3, lr
 8000c04:	1b1b      	subs	r3, r3, r4
 8000c06:	b2ad      	uxth	r5, r5
 8000c08:	fbb3 f0f8 	udiv	r0, r3, r8
 8000c0c:	fb08 3310 	mls	r3, r8, r0, r3
 8000c10:	ea45 4403 	orr.w	r4, r5, r3, lsl #16
 8000c14:	fb00 fa0a 	mul.w	sl, r0, sl
 8000c18:	45a2      	cmp	sl, r4
 8000c1a:	d908      	bls.n	8000c2e <__udivmoddi4+0x1da>
 8000c1c:	eb1e 0404 	adds.w	r4, lr, r4
 8000c20:	f100 33ff 	add.w	r3, r0, #4294967295	; 0xffffffff
 8000c24:	d26b      	bcs.n	8000cfe <__udivmoddi4+0x2aa>
 8000c26:	45a2      	cmp	sl, r4
 8000c28:	d969      	bls.n	8000cfe <__udivmoddi4+0x2aa>
 8000c2a:	3802      	subs	r0, #2
 8000c2c:	4474      	add	r4, lr
 8000c2e:	ea40 4009 	orr.w	r0, r0, r9, lsl #16
 8000c32:	fba0 8902 	umull	r8, r9, r0, r2
 8000c36:	eba4 040a 	sub.w	r4, r4, sl
 8000c3a:	454c      	cmp	r4, r9
 8000c3c:	46c2      	mov	sl, r8
 8000c3e:	464b      	mov	r3, r9
 8000c40:	d354      	bcc.n	8000cec <__udivmoddi4+0x298>
 8000c42:	d051      	beq.n	8000ce8 <__udivmoddi4+0x294>
 8000c44:	2e00      	cmp	r6, #0
 8000c46:	d069      	beq.n	8000d1c <__udivmoddi4+0x2c8>
 8000c48:	ebb1 050a 	subs.w	r5, r1, sl
 8000c4c:	eb64 0403 	sbc.w	r4, r4, r3
 8000c50:	fa04 fc0c 	lsl.w	ip, r4, ip
 8000c54:	40fd      	lsrs	r5, r7
 8000c56:	40fc      	lsrs	r4, r7
 8000c58:	ea4c 0505 	orr.w	r5, ip, r5
 8000c5c:	e9c6 5400 	strd	r5, r4, [r6]
 8000c60:	2700      	movs	r7, #0
 8000c62:	e747      	b.n	8000af4 <__udivmoddi4+0xa0>
 8000c64:	f1c2 0320 	rsb	r3, r2, #32
 8000c68:	fa20 f703 	lsr.w	r7, r0, r3
 8000c6c:	4095      	lsls	r5, r2
 8000c6e:	fa01 f002 	lsl.w	r0, r1, r2
 8000c72:	fa21 f303 	lsr.w	r3, r1, r3
 8000c76:	ea4f 4e15 	mov.w	lr, r5, lsr #16
 8000c7a:	4338      	orrs	r0, r7
 8000c7c:	0c01      	lsrs	r1, r0, #16
 8000c7e:	fbb3 f7fe 	udiv	r7, r3, lr
 8000c82:	fa1f f885 	uxth.w	r8, r5
 8000c86:	fb0e 3317 	mls	r3, lr, r7, r3
 8000c8a:	ea41 4103 	orr.w	r1, r1, r3, lsl #16
 8000c8e:	fb07 f308 	mul.w	r3, r7, r8
 8000c92:	428b      	cmp	r3, r1
 8000c94:	fa04 f402 	lsl.w	r4, r4, r2
 8000c98:	d907      	bls.n	8000caa <__udivmoddi4+0x256>
 8000c9a:	1869      	adds	r1, r5, r1
 8000c9c:	f107 3cff 	add.w	ip, r7, #4294967295	; 0xffffffff
 8000ca0:	d22f      	bcs.n	8000d02 <__udivmoddi4+0x2ae>
 8000ca2:	428b      	cmp	r3, r1
 8000ca4:	d92d      	bls.n	8000d02 <__udivmoddi4+0x2ae>
 8000ca6:	3f02      	subs	r7, #2
 8000ca8:	4429      	add	r1, r5
 8000caa:	1acb      	subs	r3, r1, r3
 8000cac:	b281      	uxth	r1, r0
 8000cae:	fbb3 f0fe 	udiv	r0, r3, lr
 8000cb2:	fb0e 3310 	mls	r3, lr, r0, r3
 8000cb6:	ea41 4103 	orr.w	r1, r1, r3, lsl #16
 8000cba:	fb00 f308 	mul.w	r3, r0, r8
 8000cbe:	428b      	cmp	r3, r1
 8000cc0:	d907      	bls.n	8000cd2 <__udivmoddi4+0x27e>
 8000cc2:	1869      	adds	r1, r5, r1
 8000cc4:	f100 3cff 	add.w	ip, r0, #4294967295	; 0xffffffff
 8000cc8:	d217      	bcs.n	8000cfa <__udivmoddi4+0x2a6>
 8000cca:	428b      	cmp	r3, r1
 8000ccc:	d915      	bls.n	8000cfa <__udivmoddi4+0x2a6>
 8000cce:	3802      	subs	r0, #2
 8000cd0:	4429      	add	r1, r5
 8000cd2:	1ac9      	subs	r1, r1, r3
 8000cd4:	ea40 4707 	orr.w	r7, r0, r7, lsl #16
 8000cd8:	e73b      	b.n	8000b52 <__udivmoddi4+0xfe>
 8000cda:	4637      	mov	r7, r6
 8000cdc:	4630      	mov	r0, r6
 8000cde:	e709      	b.n	8000af4 <__udivmoddi4+0xa0>
 8000ce0:	4607      	mov	r7, r0
 8000ce2:	e6e7      	b.n	8000ab4 <__udivmoddi4+0x60>
 8000ce4:	4618      	mov	r0, r3
 8000ce6:	e6fb      	b.n	8000ae0 <__udivmoddi4+0x8c>
 8000ce8:	4541      	cmp	r1, r8
 8000cea:	d2ab      	bcs.n	8000c44 <__udivmoddi4+0x1f0>
 8000cec:	ebb8 0a02 	subs.w	sl, r8, r2
 8000cf0:	eb69 020e 	sbc.w	r2, r9, lr
 8000cf4:	3801      	subs	r0, #1
 8000cf6:	4613      	mov	r3, r2
 8000cf8:	e7a4      	b.n	8000c44 <__udivmoddi4+0x1f0>
 8000cfa:	4660      	mov	r0, ip
 8000cfc:	e7e9      	b.n	8000cd2 <__udivmoddi4+0x27e>
 8000cfe:	4618      	mov	r0, r3
 8000d00:	e795      	b.n	8000c2e <__udivmoddi4+0x1da>
 8000d02:	4667      	mov	r7, ip
 8000d04:	e7d1      	b.n	8000caa <__udivmoddi4+0x256>
 8000d06:	4681      	mov	r9, r0
 8000d08:	e77c      	b.n	8000c04 <__udivmoddi4+0x1b0>
 8000d0a:	3802      	subs	r0, #2
 8000d0c:	442c      	add	r4, r5
 8000d0e:	e747      	b.n	8000ba0 <__udivmoddi4+0x14c>
 8000d10:	f1ac 0c02 	sub.w	ip, ip, #2
 8000d14:	442b      	add	r3, r5
 8000d16:	e72f      	b.n	8000b78 <__udivmoddi4+0x124>
 8000d18:	4638      	mov	r0, r7
 8000d1a:	e708      	b.n	8000b2e <__udivmoddi4+0xda>
 8000d1c:	4637      	mov	r7, r6
 8000d1e:	e6e9      	b.n	8000af4 <__udivmoddi4+0xa0>

08000d20 <__aeabi_idiv0>:
 8000d20:	4770      	bx	lr
 8000d22:	bf00      	nop

08000d24 <NVIC_Init>:
 8000d24:	7801      	ldrb	r1, [r0, #0]
 8000d26:	b570      	push	{r4, r5, r6, lr}
 8000d28:	f001 031f 	and.w	r3, r1, #31
 8000d2c:	2601      	movs	r6, #1
 8000d2e:	409e      	lsls	r6, r3
 8000d30:	78c3      	ldrb	r3, [r0, #3]
 8000d32:	094d      	lsrs	r5, r1, #5
 8000d34:	b1cb      	cbz	r3, 8000d6a <NVIC_Init+0x46>
 8000d36:	4b0f      	ldr	r3, [pc, #60]	; (8000d74 <NVIC_Init+0x50>)
 8000d38:	68da      	ldr	r2, [r3, #12]
 8000d3a:	7843      	ldrb	r3, [r0, #1]
 8000d3c:	43d2      	mvns	r2, r2
 8000d3e:	f3c2 2202 	ubfx	r2, r2, #8, #3
 8000d42:	f1c2 0404 	rsb	r4, r2, #4
 8000d46:	b2e4      	uxtb	r4, r4
 8000d48:	40a3      	lsls	r3, r4
 8000d4a:	b2dc      	uxtb	r4, r3
 8000d4c:	230f      	movs	r3, #15
 8000d4e:	fa43 f202 	asr.w	r2, r3, r2
 8000d52:	7883      	ldrb	r3, [r0, #2]
 8000d54:	4013      	ands	r3, r2
 8000d56:	4a08      	ldr	r2, [pc, #32]	; (8000d78 <NVIC_Init+0x54>)
 8000d58:	4323      	orrs	r3, r4
 8000d5a:	011b      	lsls	r3, r3, #4
 8000d5c:	4411      	add	r1, r2
 8000d5e:	b2db      	uxtb	r3, r3
 8000d60:	f881 3300 	strb.w	r3, [r1, #768]	; 0x300
 8000d64:	f842 6025 	str.w	r6, [r2, r5, lsl #2]
 8000d68:	bd70      	pop	{r4, r5, r6, pc}
 8000d6a:	3520      	adds	r5, #32
 8000d6c:	4b02      	ldr	r3, [pc, #8]	; (8000d78 <NVIC_Init+0x54>)
 8000d6e:	f843 6025 	str.w	r6, [r3, r5, lsl #2]
 8000d72:	e7f9      	b.n	8000d68 <NVIC_Init+0x44>
 8000d74:	e000ed00 	.word	0xe000ed00
 8000d78:	e000e100 	.word	0xe000e100

08000d7c <ADC_Init>:
 8000d7c:	6843      	ldr	r3, [r0, #4]
 8000d7e:	790a      	ldrb	r2, [r1, #4]
 8000d80:	f023 7340 	bic.w	r3, r3, #50331648	; 0x3000000
 8000d84:	f423 7380 	bic.w	r3, r3, #256	; 0x100
 8000d88:	ea43 2302 	orr.w	r3, r3, r2, lsl #8
 8000d8c:	680a      	ldr	r2, [r1, #0]
 8000d8e:	4313      	orrs	r3, r2
 8000d90:	6043      	str	r3, [r0, #4]
 8000d92:	e9d1 2303 	ldrd	r2, r3, [r1, #12]
 8000d96:	4313      	orrs	r3, r2
 8000d98:	688a      	ldr	r2, [r1, #8]
 8000d9a:	b510      	push	{r4, lr}
 8000d9c:	4313      	orrs	r3, r2
 8000d9e:	6884      	ldr	r4, [r0, #8]
 8000da0:	4a08      	ldr	r2, [pc, #32]	; (8000dc4 <ADC_Init+0x48>)
 8000da2:	4022      	ands	r2, r4
 8000da4:	4313      	orrs	r3, r2
 8000da6:	794a      	ldrb	r2, [r1, #5]
 8000da8:	ea43 0342 	orr.w	r3, r3, r2, lsl #1
 8000dac:	6083      	str	r3, [r0, #8]
 8000dae:	7d0a      	ldrb	r2, [r1, #20]
 8000db0:	6ac3      	ldr	r3, [r0, #44]	; 0x2c
 8000db2:	3a01      	subs	r2, #1
 8000db4:	f423 0370 	bic.w	r3, r3, #15728640	; 0xf00000
 8000db8:	b2d2      	uxtb	r2, r2
 8000dba:	ea43 5302 	orr.w	r3, r3, r2, lsl #20
 8000dbe:	62c3      	str	r3, [r0, #44]	; 0x2c
 8000dc0:	bd10      	pop	{r4, pc}
 8000dc2:	bf00      	nop
 8000dc4:	c0fff7fd 	.word	0xc0fff7fd

08000dc8 <ADC_StructInit>:
 8000dc8:	2300      	movs	r3, #0
 8000dca:	6003      	str	r3, [r0, #0]
 8000dcc:	7103      	strb	r3, [r0, #4]
 8000dce:	7143      	strb	r3, [r0, #5]
 8000dd0:	e9c0 3302 	strd	r3, r3, [r0, #8]
 8000dd4:	6103      	str	r3, [r0, #16]
 8000dd6:	2301      	movs	r3, #1
 8000dd8:	7503      	strb	r3, [r0, #20]
 8000dda:	4770      	bx	lr

08000ddc <ADC_CommonInit>:
 8000ddc:	e9d0 3200 	ldrd	r3, r2, [r0]
 8000de0:	4906      	ldr	r1, [pc, #24]	; (8000dfc <ADC_CommonInit+0x20>)
 8000de2:	b510      	push	{r4, lr}
 8000de4:	4313      	orrs	r3, r2
 8000de6:	684c      	ldr	r4, [r1, #4]
 8000de8:	4a05      	ldr	r2, [pc, #20]	; (8000e00 <ADC_CommonInit+0x24>)
 8000dea:	4022      	ands	r2, r4
 8000dec:	4313      	orrs	r3, r2
 8000dee:	6882      	ldr	r2, [r0, #8]
 8000df0:	4313      	orrs	r3, r2
 8000df2:	68c2      	ldr	r2, [r0, #12]
 8000df4:	4313      	orrs	r3, r2
 8000df6:	604b      	str	r3, [r1, #4]
 8000df8:	bd10      	pop	{r4, pc}
 8000dfa:	bf00      	nop
 8000dfc:	40012300 	.word	0x40012300
 8000e00:	fffc30e0 	.word	0xfffc30e0

08000e04 <ADC_Cmd>:
 8000e04:	6883      	ldr	r3, [r0, #8]
 8000e06:	b119      	cbz	r1, 8000e10 <ADC_Cmd+0xc>
 8000e08:	f043 0301 	orr.w	r3, r3, #1
 8000e0c:	6083      	str	r3, [r0, #8]
 8000e0e:	4770      	bx	lr
 8000e10:	f023 0301 	bic.w	r3, r3, #1
 8000e14:	e7fa      	b.n	8000e0c <ADC_Cmd+0x8>

08000e16 <ADC_RegularChannelConfig>:
 8000e16:	2909      	cmp	r1, #9
 8000e18:	b570      	push	{r4, r5, r6, lr}
 8000e1a:	d91b      	bls.n	8000e54 <ADC_RegularChannelConfig+0x3e>
 8000e1c:	f1a1 040a 	sub.w	r4, r1, #10
 8000e20:	68c5      	ldr	r5, [r0, #12]
 8000e22:	eb04 0444 	add.w	r4, r4, r4, lsl #1
 8000e26:	2607      	movs	r6, #7
 8000e28:	40a6      	lsls	r6, r4
 8000e2a:	ea25 0506 	bic.w	r5, r5, r6
 8000e2e:	fa03 f404 	lsl.w	r4, r3, r4
 8000e32:	432c      	orrs	r4, r5
 8000e34:	60c4      	str	r4, [r0, #12]
 8000e36:	2a06      	cmp	r2, #6
 8000e38:	d818      	bhi.n	8000e6c <ADC_RegularChannelConfig+0x56>
 8000e3a:	3a01      	subs	r2, #1
 8000e3c:	6b43      	ldr	r3, [r0, #52]	; 0x34
 8000e3e:	eb02 0282 	add.w	r2, r2, r2, lsl #2
 8000e42:	241f      	movs	r4, #31
 8000e44:	4094      	lsls	r4, r2
 8000e46:	ea23 0304 	bic.w	r3, r3, r4
 8000e4a:	fa01 f202 	lsl.w	r2, r1, r2
 8000e4e:	431a      	orrs	r2, r3
 8000e50:	6342      	str	r2, [r0, #52]	; 0x34
 8000e52:	bd70      	pop	{r4, r5, r6, pc}
 8000e54:	6905      	ldr	r5, [r0, #16]
 8000e56:	eb01 0641 	add.w	r6, r1, r1, lsl #1
 8000e5a:	2407      	movs	r4, #7
 8000e5c:	40b4      	lsls	r4, r6
 8000e5e:	ea25 0504 	bic.w	r5, r5, r4
 8000e62:	fa03 f406 	lsl.w	r4, r3, r6
 8000e66:	432c      	orrs	r4, r5
 8000e68:	6104      	str	r4, [r0, #16]
 8000e6a:	e7e4      	b.n	8000e36 <ADC_RegularChannelConfig+0x20>
 8000e6c:	2a0c      	cmp	r2, #12
 8000e6e:	d80c      	bhi.n	8000e8a <ADC_RegularChannelConfig+0x74>
 8000e70:	3a07      	subs	r2, #7
 8000e72:	6b03      	ldr	r3, [r0, #48]	; 0x30
 8000e74:	eb02 0282 	add.w	r2, r2, r2, lsl #2
 8000e78:	241f      	movs	r4, #31
 8000e7a:	4094      	lsls	r4, r2
 8000e7c:	ea23 0304 	bic.w	r3, r3, r4
 8000e80:	fa01 f202 	lsl.w	r2, r1, r2
 8000e84:	431a      	orrs	r2, r3
 8000e86:	6302      	str	r2, [r0, #48]	; 0x30
 8000e88:	e7e3      	b.n	8000e52 <ADC_RegularChannelConfig+0x3c>
 8000e8a:	3a0d      	subs	r2, #13
 8000e8c:	6ac3      	ldr	r3, [r0, #44]	; 0x2c
 8000e8e:	eb02 0282 	add.w	r2, r2, r2, lsl #2
 8000e92:	241f      	movs	r4, #31
 8000e94:	4094      	lsls	r4, r2
 8000e96:	ea23 0304 	bic.w	r3, r3, r4
 8000e9a:	4091      	lsls	r1, r2
 8000e9c:	4319      	orrs	r1, r3
 8000e9e:	62c1      	str	r1, [r0, #44]	; 0x2c
 8000ea0:	e7d7      	b.n	8000e52 <ADC_RegularChannelConfig+0x3c>

08000ea2 <ADC_ITConfig>:
 8000ea2:	2301      	movs	r3, #1
 8000ea4:	b2c9      	uxtb	r1, r1
 8000ea6:	fa03 f101 	lsl.w	r1, r3, r1
 8000eaa:	6843      	ldr	r3, [r0, #4]
 8000eac:	b112      	cbz	r2, 8000eb4 <ADC_ITConfig+0x12>
 8000eae:	4319      	orrs	r1, r3
 8000eb0:	6041      	str	r1, [r0, #4]
 8000eb2:	4770      	bx	lr
 8000eb4:	ea23 0101 	bic.w	r1, r3, r1
 8000eb8:	e7fa      	b.n	8000eb0 <ADC_ITConfig+0xe>

08000eba <ADC_GetFlagStatus>:
 8000eba:	6803      	ldr	r3, [r0, #0]
 8000ebc:	4219      	tst	r1, r3
 8000ebe:	bf14      	ite	ne
 8000ec0:	2001      	movne	r0, #1
 8000ec2:	2000      	moveq	r0, #0
 8000ec4:	4770      	bx	lr

08000ec6 <ADC_ClearFlag>:
 8000ec6:	43c9      	mvns	r1, r1
 8000ec8:	6001      	str	r1, [r0, #0]
 8000eca:	4770      	bx	lr

08000ecc <DAC_DeInit>:
 8000ecc:	b508      	push	{r3, lr}
 8000ece:	2101      	movs	r1, #1
 8000ed0:	f04f 5000 	mov.w	r0, #536870912	; 0x20000000
 8000ed4:	f000 f976 	bl	80011c4 <RCC_APB1PeriphResetCmd>
 8000ed8:	2100      	movs	r1, #0
 8000eda:	f04f 5000 	mov.w	r0, #536870912	; 0x20000000
 8000ede:	e8bd 4008 	ldmia.w	sp!, {r3, lr}
 8000ee2:	f000 b96f 	b.w	80011c4 <RCC_APB1PeriphResetCmd>
	...

08000ee8 <DAC_Init>:
 8000ee8:	b530      	push	{r4, r5, lr}
 8000eea:	4c09      	ldr	r4, [pc, #36]	; (8000f10 <DAC_Init+0x28>)
 8000eec:	f640 73fe 	movw	r3, #4094	; 0xffe
 8000ef0:	6822      	ldr	r2, [r4, #0]
 8000ef2:	4083      	lsls	r3, r0
 8000ef4:	ea22 0203 	bic.w	r2, r2, r3
 8000ef8:	e9d1 3500 	ldrd	r3, r5, [r1]
 8000efc:	432b      	orrs	r3, r5
 8000efe:	688d      	ldr	r5, [r1, #8]
 8000f00:	68c9      	ldr	r1, [r1, #12]
 8000f02:	432b      	orrs	r3, r5
 8000f04:	430b      	orrs	r3, r1
 8000f06:	fa03 f000 	lsl.w	r0, r3, r0
 8000f0a:	4310      	orrs	r0, r2
 8000f0c:	6020      	str	r0, [r4, #0]
 8000f0e:	bd30      	pop	{r4, r5, pc}
 8000f10:	40007400 	.word	0x40007400

08000f14 <DAC_StructInit>:
 8000f14:	2300      	movs	r3, #0
 8000f16:	e9c0 3300 	strd	r3, r3, [r0]
 8000f1a:	e9c0 3302 	strd	r3, r3, [r0, #8]
 8000f1e:	4770      	bx	lr

08000f20 <DAC_Cmd>:
 8000f20:	2301      	movs	r3, #1
 8000f22:	fa03 f000 	lsl.w	r0, r3, r0
 8000f26:	4b04      	ldr	r3, [pc, #16]	; (8000f38 <DAC_Cmd+0x18>)
 8000f28:	681a      	ldr	r2, [r3, #0]
 8000f2a:	b111      	cbz	r1, 8000f32 <DAC_Cmd+0x12>
 8000f2c:	4310      	orrs	r0, r2
 8000f2e:	6018      	str	r0, [r3, #0]
 8000f30:	4770      	bx	lr
 8000f32:	ea22 0000 	bic.w	r0, r2, r0
 8000f36:	e7fa      	b.n	8000f2e <DAC_Cmd+0xe>
 8000f38:	40007400 	.word	0x40007400

08000f3c <DAC_SetChannel1Data>:
 8000f3c:	b082      	sub	sp, #8
 8000f3e:	2300      	movs	r3, #0
 8000f40:	9301      	str	r3, [sp, #4]
 8000f42:	4b05      	ldr	r3, [pc, #20]	; (8000f58 <DAC_SetChannel1Data+0x1c>)
 8000f44:	9301      	str	r3, [sp, #4]
 8000f46:	9b01      	ldr	r3, [sp, #4]
 8000f48:	3308      	adds	r3, #8
 8000f4a:	4418      	add	r0, r3
 8000f4c:	9001      	str	r0, [sp, #4]
 8000f4e:	9b01      	ldr	r3, [sp, #4]
 8000f50:	6019      	str	r1, [r3, #0]
 8000f52:	b002      	add	sp, #8
 8000f54:	4770      	bx	lr
 8000f56:	bf00      	nop
 8000f58:	40007400 	.word	0x40007400

08000f5c <DAC_SetChannel2Data>:
 8000f5c:	b082      	sub	sp, #8
 8000f5e:	2300      	movs	r3, #0
 8000f60:	9301      	str	r3, [sp, #4]
 8000f62:	4b05      	ldr	r3, [pc, #20]	; (8000f78 <DAC_SetChannel2Data+0x1c>)
 8000f64:	9301      	str	r3, [sp, #4]
 8000f66:	9b01      	ldr	r3, [sp, #4]
 8000f68:	3314      	adds	r3, #20
 8000f6a:	4418      	add	r0, r3
 8000f6c:	9001      	str	r0, [sp, #4]
 8000f6e:	9b01      	ldr	r3, [sp, #4]
 8000f70:	6019      	str	r1, [r3, #0]
 8000f72:	b002      	add	sp, #8
 8000f74:	4770      	bx	lr
 8000f76:	bf00      	nop
 8000f78:	40007400 	.word	0x40007400

08000f7c <EXTI_DeInit>:
 8000f7c:	4b04      	ldr	r3, [pc, #16]	; (8000f90 <EXTI_DeInit+0x14>)
 8000f7e:	2200      	movs	r2, #0
 8000f80:	601a      	str	r2, [r3, #0]
 8000f82:	605a      	str	r2, [r3, #4]
 8000f84:	609a      	str	r2, [r3, #8]
 8000f86:	60da      	str	r2, [r3, #12]
 8000f88:	4a02      	ldr	r2, [pc, #8]	; (8000f94 <EXTI_DeInit+0x18>)
 8000f8a:	615a      	str	r2, [r3, #20]
 8000f8c:	4770      	bx	lr
 8000f8e:	bf00      	nop
 8000f90:	40013c00 	.word	0x40013c00
 8000f94:	007fffff 	.word	0x007fffff

08000f98 <EXTI_Init>:
 8000f98:	7902      	ldrb	r2, [r0, #4]
 8000f9a:	7983      	ldrb	r3, [r0, #6]
 8000f9c:	b530      	push	{r4, r5, lr}
 8000f9e:	6805      	ldr	r5, [r0, #0]
 8000fa0:	f102 4280 	add.w	r2, r2, #1073741824	; 0x40000000
 8000fa4:	f502 329e 	add.w	r2, r2, #80896	; 0x13c00
 8000fa8:	43e9      	mvns	r1, r5
 8000faa:	b31b      	cbz	r3, 8000ff4 <EXTI_Init+0x5c>
 8000fac:	4b13      	ldr	r3, [pc, #76]	; (8000ffc <EXTI_Init+0x64>)
 8000fae:	681c      	ldr	r4, [r3, #0]
 8000fb0:	400c      	ands	r4, r1
 8000fb2:	601c      	str	r4, [r3, #0]
 8000fb4:	685c      	ldr	r4, [r3, #4]
 8000fb6:	4021      	ands	r1, r4
 8000fb8:	6059      	str	r1, [r3, #4]
 8000fba:	6811      	ldr	r1, [r2, #0]
 8000fbc:	4329      	orrs	r1, r5
 8000fbe:	6011      	str	r1, [r2, #0]
 8000fc0:	6802      	ldr	r2, [r0, #0]
 8000fc2:	689c      	ldr	r4, [r3, #8]
 8000fc4:	43d1      	mvns	r1, r2
 8000fc6:	400c      	ands	r4, r1
 8000fc8:	609c      	str	r4, [r3, #8]
 8000fca:	68dc      	ldr	r4, [r3, #12]
 8000fcc:	4021      	ands	r1, r4
 8000fce:	60d9      	str	r1, [r3, #12]
 8000fd0:	7941      	ldrb	r1, [r0, #5]
 8000fd2:	2910      	cmp	r1, #16
 8000fd4:	d106      	bne.n	8000fe4 <EXTI_Init+0x4c>
 8000fd6:	6899      	ldr	r1, [r3, #8]
 8000fd8:	4311      	orrs	r1, r2
 8000fda:	6099      	str	r1, [r3, #8]
 8000fdc:	68d9      	ldr	r1, [r3, #12]
 8000fde:	430a      	orrs	r2, r1
 8000fe0:	60da      	str	r2, [r3, #12]
 8000fe2:	bd30      	pop	{r4, r5, pc}
 8000fe4:	f101 4380 	add.w	r3, r1, #1073741824	; 0x40000000
 8000fe8:	f503 339e 	add.w	r3, r3, #80896	; 0x13c00
 8000fec:	6819      	ldr	r1, [r3, #0]
 8000fee:	430a      	orrs	r2, r1
 8000ff0:	601a      	str	r2, [r3, #0]
 8000ff2:	e7f6      	b.n	8000fe2 <EXTI_Init+0x4a>
 8000ff4:	6813      	ldr	r3, [r2, #0]
 8000ff6:	400b      	ands	r3, r1
 8000ff8:	6013      	str	r3, [r2, #0]
 8000ffa:	e7f2      	b.n	8000fe2 <EXTI_Init+0x4a>
 8000ffc:	40013c00 	.word	0x40013c00

08001000 <EXTI_ClearITPendingBit>:
 8001000:	4b01      	ldr	r3, [pc, #4]	; (8001008 <EXTI_ClearITPendingBit+0x8>)
 8001002:	6158      	str	r0, [r3, #20]
 8001004:	4770      	bx	lr
 8001006:	bf00      	nop
 8001008:	40013c00 	.word	0x40013c00

0800100c <GPIO_Init>:
 800100c:	e92d 43f0 	stmdb	sp!, {r4, r5, r6, r7, r8, r9, lr}
 8001010:	680d      	ldr	r5, [r1, #0]
 8001012:	2200      	movs	r2, #0
 8001014:	2601      	movs	r6, #1
 8001016:	2403      	movs	r4, #3
 8001018:	fa06 fe02 	lsl.w	lr, r6, r2
 800101c:	ea3e 0305 	bics.w	r3, lr, r5
 8001020:	d13d      	bne.n	800109e <GPIO_Init+0x92>
 8001022:	0057      	lsls	r7, r2, #1
 8001024:	f8d0 c000 	ldr.w	ip, [r0]
 8001028:	fa04 f307 	lsl.w	r3, r4, r7
 800102c:	43db      	mvns	r3, r3
 800102e:	ea0c 0c03 	and.w	ip, ip, r3
 8001032:	f8c0 c000 	str.w	ip, [r0]
 8001036:	f891 c004 	ldrb.w	ip, [r1, #4]
 800103a:	f8d0 9000 	ldr.w	r9, [r0]
 800103e:	fa0c f807 	lsl.w	r8, ip, r7
 8001042:	f10c 3cff 	add.w	ip, ip, #4294967295	; 0xffffffff
 8001046:	ea48 0809 	orr.w	r8, r8, r9
 800104a:	f1bc 0f01 	cmp.w	ip, #1
 800104e:	f8c0 8000 	str.w	r8, [r0]
 8001052:	d817      	bhi.n	8001084 <GPIO_Init+0x78>
 8001054:	f8d0 c008 	ldr.w	ip, [r0, #8]
 8001058:	ea03 030c 	and.w	r3, r3, ip
 800105c:	6083      	str	r3, [r0, #8]
 800105e:	794b      	ldrb	r3, [r1, #5]
 8001060:	f8d0 c008 	ldr.w	ip, [r0, #8]
 8001064:	40bb      	lsls	r3, r7
 8001066:	ea43 030c 	orr.w	r3, r3, ip
 800106a:	6083      	str	r3, [r0, #8]
 800106c:	6843      	ldr	r3, [r0, #4]
 800106e:	ea23 030e 	bic.w	r3, r3, lr
 8001072:	6043      	str	r3, [r0, #4]
 8001074:	798b      	ldrb	r3, [r1, #6]
 8001076:	f8d0 c004 	ldr.w	ip, [r0, #4]
 800107a:	4093      	lsls	r3, r2
 800107c:	b29b      	uxth	r3, r3
 800107e:	ea43 030c 	orr.w	r3, r3, ip
 8001082:	6043      	str	r3, [r0, #4]
 8001084:	68c3      	ldr	r3, [r0, #12]
 8001086:	fa04 fc07 	lsl.w	ip, r4, r7
 800108a:	ea23 030c 	bic.w	r3, r3, ip
 800108e:	60c3      	str	r3, [r0, #12]
 8001090:	79cb      	ldrb	r3, [r1, #7]
 8001092:	f8d0 c00c 	ldr.w	ip, [r0, #12]
 8001096:	40bb      	lsls	r3, r7
 8001098:	ea43 030c 	orr.w	r3, r3, ip
 800109c:	60c3      	str	r3, [r0, #12]
 800109e:	3201      	adds	r2, #1
 80010a0:	2a10      	cmp	r2, #16
 80010a2:	d1b9      	bne.n	8001018 <GPIO_Init+0xc>
 80010a4:	e8bd 83f0 	ldmia.w	sp!, {r4, r5, r6, r7, r8, r9, pc}

080010a8 <GPIO_StructInit>:
 80010a8:	f64f 73ff 	movw	r3, #65535	; 0xffff
 80010ac:	6003      	str	r3, [r0, #0]
 80010ae:	2300      	movs	r3, #0
 80010b0:	7103      	strb	r3, [r0, #4]
 80010b2:	7143      	strb	r3, [r0, #5]
 80010b4:	7183      	strb	r3, [r0, #6]
 80010b6:	71c3      	strb	r3, [r0, #7]
 80010b8:	4770      	bx	lr

080010ba <GPIO_ReadInputDataBit>:
 80010ba:	6903      	ldr	r3, [r0, #16]
 80010bc:	4219      	tst	r1, r3
 80010be:	bf14      	ite	ne
 80010c0:	2001      	movne	r0, #1
 80010c2:	2000      	moveq	r0, #0
 80010c4:	4770      	bx	lr

080010c6 <GPIO_SetBits>:
 80010c6:	8301      	strh	r1, [r0, #24]
 80010c8:	4770      	bx	lr

080010ca <GPIO_ResetBits>:
 80010ca:	8341      	strh	r1, [r0, #26]
 80010cc:	4770      	bx	lr

080010ce <GPIO_PinAFConfig>:
 80010ce:	f001 0307 	and.w	r3, r1, #7
 80010d2:	08c9      	lsrs	r1, r1, #3
 80010d4:	eb00 0081 	add.w	r0, r0, r1, lsl #2
 80010d8:	b510      	push	{r4, lr}
 80010da:	6a01      	ldr	r1, [r0, #32]
 80010dc:	009b      	lsls	r3, r3, #2
 80010de:	240f      	movs	r4, #15
 80010e0:	409c      	lsls	r4, r3
 80010e2:	ea21 0104 	bic.w	r1, r1, r4
 80010e6:	6201      	str	r1, [r0, #32]
 80010e8:	6a01      	ldr	r1, [r0, #32]
 80010ea:	409a      	lsls	r2, r3
 80010ec:	430a      	orrs	r2, r1
 80010ee:	6202      	str	r2, [r0, #32]
 80010f0:	bd10      	pop	{r4, pc}
	...

080010f4 <RCC_GetClocksFreq>:
 80010f4:	4a1d      	ldr	r2, [pc, #116]	; (800116c <RCC_GetClocksFreq+0x78>)
 80010f6:	6893      	ldr	r3, [r2, #8]
 80010f8:	f003 030c 	and.w	r3, r3, #12
 80010fc:	2b04      	cmp	r3, #4
 80010fe:	b510      	push	{r4, lr}
 8001100:	d01a      	beq.n	8001138 <RCC_GetClocksFreq+0x44>
 8001102:	2b08      	cmp	r3, #8
 8001104:	d01a      	beq.n	800113c <RCC_GetClocksFreq+0x48>
 8001106:	4b1a      	ldr	r3, [pc, #104]	; (8001170 <RCC_GetClocksFreq+0x7c>)
 8001108:	4a18      	ldr	r2, [pc, #96]	; (800116c <RCC_GetClocksFreq+0x78>)
 800110a:	6003      	str	r3, [r0, #0]
 800110c:	6893      	ldr	r3, [r2, #8]
 800110e:	4919      	ldr	r1, [pc, #100]	; (8001174 <RCC_GetClocksFreq+0x80>)
 8001110:	f3c3 1303 	ubfx	r3, r3, #4, #4
 8001114:	5ccc      	ldrb	r4, [r1, r3]
 8001116:	6803      	ldr	r3, [r0, #0]
 8001118:	40e3      	lsrs	r3, r4
 800111a:	6043      	str	r3, [r0, #4]
 800111c:	6894      	ldr	r4, [r2, #8]
 800111e:	f3c4 2482 	ubfx	r4, r4, #10, #3
 8001122:	5d0c      	ldrb	r4, [r1, r4]
 8001124:	fa23 f404 	lsr.w	r4, r3, r4
 8001128:	6084      	str	r4, [r0, #8]
 800112a:	6892      	ldr	r2, [r2, #8]
 800112c:	f3c2 3242 	ubfx	r2, r2, #13, #3
 8001130:	5c8a      	ldrb	r2, [r1, r2]
 8001132:	40d3      	lsrs	r3, r2
 8001134:	60c3      	str	r3, [r0, #12]
 8001136:	bd10      	pop	{r4, pc}
 8001138:	4b0f      	ldr	r3, [pc, #60]	; (8001178 <RCC_GetClocksFreq+0x84>)
 800113a:	e7e5      	b.n	8001108 <RCC_GetClocksFreq+0x14>
 800113c:	6854      	ldr	r4, [r2, #4]
 800113e:	6851      	ldr	r1, [r2, #4]
 8001140:	6852      	ldr	r2, [r2, #4]
 8001142:	0263      	lsls	r3, r4, #9
 8001144:	f3c2 1288 	ubfx	r2, r2, #6, #9
 8001148:	f001 013f 	and.w	r1, r1, #63	; 0x3f
 800114c:	bf4c      	ite	mi
 800114e:	4b0a      	ldrmi	r3, [pc, #40]	; (8001178 <RCC_GetClocksFreq+0x84>)
 8001150:	4b07      	ldrpl	r3, [pc, #28]	; (8001170 <RCC_GetClocksFreq+0x7c>)
 8001152:	fbb3 f3f1 	udiv	r3, r3, r1
 8001156:	4353      	muls	r3, r2
 8001158:	4a04      	ldr	r2, [pc, #16]	; (800116c <RCC_GetClocksFreq+0x78>)
 800115a:	6852      	ldr	r2, [r2, #4]
 800115c:	f3c2 4201 	ubfx	r2, r2, #16, #2
 8001160:	3201      	adds	r2, #1
 8001162:	0052      	lsls	r2, r2, #1
 8001164:	fbb3 f3f2 	udiv	r3, r3, r2
 8001168:	e7ce      	b.n	8001108 <RCC_GetClocksFreq+0x14>
 800116a:	bf00      	nop
 800116c:	40023800 	.word	0x40023800
 8001170:	00f42400 	.word	0x00f42400
 8001174:	20000000 	.word	0x20000000
 8001178:	017d7840 	.word	0x017d7840

0800117c <RCC_AHB1PeriphClockCmd>:
 800117c:	4b04      	ldr	r3, [pc, #16]	; (8001190 <RCC_AHB1PeriphClockCmd+0x14>)
 800117e:	6b1a      	ldr	r2, [r3, #48]	; 0x30
 8001180:	b111      	cbz	r1, 8001188 <RCC_AHB1PeriphClockCmd+0xc>
 8001182:	4310      	orrs	r0, r2
 8001184:	6318      	str	r0, [r3, #48]	; 0x30
 8001186:	4770      	bx	lr
 8001188:	ea22 0000 	bic.w	r0, r2, r0
 800118c:	e7fa      	b.n	8001184 <RCC_AHB1PeriphClockCmd+0x8>
 800118e:	bf00      	nop
 8001190:	40023800 	.word	0x40023800

08001194 <RCC_APB1PeriphClockCmd>:
 8001194:	4b04      	ldr	r3, [pc, #16]	; (80011a8 <RCC_APB1PeriphClockCmd+0x14>)
 8001196:	6c1a      	ldr	r2, [r3, #64]	; 0x40
 8001198:	b111      	cbz	r1, 80011a0 <RCC_APB1PeriphClockCmd+0xc>
 800119a:	4310      	orrs	r0, r2
 800119c:	6418      	str	r0, [r3, #64]	; 0x40
 800119e:	4770      	bx	lr
 80011a0:	ea22 0000 	bic.w	r0, r2, r0
 80011a4:	e7fa      	b.n	800119c <RCC_APB1PeriphClockCmd+0x8>
 80011a6:	bf00      	nop
 80011a8:	40023800 	.word	0x40023800

080011ac <RCC_APB2PeriphClockCmd>:
 80011ac:	4b04      	ldr	r3, [pc, #16]	; (80011c0 <RCC_APB2PeriphClockCmd+0x14>)
 80011ae:	6c5a      	ldr	r2, [r3, #68]	; 0x44
 80011b0:	b111      	cbz	r1, 80011b8 <RCC_APB2PeriphClockCmd+0xc>
 80011b2:	4310      	orrs	r0, r2
 80011b4:	6458      	str	r0, [r3, #68]	; 0x44
 80011b6:	4770      	bx	lr
 80011b8:	ea22 0000 	bic.w	r0, r2, r0
 80011bc:	e7fa      	b.n	80011b4 <RCC_APB2PeriphClockCmd+0x8>
 80011be:	bf00      	nop
 80011c0:	40023800 	.word	0x40023800

080011c4 <RCC_APB1PeriphResetCmd>:
 80011c4:	4b04      	ldr	r3, [pc, #16]	; (80011d8 <RCC_APB1PeriphResetCmd+0x14>)
 80011c6:	6a1a      	ldr	r2, [r3, #32]
 80011c8:	b111      	cbz	r1, 80011d0 <RCC_APB1PeriphResetCmd+0xc>
 80011ca:	4310      	orrs	r0, r2
 80011cc:	6218      	str	r0, [r3, #32]
 80011ce:	4770      	bx	lr
 80011d0:	ea22 0000 	bic.w	r0, r2, r0
 80011d4:	e7fa      	b.n	80011cc <RCC_APB1PeriphResetCmd+0x8>
 80011d6:	bf00      	nop
 80011d8:	40023800 	.word	0x40023800

080011dc <RCC_APB2PeriphResetCmd>:
 80011dc:	4b04      	ldr	r3, [pc, #16]	; (80011f0 <RCC_APB2PeriphResetCmd+0x14>)
 80011de:	6a5a      	ldr	r2, [r3, #36]	; 0x24
 80011e0:	b111      	cbz	r1, 80011e8 <RCC_APB2PeriphResetCmd+0xc>
 80011e2:	4310      	orrs	r0, r2
 80011e4:	6258      	str	r0, [r3, #36]	; 0x24
 80011e6:	4770      	bx	lr
 80011e8:	ea22 0000 	bic.w	r0, r2, r0
 80011ec:	e7fa      	b.n	80011e4 <RCC_APB2PeriphResetCmd+0x8>
 80011ee:	bf00      	nop
 80011f0:	40023800 	.word	0x40023800

080011f4 <SPI_I2S_DeInit>:
 80011f4:	b508      	push	{r3, lr}
 80011f6:	4b27      	ldr	r3, [pc, #156]	; (8001294 <SPI_I2S_DeInit+0xa0>)
 80011f8:	4298      	cmp	r0, r3
 80011fa:	d10b      	bne.n	8001214 <SPI_I2S_DeInit+0x20>
 80011fc:	2101      	movs	r1, #1
 80011fe:	f44f 5080 	mov.w	r0, #4096	; 0x1000
 8001202:	f7ff ffeb 	bl	80011dc <RCC_APB2PeriphResetCmd>
 8001206:	2100      	movs	r1, #0
 8001208:	f44f 5080 	mov.w	r0, #4096	; 0x1000
 800120c:	e8bd 4008 	ldmia.w	sp!, {r3, lr}
 8001210:	f7ff bfe4 	b.w	80011dc <RCC_APB2PeriphResetCmd>
 8001214:	4b20      	ldr	r3, [pc, #128]	; (8001298 <SPI_I2S_DeInit+0xa4>)
 8001216:	4298      	cmp	r0, r3
 8001218:	d10b      	bne.n	8001232 <SPI_I2S_DeInit+0x3e>
 800121a:	2101      	movs	r1, #1
 800121c:	f44f 4080 	mov.w	r0, #16384	; 0x4000
 8001220:	f7ff ffd0 	bl	80011c4 <RCC_APB1PeriphResetCmd>
 8001224:	2100      	movs	r1, #0
 8001226:	f44f 4080 	mov.w	r0, #16384	; 0x4000
 800122a:	e8bd 4008 	ldmia.w	sp!, {r3, lr}
 800122e:	f7ff bfc9 	b.w	80011c4 <RCC_APB1PeriphResetCmd>
 8001232:	4b1a      	ldr	r3, [pc, #104]	; (800129c <SPI_I2S_DeInit+0xa8>)
 8001234:	4298      	cmp	r0, r3
 8001236:	d108      	bne.n	800124a <SPI_I2S_DeInit+0x56>
 8001238:	2101      	movs	r1, #1
 800123a:	f44f 4000 	mov.w	r0, #32768	; 0x8000
 800123e:	f7ff ffc1 	bl	80011c4 <RCC_APB1PeriphResetCmd>
 8001242:	2100      	movs	r1, #0
 8001244:	f44f 4000 	mov.w	r0, #32768	; 0x8000
 8001248:	e7ef      	b.n	800122a <SPI_I2S_DeInit+0x36>
 800124a:	4b15      	ldr	r3, [pc, #84]	; (80012a0 <SPI_I2S_DeInit+0xac>)
 800124c:	4298      	cmp	r0, r3
 800124e:	d108      	bne.n	8001262 <SPI_I2S_DeInit+0x6e>
 8001250:	2101      	movs	r1, #1
 8001252:	f44f 5000 	mov.w	r0, #8192	; 0x2000
 8001256:	f7ff ffc1 	bl	80011dc <RCC_APB2PeriphResetCmd>
 800125a:	2100      	movs	r1, #0
 800125c:	f44f 5000 	mov.w	r0, #8192	; 0x2000
 8001260:	e7d4      	b.n	800120c <SPI_I2S_DeInit+0x18>
 8001262:	4b10      	ldr	r3, [pc, #64]	; (80012a4 <SPI_I2S_DeInit+0xb0>)
 8001264:	4298      	cmp	r0, r3
 8001266:	d108      	bne.n	800127a <SPI_I2S_DeInit+0x86>
 8001268:	2101      	movs	r1, #1
 800126a:	f44f 1080 	mov.w	r0, #1048576	; 0x100000
 800126e:	f7ff ffb5 	bl	80011dc <RCC_APB2PeriphResetCmd>
 8001272:	2100      	movs	r1, #0
 8001274:	f44f 1080 	mov.w	r0, #1048576	; 0x100000
 8001278:	e7c8      	b.n	800120c <SPI_I2S_DeInit+0x18>
 800127a:	4b0b      	ldr	r3, [pc, #44]	; (80012a8 <SPI_I2S_DeInit+0xb4>)
 800127c:	4298      	cmp	r0, r3
 800127e:	d108      	bne.n	8001292 <SPI_I2S_DeInit+0x9e>
 8001280:	2101      	movs	r1, #1
 8001282:	f44f 1000 	mov.w	r0, #2097152	; 0x200000
 8001286:	f7ff ffa9 	bl	80011dc <RCC_APB2PeriphResetCmd>
 800128a:	2100      	movs	r1, #0
 800128c:	f44f 1000 	mov.w	r0, #2097152	; 0x200000
 8001290:	e7bc      	b.n	800120c <SPI_I2S_DeInit+0x18>
 8001292:	bd08      	pop	{r3, pc}
 8001294:	40013000 	.word	0x40013000
 8001298:	40003800 	.word	0x40003800
 800129c:	40003c00 	.word	0x40003c00
 80012a0:	40013400 	.word	0x40013400
 80012a4:	40015000 	.word	0x40015000
 80012a8:	40015400 	.word	0x40015400

080012ac <SPI_Init>:
 80012ac:	8803      	ldrh	r3, [r0, #0]
 80012ae:	b510      	push	{r4, lr}
 80012b0:	f403 5241 	and.w	r2, r3, #12352	; 0x3040
 80012b4:	884c      	ldrh	r4, [r1, #2]
 80012b6:	880b      	ldrh	r3, [r1, #0]
 80012b8:	4323      	orrs	r3, r4
 80012ba:	888c      	ldrh	r4, [r1, #4]
 80012bc:	4323      	orrs	r3, r4
 80012be:	88cc      	ldrh	r4, [r1, #6]
 80012c0:	4323      	orrs	r3, r4
 80012c2:	890c      	ldrh	r4, [r1, #8]
 80012c4:	4323      	orrs	r3, r4
 80012c6:	894c      	ldrh	r4, [r1, #10]
 80012c8:	4323      	orrs	r3, r4
 80012ca:	898c      	ldrh	r4, [r1, #12]
 80012cc:	4323      	orrs	r3, r4
 80012ce:	89cc      	ldrh	r4, [r1, #14]
 80012d0:	4323      	orrs	r3, r4
 80012d2:	4313      	orrs	r3, r2
 80012d4:	8003      	strh	r3, [r0, #0]
 80012d6:	8b83      	ldrh	r3, [r0, #28]
 80012d8:	f423 6300 	bic.w	r3, r3, #2048	; 0x800
 80012dc:	041b      	lsls	r3, r3, #16
 80012de:	0c1b      	lsrs	r3, r3, #16
 80012e0:	8383      	strh	r3, [r0, #28]
 80012e2:	8a0b      	ldrh	r3, [r1, #16]
 80012e4:	8203      	strh	r3, [r0, #16]
 80012e6:	bd10      	pop	{r4, pc}

080012e8 <SPI_StructInit>:
 80012e8:	2300      	movs	r3, #0
 80012ea:	8003      	strh	r3, [r0, #0]
 80012ec:	8043      	strh	r3, [r0, #2]
 80012ee:	8083      	strh	r3, [r0, #4]
 80012f0:	80c3      	strh	r3, [r0, #6]
 80012f2:	8103      	strh	r3, [r0, #8]
 80012f4:	8143      	strh	r3, [r0, #10]
 80012f6:	8183      	strh	r3, [r0, #12]
 80012f8:	81c3      	strh	r3, [r0, #14]
 80012fa:	2307      	movs	r3, #7
 80012fc:	8203      	strh	r3, [r0, #16]
 80012fe:	4770      	bx	lr

08001300 <SPI_Cmd>:
 8001300:	8803      	ldrh	r3, [r0, #0]
 8001302:	b119      	cbz	r1, 800130c <SPI_Cmd+0xc>
 8001304:	f043 0340 	orr.w	r3, r3, #64	; 0x40
 8001308:	8003      	strh	r3, [r0, #0]
 800130a:	4770      	bx	lr
 800130c:	f023 0340 	bic.w	r3, r3, #64	; 0x40
 8001310:	041b      	lsls	r3, r3, #16
 8001312:	0c1b      	lsrs	r3, r3, #16
 8001314:	e7f8      	b.n	8001308 <SPI_Cmd+0x8>

08001316 <SPI_NSSInternalSoftwareConfig>:
 8001316:	f64f 63ff 	movw	r3, #65279	; 0xfeff
 800131a:	4299      	cmp	r1, r3
 800131c:	8803      	ldrh	r3, [r0, #0]
 800131e:	bf05      	ittet	eq
 8001320:	f423 7380 	biceq.w	r3, r3, #256	; 0x100
 8001324:	041b      	lsleq	r3, r3, #16
 8001326:	f443 7380 	orrne.w	r3, r3, #256	; 0x100
 800132a:	0c1b      	lsreq	r3, r3, #16
 800132c:	8003      	strh	r3, [r0, #0]
 800132e:	4770      	bx	lr

08001330 <SPI_I2S_ReceiveData>:
 8001330:	8980      	ldrh	r0, [r0, #12]
 8001332:	4770      	bx	lr

08001334 <SPI_I2S_SendData>:
 8001334:	8181      	strh	r1, [r0, #12]
 8001336:	4770      	bx	lr

08001338 <SPI_I2S_GetFlagStatus>:
 8001338:	8903      	ldrh	r3, [r0, #8]
 800133a:	4219      	tst	r1, r3
 800133c:	bf14      	ite	ne
 800133e:	2001      	movne	r0, #1
 8001340:	2000      	moveq	r0, #0
 8001342:	4770      	bx	lr

08001344 <SYSCFG_EXTILineConfig>:
 8001344:	f001 0303 	and.w	r3, r1, #3
 8001348:	f001 01fc 	and.w	r1, r1, #252	; 0xfc
 800134c:	f101 4180 	add.w	r1, r1, #1073741824	; 0x40000000
 8001350:	f501 319c 	add.w	r1, r1, #79872	; 0x13800
 8001354:	b510      	push	{r4, lr}
 8001356:	688a      	ldr	r2, [r1, #8]
 8001358:	009b      	lsls	r3, r3, #2
 800135a:	240f      	movs	r4, #15
 800135c:	409c      	lsls	r4, r3
 800135e:	ea22 0204 	bic.w	r2, r2, r4
 8001362:	608a      	str	r2, [r1, #8]
 8001364:	688a      	ldr	r2, [r1, #8]
 8001366:	4098      	lsls	r0, r3
 8001368:	4310      	orrs	r0, r2
 800136a:	6088      	str	r0, [r1, #8]
 800136c:	bd10      	pop	{r4, pc}
	...

08001370 <TIM_TimeBaseInit>:
 8001370:	4a1c      	ldr	r2, [pc, #112]	; (80013e4 <TIM_TimeBaseInit+0x74>)
 8001372:	8803      	ldrh	r3, [r0, #0]
 8001374:	4290      	cmp	r0, r2
 8001376:	b29b      	uxth	r3, r3
 8001378:	d012      	beq.n	80013a0 <TIM_TimeBaseInit+0x30>
 800137a:	f502 6280 	add.w	r2, r2, #1024	; 0x400
 800137e:	4290      	cmp	r0, r2
 8001380:	d00e      	beq.n	80013a0 <TIM_TimeBaseInit+0x30>
 8001382:	f1b0 4f80 	cmp.w	r0, #1073741824	; 0x40000000
 8001386:	d00b      	beq.n	80013a0 <TIM_TimeBaseInit+0x30>
 8001388:	f5a2 3280 	sub.w	r2, r2, #65536	; 0x10000
 800138c:	4290      	cmp	r0, r2
 800138e:	d007      	beq.n	80013a0 <TIM_TimeBaseInit+0x30>
 8001390:	f502 6280 	add.w	r2, r2, #1024	; 0x400
 8001394:	4290      	cmp	r0, r2
 8001396:	d003      	beq.n	80013a0 <TIM_TimeBaseInit+0x30>
 8001398:	f502 6280 	add.w	r2, r2, #1024	; 0x400
 800139c:	4290      	cmp	r0, r2
 800139e:	d103      	bne.n	80013a8 <TIM_TimeBaseInit+0x38>
 80013a0:	884a      	ldrh	r2, [r1, #2]
 80013a2:	f023 0370 	bic.w	r3, r3, #112	; 0x70
 80013a6:	4313      	orrs	r3, r2
 80013a8:	4a0f      	ldr	r2, [pc, #60]	; (80013e8 <TIM_TimeBaseInit+0x78>)
 80013aa:	4290      	cmp	r0, r2
 80013ac:	d008      	beq.n	80013c0 <TIM_TimeBaseInit+0x50>
 80013ae:	f502 6280 	add.w	r2, r2, #1024	; 0x400
 80013b2:	4290      	cmp	r0, r2
 80013b4:	bf1f      	itttt	ne
 80013b6:	f423 7340 	bicne.w	r3, r3, #768	; 0x300
 80013ba:	890a      	ldrhne	r2, [r1, #8]
 80013bc:	b29b      	uxthne	r3, r3
 80013be:	4313      	orrne	r3, r2
 80013c0:	8003      	strh	r3, [r0, #0]
 80013c2:	684b      	ldr	r3, [r1, #4]
 80013c4:	62c3      	str	r3, [r0, #44]	; 0x2c
 80013c6:	880b      	ldrh	r3, [r1, #0]
 80013c8:	8503      	strh	r3, [r0, #40]	; 0x28
 80013ca:	4b06      	ldr	r3, [pc, #24]	; (80013e4 <TIM_TimeBaseInit+0x74>)
 80013cc:	4298      	cmp	r0, r3
 80013ce:	d003      	beq.n	80013d8 <TIM_TimeBaseInit+0x68>
 80013d0:	f503 6380 	add.w	r3, r3, #1024	; 0x400
 80013d4:	4298      	cmp	r0, r3
 80013d6:	d101      	bne.n	80013dc <TIM_TimeBaseInit+0x6c>
 80013d8:	7a8b      	ldrb	r3, [r1, #10]
 80013da:	8603      	strh	r3, [r0, #48]	; 0x30
 80013dc:	2301      	movs	r3, #1
 80013de:	8283      	strh	r3, [r0, #20]
 80013e0:	4770      	bx	lr
 80013e2:	bf00      	nop
 80013e4:	40010000 	.word	0x40010000
 80013e8:	40001000 	.word	0x40001000

080013ec <TIM_TimeBaseStructInit>:
 80013ec:	2300      	movs	r3, #0
 80013ee:	f04f 32ff 	mov.w	r2, #4294967295	; 0xffffffff
 80013f2:	e9c0 3200 	strd	r3, r2, [r0]
 80013f6:	8103      	strh	r3, [r0, #8]
 80013f8:	7283      	strb	r3, [r0, #10]
 80013fa:	4770      	bx	lr

080013fc <TIM_SetCounter>:
 80013fc:	6241      	str	r1, [r0, #36]	; 0x24
 80013fe:	4770      	bx	lr

08001400 <TIM_ARRPreloadConfig>:
 8001400:	8803      	ldrh	r3, [r0, #0]
 8001402:	b119      	cbz	r1, 800140c <TIM_ARRPreloadConfig+0xc>
 8001404:	f043 0380 	orr.w	r3, r3, #128	; 0x80
 8001408:	8003      	strh	r3, [r0, #0]
 800140a:	4770      	bx	lr
 800140c:	f023 0380 	bic.w	r3, r3, #128	; 0x80
 8001410:	041b      	lsls	r3, r3, #16
 8001412:	0c1b      	lsrs	r3, r3, #16
 8001414:	e7f8      	b.n	8001408 <TIM_ARRPreloadConfig+0x8>

08001416 <TIM_Cmd>:
 8001416:	8803      	ldrh	r3, [r0, #0]
 8001418:	b119      	cbz	r1, 8001422 <TIM_Cmd+0xc>
 800141a:	f043 0301 	orr.w	r3, r3, #1
 800141e:	8003      	strh	r3, [r0, #0]
 8001420:	4770      	bx	lr
 8001422:	f023 0301 	bic.w	r3, r3, #1
 8001426:	041b      	lsls	r3, r3, #16
 8001428:	0c1b      	lsrs	r3, r3, #16
 800142a:	e7f8      	b.n	800141e <TIM_Cmd+0x8>

0800142c <TIM_SetCompare2>:
 800142c:	6381      	str	r1, [r0, #56]	; 0x38
 800142e:	4770      	bx	lr

08001430 <TIM_CCxCmd>:
 8001430:	8c03      	ldrh	r3, [r0, #32]
 8001432:	b510      	push	{r4, lr}
 8001434:	2401      	movs	r4, #1
 8001436:	408c      	lsls	r4, r1
 8001438:	ea23 0304 	bic.w	r3, r3, r4
 800143c:	8403      	strh	r3, [r0, #32]
 800143e:	8c03      	ldrh	r3, [r0, #32]
 8001440:	fa02 f101 	lsl.w	r1, r2, r1
 8001444:	4319      	orrs	r1, r3
 8001446:	b289      	uxth	r1, r1
 8001448:	8401      	strh	r1, [r0, #32]
 800144a:	bd10      	pop	{r4, pc}

0800144c <TIM_ITConfig>:
 800144c:	8983      	ldrh	r3, [r0, #12]
 800144e:	b112      	cbz	r2, 8001456 <TIM_ITConfig+0xa>
 8001450:	4319      	orrs	r1, r3
 8001452:	8181      	strh	r1, [r0, #12]
 8001454:	4770      	bx	lr
 8001456:	ea23 0101 	bic.w	r1, r3, r1
 800145a:	e7fa      	b.n	8001452 <TIM_ITConfig+0x6>

0800145c <TIM_GetITStatus>:
 800145c:	8a03      	ldrh	r3, [r0, #16]
 800145e:	8982      	ldrh	r2, [r0, #12]
 8001460:	ea11 0003 	ands.w	r0, r1, r3
 8001464:	b292      	uxth	r2, r2
 8001466:	d003      	beq.n	8001470 <TIM_GetITStatus+0x14>
 8001468:	420a      	tst	r2, r1
 800146a:	bf14      	ite	ne
 800146c:	2001      	movne	r0, #1
 800146e:	2000      	moveq	r0, #0
 8001470:	4770      	bx	lr

08001472 <TIM_ClearITPendingBit>:
 8001472:	43c9      	mvns	r1, r1
 8001474:	b289      	uxth	r1, r1
 8001476:	8201      	strh	r1, [r0, #16]
 8001478:	4770      	bx	lr

0800147a <TIM_SelectOutputTrigger>:
 800147a:	8883      	ldrh	r3, [r0, #4]
 800147c:	f023 0370 	bic.w	r3, r3, #112	; 0x70
 8001480:	041b      	lsls	r3, r3, #16
 8001482:	0c1b      	lsrs	r3, r3, #16
 8001484:	8083      	strh	r3, [r0, #4]
 8001486:	8883      	ldrh	r3, [r0, #4]
 8001488:	4319      	orrs	r1, r3
 800148a:	8081      	strh	r1, [r0, #4]
 800148c:	4770      	bx	lr
	...

08001490 <CAT25512_SendByte>:
 8001490:	b538      	push	{r3, r4, r5, lr}
 8001492:	4d0c      	ldr	r5, [pc, #48]	; (80014c4 <CAT25512_SendByte+0x34>)
 8001494:	4604      	mov	r4, r0
 8001496:	2102      	movs	r1, #2
 8001498:	4628      	mov	r0, r5
 800149a:	f7ff ff4d 	bl	8001338 <SPI_I2S_GetFlagStatus>
 800149e:	2800      	cmp	r0, #0
 80014a0:	d0f9      	beq.n	8001496 <CAT25512_SendByte+0x6>
 80014a2:	4621      	mov	r1, r4
 80014a4:	4807      	ldr	r0, [pc, #28]	; (80014c4 <CAT25512_SendByte+0x34>)
 80014a6:	4c07      	ldr	r4, [pc, #28]	; (80014c4 <CAT25512_SendByte+0x34>)
 80014a8:	f7ff ff44 	bl	8001334 <SPI_I2S_SendData>
 80014ac:	2101      	movs	r1, #1
 80014ae:	4620      	mov	r0, r4
 80014b0:	f7ff ff42 	bl	8001338 <SPI_I2S_GetFlagStatus>
 80014b4:	2800      	cmp	r0, #0
 80014b6:	d0f9      	beq.n	80014ac <CAT25512_SendByte+0x1c>
 80014b8:	4802      	ldr	r0, [pc, #8]	; (80014c4 <CAT25512_SendByte+0x34>)
 80014ba:	e8bd 4038 	ldmia.w	sp!, {r3, r4, r5, lr}
 80014be:	f7ff bf37 	b.w	8001330 <SPI_I2S_ReceiveData>
 80014c2:	bf00      	nop
 80014c4:	40003c00 	.word	0x40003c00

080014c8 <CAT25512_RecieveData>:
 80014c8:	b510      	push	{r4, lr}
 80014ca:	4c0b      	ldr	r4, [pc, #44]	; (80014f8 <CAT25512_RecieveData+0x30>)
 80014cc:	2102      	movs	r1, #2
 80014ce:	4620      	mov	r0, r4
 80014d0:	f7ff ff32 	bl	8001338 <SPI_I2S_GetFlagStatus>
 80014d4:	2800      	cmp	r0, #0
 80014d6:	d0f9      	beq.n	80014cc <CAT25512_RecieveData+0x4>
 80014d8:	2100      	movs	r1, #0
 80014da:	4807      	ldr	r0, [pc, #28]	; (80014f8 <CAT25512_RecieveData+0x30>)
 80014dc:	4c06      	ldr	r4, [pc, #24]	; (80014f8 <CAT25512_RecieveData+0x30>)
 80014de:	f7ff ff29 	bl	8001334 <SPI_I2S_SendData>
 80014e2:	2101      	movs	r1, #1
 80014e4:	4620      	mov	r0, r4
 80014e6:	f7ff ff27 	bl	8001338 <SPI_I2S_GetFlagStatus>
 80014ea:	2800      	cmp	r0, #0
 80014ec:	d0f9      	beq.n	80014e2 <CAT25512_RecieveData+0x1a>
 80014ee:	4802      	ldr	r0, [pc, #8]	; (80014f8 <CAT25512_RecieveData+0x30>)
 80014f0:	e8bd 4010 	ldmia.w	sp!, {r4, lr}
 80014f4:	f7ff bf1c 	b.w	8001330 <SPI_I2S_ReceiveData>
 80014f8:	40003c00 	.word	0x40003c00

080014fc <CAT25512_init>:
 80014fc:	b5f0      	push	{r4, r5, r6, r7, lr}
 80014fe:	2101      	movs	r1, #1
 8001500:	b089      	sub	sp, #36	; 0x24
 8001502:	2004      	movs	r0, #4
 8001504:	f7ff fe3a 	bl	800117c <RCC_AHB1PeriphClockCmd>
 8001508:	4d33      	ldr	r5, [pc, #204]	; (80015d8 <CAT25512_init+0xdc>)
 800150a:	a801      	add	r0, sp, #4
 800150c:	f7ff fdcc 	bl	80010a8 <GPIO_StructInit>
 8001510:	f44f 53e0 	mov.w	r3, #7168	; 0x1c00
 8001514:	2401      	movs	r4, #1
 8001516:	9301      	str	r3, [sp, #4]
 8001518:	2600      	movs	r6, #0
 800151a:	2302      	movs	r3, #2
 800151c:	a901      	add	r1, sp, #4
 800151e:	4628      	mov	r0, r5
 8001520:	f88d 3008 	strb.w	r3, [sp, #8]
 8001524:	f88d 3009 	strb.w	r3, [sp, #9]
 8001528:	f88d 600a 	strb.w	r6, [sp, #10]
 800152c:	f88d 400b 	strb.w	r4, [sp, #11]
 8001530:	f7ff fd6c 	bl	800100c <GPIO_Init>
 8001534:	4621      	mov	r1, r4
 8001536:	2008      	movs	r0, #8
 8001538:	f7ff fe20 	bl	800117c <RCC_AHB1PeriphClockCmd>
 800153c:	a801      	add	r0, sp, #4
 800153e:	f7ff fdb3 	bl	80010a8 <GPIO_StructInit>
 8001542:	f88d 600a 	strb.w	r6, [sp, #10]
 8001546:	4e25      	ldr	r6, [pc, #148]	; (80015dc <CAT25512_init+0xe0>)
 8001548:	f88d 4008 	strb.w	r4, [sp, #8]
 800154c:	2704      	movs	r7, #4
 800154e:	2303      	movs	r3, #3
 8001550:	eb0d 0107 	add.w	r1, sp, r7
 8001554:	4630      	mov	r0, r6
 8001556:	f88d 3009 	strb.w	r3, [sp, #9]
 800155a:	9701      	str	r7, [sp, #4]
 800155c:	f88d 400b 	strb.w	r4, [sp, #11]
 8001560:	f7ff fd54 	bl	800100c <GPIO_Init>
 8001564:	4628      	mov	r0, r5
 8001566:	2206      	movs	r2, #6
 8001568:	210a      	movs	r1, #10
 800156a:	f7ff fdb0 	bl	80010ce <GPIO_PinAFConfig>
 800156e:	4628      	mov	r0, r5
 8001570:	2206      	movs	r2, #6
 8001572:	210b      	movs	r1, #11
 8001574:	f7ff fdab 	bl	80010ce <GPIO_PinAFConfig>
 8001578:	2206      	movs	r2, #6
 800157a:	4628      	mov	r0, r5
 800157c:	210c      	movs	r1, #12
 800157e:	f7ff fda6 	bl	80010ce <GPIO_PinAFConfig>
 8001582:	4639      	mov	r1, r7
 8001584:	4630      	mov	r0, r6
 8001586:	f7ff fd9e 	bl	80010c6 <GPIO_SetBits>
 800158a:	f5a5 35e6 	sub.w	r5, r5, #117760	; 0x1cc00
 800158e:	4621      	mov	r1, r4
 8001590:	f44f 4000 	mov.w	r0, #32768	; 0x8000
 8001594:	f7ff fdfe 	bl	8001194 <RCC_APB1PeriphClockCmd>
 8001598:	4628      	mov	r0, r5
 800159a:	f7ff fe2b 	bl	80011f4 <SPI_I2S_DeInit>
 800159e:	a803      	add	r0, sp, #12
 80015a0:	f7ff fea2 	bl	80012e8 <SPI_StructInit>
 80015a4:	f04f 7282 	mov.w	r2, #17039360	; 0x1040000
 80015a8:	f44f 3300 	mov.w	r3, #131072	; 0x20000
 80015ac:	490c      	ldr	r1, [pc, #48]	; (80015e0 <CAT25512_init+0xe4>)
 80015ae:	e9cd 2303 	strd	r2, r3, [sp, #12]
 80015b2:	2310      	movs	r3, #16
 80015b4:	e9cd 1305 	strd	r1, r3, [sp, #20]
 80015b8:	4628      	mov	r0, r5
 80015ba:	a903      	add	r1, sp, #12
 80015bc:	f7ff fe76 	bl	80012ac <SPI_Init>
 80015c0:	4621      	mov	r1, r4
 80015c2:	4628      	mov	r0, r5
 80015c4:	f7ff fe9c 	bl	8001300 <SPI_Cmd>
 80015c8:	f44f 7180 	mov.w	r1, #256	; 0x100
 80015cc:	4628      	mov	r0, r5
 80015ce:	f7ff fea2 	bl	8001316 <SPI_NSSInternalSoftwareConfig>
 80015d2:	b009      	add	sp, #36	; 0x24
 80015d4:	bdf0      	pop	{r4, r5, r6, r7, pc}
 80015d6:	bf00      	nop
 80015d8:	40020800 	.word	0x40020800
 80015dc:	40020c00 	.word	0x40020c00
 80015e0:	02000001 	.word	0x02000001

080015e4 <CAT25512_ReadStatusRegister>:
 80015e4:	b538      	push	{r3, r4, r5, lr}
 80015e6:	4c0b      	ldr	r4, [pc, #44]	; (8001614 <CAT25512_ReadStatusRegister+0x30>)
 80015e8:	2104      	movs	r1, #4
 80015ea:	4620      	mov	r0, r4
 80015ec:	f7ff fd6d 	bl	80010ca <GPIO_ResetBits>
 80015f0:	2005      	movs	r0, #5
 80015f2:	f7ff ff4d 	bl	8001490 <CAT25512_SendByte>
 80015f6:	2002      	movs	r0, #2
 80015f8:	f005 fde6 	bl	80071c8 <delay_ns>
 80015fc:	f7ff ff64 	bl	80014c8 <CAT25512_RecieveData>
 8001600:	4605      	mov	r5, r0
 8001602:	20c8      	movs	r0, #200	; 0xc8
 8001604:	f005 fde0 	bl	80071c8 <delay_ns>
 8001608:	4620      	mov	r0, r4
 800160a:	2104      	movs	r1, #4
 800160c:	f7ff fd5b 	bl	80010c6 <GPIO_SetBits>
 8001610:	b2e8      	uxtb	r0, r5
 8001612:	bd38      	pop	{r3, r4, r5, pc}
 8001614:	40020c00 	.word	0x40020c00

08001618 <CAT25512_WREN>:
 8001618:	b510      	push	{r4, lr}
 800161a:	4c08      	ldr	r4, [pc, #32]	; (800163c <CAT25512_WREN+0x24>)
 800161c:	2104      	movs	r1, #4
 800161e:	4620      	mov	r0, r4
 8001620:	f7ff fd53 	bl	80010ca <GPIO_ResetBits>
 8001624:	2006      	movs	r0, #6
 8001626:	f7ff ff33 	bl	8001490 <CAT25512_SendByte>
 800162a:	20c8      	movs	r0, #200	; 0xc8
 800162c:	f005 fdcc 	bl	80071c8 <delay_ns>
 8001630:	4620      	mov	r0, r4
 8001632:	2104      	movs	r1, #4
 8001634:	e8bd 4010 	ldmia.w	sp!, {r4, lr}
 8001638:	f7ff bd45 	b.w	80010c6 <GPIO_SetBits>
 800163c:	40020c00 	.word	0x40020c00

08001640 <CAT25512_ReadByte>:
 8001640:	b538      	push	{r3, r4, r5, lr}
 8001642:	4c0d      	ldr	r4, [pc, #52]	; (8001678 <CAT25512_ReadByte+0x38>)
 8001644:	2104      	movs	r1, #4
 8001646:	4605      	mov	r5, r0
 8001648:	4620      	mov	r0, r4
 800164a:	f7ff fd3e 	bl	80010ca <GPIO_ResetBits>
 800164e:	2003      	movs	r0, #3
 8001650:	f7ff ff1e 	bl	8001490 <CAT25512_SendByte>
 8001654:	0a28      	lsrs	r0, r5, #8
 8001656:	f7ff ff1b 	bl	8001490 <CAT25512_SendByte>
 800165a:	b2e8      	uxtb	r0, r5
 800165c:	f7ff ff18 	bl	8001490 <CAT25512_SendByte>
 8001660:	f7ff ff32 	bl	80014c8 <CAT25512_RecieveData>
 8001664:	4605      	mov	r5, r0
 8001666:	20c8      	movs	r0, #200	; 0xc8
 8001668:	f005 fdae 	bl	80071c8 <delay_ns>
 800166c:	4620      	mov	r0, r4
 800166e:	2104      	movs	r1, #4
 8001670:	f7ff fd29 	bl	80010c6 <GPIO_SetBits>
 8001674:	b2e8      	uxtb	r0, r5
 8001676:	bd38      	pop	{r3, r4, r5, pc}
 8001678:	40020c00 	.word	0x40020c00

0800167c <CAT25512_write_block>:
 800167c:	e92d 47f0 	stmdb	sp!, {r4, r5, r6, r7, r8, r9, sl, lr}
 8001680:	4691      	mov	r9, r2
 8001682:	4606      	mov	r6, r0
 8001684:	468a      	mov	sl, r1
 8001686:	f7ff ffc7 	bl	8001618 <CAT25512_WREN>
 800168a:	2104      	movs	r1, #4
 800168c:	4827      	ldr	r0, [pc, #156]	; (800172c <CAT25512_write_block+0xb0>)
 800168e:	f8df 809c 	ldr.w	r8, [pc, #156]	; 800172c <CAT25512_write_block+0xb0>
 8001692:	f7ff fd1a 	bl	80010ca <GPIO_ResetBits>
 8001696:	2002      	movs	r0, #2
 8001698:	f7ff fefa 	bl	8001490 <CAT25512_SendByte>
 800169c:	b2f7      	uxtb	r7, r6
 800169e:	0a30      	lsrs	r0, r6, #8
 80016a0:	f7ff fef6 	bl	8001490 <CAT25512_SendByte>
 80016a4:	4638      	mov	r0, r7
 80016a6:	f7ff fef3 	bl	8001490 <CAT25512_SendByte>
 80016aa:	2400      	movs	r4, #0
 80016ac:	45a1      	cmp	r9, r4
 80016ae:	b2a5      	uxth	r5, r4
 80016b0:	d10f      	bne.n	80016d2 <CAT25512_write_block+0x56>
 80016b2:	20c8      	movs	r0, #200	; 0xc8
 80016b4:	f005 fd88 	bl	80071c8 <delay_ns>
 80016b8:	2104      	movs	r1, #4
 80016ba:	481c      	ldr	r0, [pc, #112]	; (800172c <CAT25512_write_block+0xb0>)
 80016bc:	f7ff fd03 	bl	80010c6 <GPIO_SetBits>
 80016c0:	2001      	movs	r0, #1
 80016c2:	f005 fd41 	bl	8007148 <delay_ms>
 80016c6:	f7ff ff8d 	bl	80015e4 <CAT25512_ReadStatusRegister>
 80016ca:	07c3      	lsls	r3, r0, #31
 80016cc:	d4f8      	bmi.n	80016c0 <CAT25512_write_block+0x44>
 80016ce:	e8bd 87f0 	ldmia.w	sp!, {r4, r5, r6, r7, r8, r9, sl, pc}
 80016d2:	0669      	lsls	r1, r5, #25
 80016d4:	d123      	bne.n	800171e <CAT25512_write_block+0xa2>
 80016d6:	b315      	cbz	r5, 800171e <CAT25512_write_block+0xa2>
 80016d8:	20c8      	movs	r0, #200	; 0xc8
 80016da:	f005 fd75 	bl	80071c8 <delay_ns>
 80016de:	2104      	movs	r1, #4
 80016e0:	4640      	mov	r0, r8
 80016e2:	f7ff fcf0 	bl	80010c6 <GPIO_SetBits>
 80016e6:	2001      	movs	r0, #1
 80016e8:	f005 fd2e 	bl	8007148 <delay_ms>
 80016ec:	f7ff ff7a 	bl	80015e4 <CAT25512_ReadStatusRegister>
 80016f0:	07c2      	lsls	r2, r0, #31
 80016f2:	d4f8      	bmi.n	80016e6 <CAT25512_write_block+0x6a>
 80016f4:	2001      	movs	r0, #1
 80016f6:	f005 fd27 	bl	8007148 <delay_ms>
 80016fa:	f7ff ff8d 	bl	8001618 <CAT25512_WREN>
 80016fe:	2104      	movs	r1, #4
 8001700:	4640      	mov	r0, r8
 8001702:	f7ff fce2 	bl	80010ca <GPIO_ResetBits>
 8001706:	2002      	movs	r0, #2
 8001708:	f7ff fec2 	bl	8001490 <CAT25512_SendByte>
 800170c:	19a8      	adds	r0, r5, r6
 800170e:	f3c0 2007 	ubfx	r0, r0, #8, #8
 8001712:	f7ff febd 	bl	8001490 <CAT25512_SendByte>
 8001716:	1938      	adds	r0, r7, r4
 8001718:	b2c0      	uxtb	r0, r0
 800171a:	f7ff feb9 	bl	8001490 <CAT25512_SendByte>
 800171e:	f81a 0004 	ldrb.w	r0, [sl, r4]
 8001722:	f7ff feb5 	bl	8001490 <CAT25512_SendByte>
 8001726:	3401      	adds	r4, #1
 8001728:	e7c0      	b.n	80016ac <CAT25512_write_block+0x30>
 800172a:	bf00      	nop
 800172c:	40020c00 	.word	0x40020c00

08001730 <CAT25512_read_block>:
 8001730:	b570      	push	{r4, r5, r6, lr}
 8001732:	4606      	mov	r6, r0
 8001734:	460c      	mov	r4, r1
 8001736:	4810      	ldr	r0, [pc, #64]	; (8001778 <CAT25512_read_block+0x48>)
 8001738:	2104      	movs	r1, #4
 800173a:	4615      	mov	r5, r2
 800173c:	f7ff fcc5 	bl	80010ca <GPIO_ResetBits>
 8001740:	2003      	movs	r0, #3
 8001742:	f7ff fea5 	bl	8001490 <CAT25512_SendByte>
 8001746:	0a30      	lsrs	r0, r6, #8
 8001748:	f7ff fea2 	bl	8001490 <CAT25512_SendByte>
 800174c:	b2f0      	uxtb	r0, r6
 800174e:	f7ff fe9f 	bl	8001490 <CAT25512_SendByte>
 8001752:	3c01      	subs	r4, #1
 8001754:	4425      	add	r5, r4
 8001756:	42ac      	cmp	r4, r5
 8001758:	d108      	bne.n	800176c <CAT25512_read_block+0x3c>
 800175a:	20c8      	movs	r0, #200	; 0xc8
 800175c:	f005 fd34 	bl	80071c8 <delay_ns>
 8001760:	2104      	movs	r1, #4
 8001762:	4805      	ldr	r0, [pc, #20]	; (8001778 <CAT25512_read_block+0x48>)
 8001764:	e8bd 4070 	ldmia.w	sp!, {r4, r5, r6, lr}
 8001768:	f7ff bcad 	b.w	80010c6 <GPIO_SetBits>
 800176c:	f7ff feac 	bl	80014c8 <CAT25512_RecieveData>
 8001770:	f804 0f01 	strb.w	r0, [r4, #1]!
 8001774:	e7ef      	b.n	8001756 <CAT25512_read_block+0x26>
 8001776:	bf00      	nop
 8001778:	40020c00 	.word	0x40020c00

0800177c <init_HC165>:
 800177c:	b57f      	push	{r0, r1, r2, r3, r4, r5, r6, lr}
 800177e:	4c14      	ldr	r4, [pc, #80]	; (80017d0 <init_HC165+0x54>)
 8001780:	2101      	movs	r1, #1
 8001782:	2004      	movs	r0, #4
 8001784:	f7ff fcfa 	bl	800117c <RCC_AHB1PeriphClockCmd>
 8001788:	230e      	movs	r3, #14
 800178a:	2600      	movs	r6, #0
 800178c:	9300      	str	r3, [sp, #0]
 800178e:	2501      	movs	r5, #1
 8001790:	2303      	movs	r3, #3
 8001792:	4669      	mov	r1, sp
 8001794:	4620      	mov	r0, r4
 8001796:	f88d 3005 	strb.w	r3, [sp, #5]
 800179a:	f8ad 6006 	strh.w	r6, [sp, #6]
 800179e:	f88d 5004 	strb.w	r5, [sp, #4]
 80017a2:	f7ff fc33 	bl	800100c <GPIO_Init>
 80017a6:	a902      	add	r1, sp, #8
 80017a8:	4620      	mov	r0, r4
 80017aa:	e9cd 5602 	strd	r5, r6, [sp, #8]
 80017ae:	f7ff fc2d 	bl	800100c <GPIO_Init>
 80017b2:	4620      	mov	r0, r4
 80017b4:	2108      	movs	r1, #8
 80017b6:	f7ff fc86 	bl	80010c6 <GPIO_SetBits>
 80017ba:	4620      	mov	r0, r4
 80017bc:	2104      	movs	r1, #4
 80017be:	f7ff fc84 	bl	80010ca <GPIO_ResetBits>
 80017c2:	2102      	movs	r1, #2
 80017c4:	4620      	mov	r0, r4
 80017c6:	f7ff fc80 	bl	80010ca <GPIO_ResetBits>
 80017ca:	b004      	add	sp, #16
 80017cc:	bd70      	pop	{r4, r5, r6, pc}
 80017ce:	bf00      	nop
 80017d0:	40020800 	.word	0x40020800

080017d4 <HC165_LatchUp>:
 80017d4:	b510      	push	{r4, lr}
 80017d6:	4c19      	ldr	r4, [pc, #100]	; (800183c <HC165_LatchUp+0x68>)
 80017d8:	2104      	movs	r1, #4
 80017da:	4620      	mov	r0, r4
 80017dc:	f7ff fc75 	bl	80010ca <GPIO_ResetBits>
 80017e0:	4620      	mov	r0, r4
 80017e2:	2102      	movs	r1, #2
 80017e4:	f7ff fc71 	bl	80010ca <GPIO_ResetBits>
 80017e8:	2108      	movs	r1, #8
 80017ea:	4620      	mov	r0, r4
 80017ec:	f7ff fc6d 	bl	80010ca <GPIO_ResetBits>
 80017f0:	bf00      	nop
 80017f2:	bf00      	nop
 80017f4:	bf00      	nop
 80017f6:	bf00      	nop
 80017f8:	bf00      	nop
 80017fa:	bf00      	nop
 80017fc:	bf00      	nop
 80017fe:	bf00      	nop
 8001800:	bf00      	nop
 8001802:	bf00      	nop
 8001804:	bf00      	nop
 8001806:	bf00      	nop
 8001808:	bf00      	nop
 800180a:	bf00      	nop
 800180c:	bf00      	nop
 800180e:	bf00      	nop
 8001810:	2108      	movs	r1, #8
 8001812:	4620      	mov	r0, r4
 8001814:	f7ff fc57 	bl	80010c6 <GPIO_SetBits>
 8001818:	bf00      	nop
 800181a:	bf00      	nop
 800181c:	bf00      	nop
 800181e:	bf00      	nop
 8001820:	bf00      	nop
 8001822:	bf00      	nop
 8001824:	bf00      	nop
 8001826:	bf00      	nop
 8001828:	bf00      	nop
 800182a:	bf00      	nop
 800182c:	bf00      	nop
 800182e:	bf00      	nop
 8001830:	bf00      	nop
 8001832:	bf00      	nop
 8001834:	bf00      	nop
 8001836:	bf00      	nop
 8001838:	bd10      	pop	{r4, pc}
 800183a:	bf00      	nop
 800183c:	40020800 	.word	0x40020800

08001840 <HC165_GetByte>:
 8001840:	b570      	push	{r4, r5, r6, lr}
 8001842:	bf00      	nop
 8001844:	bf00      	nop
 8001846:	bf00      	nop
 8001848:	bf00      	nop
 800184a:	bf00      	nop
 800184c:	bf00      	nop
 800184e:	bf00      	nop
 8001850:	bf00      	nop
 8001852:	bf00      	nop
 8001854:	bf00      	nop
 8001856:	bf00      	nop
 8001858:	bf00      	nop
 800185a:	bf00      	nop
 800185c:	bf00      	nop
 800185e:	bf00      	nop
 8001860:	bf00      	nop
 8001862:	2101      	movs	r1, #1
 8001864:	4834      	ldr	r0, [pc, #208]	; (8001938 <HC165_GetByte+0xf8>)
 8001866:	f7ff fc28 	bl	80010ba <GPIO_ReadInputDataBit>
 800186a:	1e43      	subs	r3, r0, #1
 800186c:	425c      	negs	r4, r3
 800186e:	f04f 0102 	mov.w	r1, #2
 8001872:	4831      	ldr	r0, [pc, #196]	; (8001938 <HC165_GetByte+0xf8>)
 8001874:	415c      	adcs	r4, r3
 8001876:	f7ff fc26 	bl	80010c6 <GPIO_SetBits>
 800187a:	bf00      	nop
 800187c:	bf00      	nop
 800187e:	bf00      	nop
 8001880:	bf00      	nop
 8001882:	bf00      	nop
 8001884:	bf00      	nop
 8001886:	bf00      	nop
 8001888:	bf00      	nop
 800188a:	bf00      	nop
 800188c:	bf00      	nop
 800188e:	bf00      	nop
 8001890:	bf00      	nop
 8001892:	bf00      	nop
 8001894:	bf00      	nop
 8001896:	bf00      	nop
 8001898:	bf00      	nop
 800189a:	4e27      	ldr	r6, [pc, #156]	; (8001938 <HC165_GetByte+0xf8>)
 800189c:	2507      	movs	r5, #7
 800189e:	2102      	movs	r1, #2
 80018a0:	4630      	mov	r0, r6
 80018a2:	f7ff fc12 	bl	80010ca <GPIO_ResetBits>
 80018a6:	bf00      	nop
 80018a8:	bf00      	nop
 80018aa:	bf00      	nop
 80018ac:	bf00      	nop
 80018ae:	bf00      	nop
 80018b0:	bf00      	nop
 80018b2:	bf00      	nop
 80018b4:	bf00      	nop
 80018b6:	bf00      	nop
 80018b8:	bf00      	nop
 80018ba:	bf00      	nop
 80018bc:	bf00      	nop
 80018be:	bf00      	nop
 80018c0:	bf00      	nop
 80018c2:	bf00      	nop
 80018c4:	bf00      	nop
 80018c6:	2101      	movs	r1, #1
 80018c8:	4630      	mov	r0, r6
 80018ca:	f7ff fbf6 	bl	80010ba <GPIO_ReadInputDataBit>
 80018ce:	0064      	lsls	r4, r4, #1
 80018d0:	2801      	cmp	r0, #1
 80018d2:	b2e4      	uxtb	r4, r4
 80018d4:	f04f 0102 	mov.w	r1, #2
 80018d8:	4817      	ldr	r0, [pc, #92]	; (8001938 <HC165_GetByte+0xf8>)
 80018da:	bf08      	it	eq
 80018dc:	f044 0401 	orreq.w	r4, r4, #1
 80018e0:	f7ff fbf1 	bl	80010c6 <GPIO_SetBits>
 80018e4:	bf00      	nop
 80018e6:	bf00      	nop
 80018e8:	bf00      	nop
 80018ea:	bf00      	nop
 80018ec:	bf00      	nop
 80018ee:	bf00      	nop
 80018f0:	bf00      	nop
 80018f2:	bf00      	nop
 80018f4:	bf00      	nop
 80018f6:	bf00      	nop
 80018f8:	bf00      	nop
 80018fa:	bf00      	nop
 80018fc:	bf00      	nop
 80018fe:	bf00      	nop
 8001900:	bf00      	nop
 8001902:	bf00      	nop
 8001904:	3d01      	subs	r5, #1
 8001906:	f015 05ff 	ands.w	r5, r5, #255	; 0xff
 800190a:	d1c8      	bne.n	800189e <HC165_GetByte+0x5e>
 800190c:	2102      	movs	r1, #2
 800190e:	480a      	ldr	r0, [pc, #40]	; (8001938 <HC165_GetByte+0xf8>)
 8001910:	f7ff fbdb 	bl	80010ca <GPIO_ResetBits>
 8001914:	bf00      	nop
 8001916:	bf00      	nop
 8001918:	bf00      	nop
 800191a:	bf00      	nop
 800191c:	bf00      	nop
 800191e:	bf00      	nop
 8001920:	bf00      	nop
 8001922:	bf00      	nop
 8001924:	bf00      	nop
 8001926:	bf00      	nop
 8001928:	bf00      	nop
 800192a:	bf00      	nop
 800192c:	bf00      	nop
 800192e:	bf00      	nop
 8001930:	bf00      	nop
 8001932:	bf00      	nop
 8001934:	4620      	mov	r0, r4
 8001936:	bd70      	pop	{r4, r5, r6, pc}
 8001938:	40020800 	.word	0x40020800

0800193c <HC165_GetDWord>:
 800193c:	b570      	push	{r4, r5, r6, lr}
 800193e:	f7ff ff7f 	bl	8001840 <HC165_GetByte>
 8001942:	4606      	mov	r6, r0
 8001944:	f7ff ff7c 	bl	8001840 <HC165_GetByte>
 8001948:	4605      	mov	r5, r0
 800194a:	f7ff ff79 	bl	8001840 <HC165_GetByte>
 800194e:	4604      	mov	r4, r0
 8001950:	f7ff ff76 	bl	8001840 <HC165_GetByte>
 8001954:	0424      	lsls	r4, r4, #16
 8001956:	ea44 6000 	orr.w	r0, r4, r0, lsl #24
 800195a:	4330      	orrs	r0, r6
 800195c:	ea40 2005 	orr.w	r0, r0, r5, lsl #8
 8001960:	bd70      	pop	{r4, r5, r6, pc}

08001962 <HC165_GetDWord1>:
 8001962:	b538      	push	{r3, r4, r5, lr}
 8001964:	f7ff ff6c 	bl	8001840 <HC165_GetByte>
 8001968:	4605      	mov	r5, r0
 800196a:	f7ff ff69 	bl	8001840 <HC165_GetByte>
 800196e:	4604      	mov	r4, r0
 8001970:	f7ff ff66 	bl	8001840 <HC165_GetByte>
 8001974:	0224      	lsls	r4, r4, #8
 8001976:	ea44 4000 	orr.w	r0, r4, r0, lsl #16
 800197a:	4328      	orrs	r0, r5
 800197c:	bd38      	pop	{r3, r4, r5, pc}
	...

08001980 <GetButton>:
 8001980:	b570      	push	{r4, r5, r6, lr}
 8001982:	4c0c      	ldr	r4, [pc, #48]	; (80019b4 <GetButton+0x34>)
 8001984:	2104      	movs	r1, #4
 8001986:	4620      	mov	r0, r4
 8001988:	f7ff fb9f 	bl	80010ca <GPIO_ResetBits>
 800198c:	200a      	movs	r0, #10
 800198e:	f005 fbfb 	bl	8007188 <delay_us>
 8001992:	f7ff ff1f 	bl	80017d4 <HC165_LatchUp>
 8001996:	f7ff ffd1 	bl	800193c <HC165_GetDWord>
 800199a:	4605      	mov	r5, r0
 800199c:	f7ff ffe1 	bl	8001962 <HC165_GetDWord1>
 80019a0:	2104      	movs	r1, #4
 80019a2:	4606      	mov	r6, r0
 80019a4:	4620      	mov	r0, r4
 80019a6:	f7ff fb8e 	bl	80010c6 <GPIO_SetBits>
 80019aa:	2300      	movs	r3, #0
 80019ac:	ea43 0005 	orr.w	r0, r3, r5
 80019b0:	4631      	mov	r1, r6
 80019b2:	bd70      	pop	{r4, r5, r6, pc}
 80019b4:	40020800 	.word	0x40020800

080019b8 <SendData>:
 80019b8:	b538      	push	{r3, r4, r5, lr}
 80019ba:	4d0c      	ldr	r5, [pc, #48]	; (80019ec <SendData+0x34>)
 80019bc:	4604      	mov	r4, r0
 80019be:	2102      	movs	r1, #2
 80019c0:	4628      	mov	r0, r5
 80019c2:	f7ff fcb9 	bl	8001338 <SPI_I2S_GetFlagStatus>
 80019c6:	2800      	cmp	r0, #0
 80019c8:	d0f9      	beq.n	80019be <SendData+0x6>
 80019ca:	4621      	mov	r1, r4
 80019cc:	4807      	ldr	r0, [pc, #28]	; (80019ec <SendData+0x34>)
 80019ce:	4c07      	ldr	r4, [pc, #28]	; (80019ec <SendData+0x34>)
 80019d0:	f7ff fcb0 	bl	8001334 <SPI_I2S_SendData>
 80019d4:	2101      	movs	r1, #1
 80019d6:	4620      	mov	r0, r4
 80019d8:	f7ff fcae 	bl	8001338 <SPI_I2S_GetFlagStatus>
 80019dc:	2800      	cmp	r0, #0
 80019de:	d0f9      	beq.n	80019d4 <SendData+0x1c>
 80019e0:	4802      	ldr	r0, [pc, #8]	; (80019ec <SendData+0x34>)
 80019e2:	e8bd 4038 	ldmia.w	sp!, {r3, r4, r5, lr}
 80019e6:	f7ff bca3 	b.w	8001330 <SPI_I2S_ReceiveData>
 80019ea:	bf00      	nop
 80019ec:	40003800 	.word	0x40003800

080019f0 <MAX5135_SendPack>:
 80019f0:	b570      	push	{r4, r5, r6, lr}
 80019f2:	4c0a      	ldr	r4, [pc, #40]	; (8001a1c <MAX5135_SendPack+0x2c>)
 80019f4:	4606      	mov	r6, r0
 80019f6:	460d      	mov	r5, r1
 80019f8:	4620      	mov	r0, r4
 80019fa:	f44f 5180 	mov.w	r1, #4096	; 0x1000
 80019fe:	f7ff fb64 	bl	80010ca <GPIO_ResetBits>
 8001a02:	4630      	mov	r0, r6
 8001a04:	f7ff ffd8 	bl	80019b8 <SendData>
 8001a08:	4628      	mov	r0, r5
 8001a0a:	f7ff ffd5 	bl	80019b8 <SendData>
 8001a0e:	4620      	mov	r0, r4
 8001a10:	f44f 5180 	mov.w	r1, #4096	; 0x1000
 8001a14:	e8bd 4070 	ldmia.w	sp!, {r4, r5, r6, lr}
 8001a18:	f7ff bb55 	b.w	80010c6 <GPIO_SetBits>
 8001a1c:	40020400 	.word	0x40020400

08001a20 <MAX5135init>:
 8001a20:	b5f0      	push	{r4, r5, r6, r7, lr}
 8001a22:	4c2a      	ldr	r4, [pc, #168]	; (8001acc <MAX5135init+0xac>)
 8001a24:	b089      	sub	sp, #36	; 0x24
 8001a26:	2101      	movs	r1, #1
 8001a28:	2002      	movs	r0, #2
 8001a2a:	f7ff fba7 	bl	800117c <RCC_AHB1PeriphClockCmd>
 8001a2e:	4620      	mov	r0, r4
 8001a30:	2205      	movs	r2, #5
 8001a32:	210d      	movs	r1, #13
 8001a34:	f7ff fb4b 	bl	80010ce <GPIO_PinAFConfig>
 8001a38:	2205      	movs	r2, #5
 8001a3a:	4620      	mov	r0, r4
 8001a3c:	210f      	movs	r1, #15
 8001a3e:	f7ff fb46 	bl	80010ce <GPIO_PinAFConfig>
 8001a42:	2600      	movs	r6, #0
 8001a44:	2702      	movs	r7, #2
 8001a46:	f44f 4320 	mov.w	r3, #40960	; 0xa000
 8001a4a:	a901      	add	r1, sp, #4
 8001a4c:	4620      	mov	r0, r4
 8001a4e:	2501      	movs	r5, #1
 8001a50:	9301      	str	r3, [sp, #4]
 8001a52:	f88d 7008 	strb.w	r7, [sp, #8]
 8001a56:	f88d 600a 	strb.w	r6, [sp, #10]
 8001a5a:	f88d 600b 	strb.w	r6, [sp, #11]
 8001a5e:	f88d 7009 	strb.w	r7, [sp, #9]
 8001a62:	f7ff fad3 	bl	800100c <GPIO_Init>
 8001a66:	f44f 5380 	mov.w	r3, #4096	; 0x1000
 8001a6a:	a901      	add	r1, sp, #4
 8001a6c:	4620      	mov	r0, r4
 8001a6e:	9301      	str	r3, [sp, #4]
 8001a70:	f5a4 34e6 	sub.w	r4, r4, #117760	; 0x1cc00
 8001a74:	f88d 5008 	strb.w	r5, [sp, #8]
 8001a78:	f88d 600a 	strb.w	r6, [sp, #10]
 8001a7c:	f88d 500b 	strb.w	r5, [sp, #11]
 8001a80:	f88d 7009 	strb.w	r7, [sp, #9]
 8001a84:	f7ff fac2 	bl	800100c <GPIO_Init>
 8001a88:	4629      	mov	r1, r5
 8001a8a:	f44f 4080 	mov.w	r0, #16384	; 0x4000
 8001a8e:	f7ff fb81 	bl	8001194 <RCC_APB1PeriphClockCmd>
 8001a92:	4620      	mov	r0, r4
 8001a94:	f7ff fbae 	bl	80011f4 <SPI_I2S_DeInit>
 8001a98:	a803      	add	r0, sp, #12
 8001a9a:	f7ff fc25 	bl	80012e8 <SPI_StructInit>
 8001a9e:	4a0c      	ldr	r2, [pc, #48]	; (8001ad0 <MAX5135init+0xb0>)
 8001aa0:	2308      	movs	r3, #8
 8001aa2:	e9cd 2303 	strd	r2, r3, [sp, #12]
 8001aa6:	a903      	add	r1, sp, #12
 8001aa8:	f04f 7300 	mov.w	r3, #33554432	; 0x2000000
 8001aac:	4620      	mov	r0, r4
 8001aae:	e9cd 3605 	strd	r3, r6, [sp, #20]
 8001ab2:	f7ff fbfb 	bl	80012ac <SPI_Init>
 8001ab6:	4629      	mov	r1, r5
 8001ab8:	4620      	mov	r0, r4
 8001aba:	f7ff fc21 	bl	8001300 <SPI_Cmd>
 8001abe:	f44f 7180 	mov.w	r1, #256	; 0x100
 8001ac2:	4620      	mov	r0, r4
 8001ac4:	f7ff fc27 	bl	8001316 <SPI_NSSInternalSoftwareConfig>
 8001ac8:	b009      	add	sp, #36	; 0x24
 8001aca:	bdf0      	pop	{r4, r5, r6, r7, pc}
 8001acc:	40020400 	.word	0x40020400
 8001ad0:	01044000 	.word	0x01044000

08001ad4 <MAX5135_DAC_send>:
 8001ad4:	f240 33ff 	movw	r3, #1023	; 0x3ff
 8001ad8:	4299      	cmp	r1, r3
 8001ada:	bf28      	it	cs
 8001adc:	4619      	movcs	r1, r3
 8001ade:	2803      	cmp	r0, #3
 8001ae0:	d818      	bhi.n	8001b14 <MAX5135_DAC_send+0x40>
 8001ae2:	e8df f000 	tbb	[pc, r0]
 8001ae6:	0a02      	.short	0x0a02
 8001ae8:	120e      	.short	0x120e
 8001aea:	0988      	lsrs	r0, r1, #6
 8001aec:	f040 0030 	orr.w	r0, r0, #48	; 0x30
 8001af0:	b2c0      	uxtb	r0, r0
 8001af2:	0089      	lsls	r1, r1, #2
 8001af4:	b2c9      	uxtb	r1, r1
 8001af6:	f7ff bf7b 	b.w	80019f0 <MAX5135_SendPack>
 8001afa:	0988      	lsrs	r0, r1, #6
 8001afc:	f040 0070 	orr.w	r0, r0, #112	; 0x70
 8001b00:	e7f6      	b.n	8001af0 <MAX5135_DAC_send+0x1c>
 8001b02:	0988      	lsrs	r0, r1, #6
 8001b04:	f060 004f 	orn	r0, r0, #79	; 0x4f
 8001b08:	e7f2      	b.n	8001af0 <MAX5135_DAC_send+0x1c>
 8001b0a:	f3c1 1083 	ubfx	r0, r1, #6, #4
 8001b0e:	f040 00f0 	orr.w	r0, r0, #240	; 0xf0
 8001b12:	e7ee      	b.n	8001af2 <MAX5135_DAC_send+0x1e>
 8001b14:	2100      	movs	r1, #0
 8001b16:	4608      	mov	r0, r1
 8001b18:	e7ed      	b.n	8001af6 <MAX5135_DAC_send+0x22>
	...

08001b1c <ADC_POTS_selector_init>:
 8001b1c:	b507      	push	{r0, r1, r2, lr}
 8001b1e:	2101      	movs	r1, #1
 8001b20:	2004      	movs	r0, #4
 8001b22:	f7ff fb2b 	bl	800117c <RCC_AHB1PeriphClockCmd>
 8001b26:	2300      	movs	r3, #0
 8001b28:	f8ad 3006 	strh.w	r3, [sp, #6]
 8001b2c:	f44f 4360 	mov.w	r3, #57344	; 0xe000
 8001b30:	9300      	str	r3, [sp, #0]
 8001b32:	2302      	movs	r3, #2
 8001b34:	f88d 3005 	strb.w	r3, [sp, #5]
 8001b38:	4669      	mov	r1, sp
 8001b3a:	2301      	movs	r3, #1
 8001b3c:	4804      	ldr	r0, [pc, #16]	; (8001b50 <ADC_POTS_selector_init+0x34>)
 8001b3e:	f88d 3004 	strb.w	r3, [sp, #4]
 8001b42:	f88d 3007 	strb.w	r3, [sp, #7]
 8001b46:	f7ff fa61 	bl	800100c <GPIO_Init>
 8001b4a:	b003      	add	sp, #12
 8001b4c:	f85d fb04 	ldr.w	pc, [sp], #4
 8001b50:	40020800 	.word	0x40020800

08001b54 <ADC_POTS_selector_SendByte>:
 8001b54:	4b1b      	ldr	r3, [pc, #108]	; (8001bc4 <ADC_POTS_selector_SendByte+0x70>)
 8001b56:	b510      	push	{r4, lr}
 8001b58:	2208      	movs	r2, #8
 8001b5a:	f44f 4480 	mov.w	r4, #16384	; 0x4000
 8001b5e:	f44f 5100 	mov.w	r1, #8192	; 0x2000
 8001b62:	f010 0f80 	tst.w	r0, #128	; 0x80
 8001b66:	bf14      	ite	ne
 8001b68:	831c      	strhne	r4, [r3, #24]
 8001b6a:	835c      	strheq	r4, [r3, #26]
 8001b6c:	8359      	strh	r1, [r3, #26]
 8001b6e:	bf00      	nop
 8001b70:	bf00      	nop
 8001b72:	bf00      	nop
 8001b74:	bf00      	nop
 8001b76:	bf00      	nop
 8001b78:	bf00      	nop
 8001b7a:	bf00      	nop
 8001b7c:	bf00      	nop
 8001b7e:	bf00      	nop
 8001b80:	bf00      	nop
 8001b82:	bf00      	nop
 8001b84:	bf00      	nop
 8001b86:	bf00      	nop
 8001b88:	bf00      	nop
 8001b8a:	bf00      	nop
 8001b8c:	bf00      	nop
 8001b8e:	8319      	strh	r1, [r3, #24]
 8001b90:	bf00      	nop
 8001b92:	bf00      	nop
 8001b94:	bf00      	nop
 8001b96:	bf00      	nop
 8001b98:	bf00      	nop
 8001b9a:	bf00      	nop
 8001b9c:	bf00      	nop
 8001b9e:	bf00      	nop
 8001ba0:	bf00      	nop
 8001ba2:	bf00      	nop
 8001ba4:	bf00      	nop
 8001ba6:	bf00      	nop
 8001ba8:	bf00      	nop
 8001baa:	bf00      	nop
 8001bac:	bf00      	nop
 8001bae:	bf00      	nop
 8001bb0:	3a01      	subs	r2, #1
 8001bb2:	0040      	lsls	r0, r0, #1
 8001bb4:	f012 02ff 	ands.w	r2, r2, #255	; 0xff
 8001bb8:	b2c0      	uxtb	r0, r0
 8001bba:	d1d2      	bne.n	8001b62 <ADC_POTS_selector_SendByte+0xe>
 8001bbc:	f44f 4280 	mov.w	r2, #16384	; 0x4000
 8001bc0:	835a      	strh	r2, [r3, #26]
 8001bc2:	bd10      	pop	{r4, pc}
 8001bc4:	40020800 	.word	0x40020800

08001bc8 <ADC_POTS_selector_SendHalfByte>:
 8001bc8:	4b1b      	ldr	r3, [pc, #108]	; (8001c38 <ADC_POTS_selector_SendHalfByte+0x70>)
 8001bca:	b510      	push	{r4, lr}
 8001bcc:	2204      	movs	r2, #4
 8001bce:	f44f 4480 	mov.w	r4, #16384	; 0x4000
 8001bd2:	f44f 5100 	mov.w	r1, #8192	; 0x2000
 8001bd6:	f010 0f08 	tst.w	r0, #8
 8001bda:	bf14      	ite	ne
 8001bdc:	831c      	strhne	r4, [r3, #24]
 8001bde:	835c      	strheq	r4, [r3, #26]
 8001be0:	8359      	strh	r1, [r3, #26]
 8001be2:	bf00      	nop
 8001be4:	bf00      	nop
 8001be6:	bf00      	nop
 8001be8:	bf00      	nop
 8001bea:	bf00      	nop
 8001bec:	bf00      	nop
 8001bee:	bf00      	nop
 8001bf0:	bf00      	nop
 8001bf2:	bf00      	nop
 8001bf4:	bf00      	nop
 8001bf6:	bf00      	nop
 8001bf8:	bf00      	nop
 8001bfa:	bf00      	nop
 8001bfc:	bf00      	nop
 8001bfe:	bf00      	nop
 8001c00:	bf00      	nop
 8001c02:	8319      	strh	r1, [r3, #24]
 8001c04:	bf00      	nop
 8001c06:	bf00      	nop
 8001c08:	bf00      	nop
 8001c0a:	bf00      	nop
 8001c0c:	bf00      	nop
 8001c0e:	bf00      	nop
 8001c10:	bf00      	nop
 8001c12:	bf00      	nop
 8001c14:	bf00      	nop
 8001c16:	bf00      	nop
 8001c18:	bf00      	nop
 8001c1a:	bf00      	nop
 8001c1c:	bf00      	nop
 8001c1e:	bf00      	nop
 8001c20:	bf00      	nop
 8001c22:	bf00      	nop
 8001c24:	3a01      	subs	r2, #1
 8001c26:	0040      	lsls	r0, r0, #1
 8001c28:	f012 02ff 	ands.w	r2, r2, #255	; 0xff
 8001c2c:	b2c0      	uxtb	r0, r0
 8001c2e:	d1d2      	bne.n	8001bd6 <ADC_POTS_selector_SendHalfByte+0xe>
 8001c30:	f44f 4280 	mov.w	r2, #16384	; 0x4000
 8001c34:	835a      	strh	r2, [r3, #26]
 8001c36:	bd10      	pop	{r4, pc}
 8001c38:	40020800 	.word	0x40020800

08001c3c <ADC_POTS_selector_SendDWord>:
 8001c3c:	b570      	push	{r4, r5, r6, lr}
 8001c3e:	4d0c      	ldr	r5, [pc, #48]	; (8001c70 <ADC_POTS_selector_SendDWord+0x34>)
 8001c40:	f44f 4600 	mov.w	r6, #32768	; 0x8000
 8001c44:	4604      	mov	r4, r0
 8001c46:	836e      	strh	r6, [r5, #26]
 8001c48:	b2c8      	uxtb	r0, r1
 8001c4a:	f7ff ff83 	bl	8001b54 <ADC_POTS_selector_SendByte>
 8001c4e:	0e20      	lsrs	r0, r4, #24
 8001c50:	f7ff ff80 	bl	8001b54 <ADC_POTS_selector_SendByte>
 8001c54:	b2e0      	uxtb	r0, r4
 8001c56:	f7ff ff7d 	bl	8001b54 <ADC_POTS_selector_SendByte>
 8001c5a:	f3c4 2007 	ubfx	r0, r4, #8, #8
 8001c5e:	f7ff ff79 	bl	8001b54 <ADC_POTS_selector_SendByte>
 8001c62:	f3c4 4007 	ubfx	r0, r4, #16, #8
 8001c66:	f7ff ff75 	bl	8001b54 <ADC_POTS_selector_SendByte>
 8001c6a:	832e      	strh	r6, [r5, #24]
 8001c6c:	bd70      	pop	{r4, r5, r6, pc}
 8001c6e:	bf00      	nop
 8001c70:	40020800 	.word	0x40020800

08001c74 <ADC_POTS_selector_Ch>:
 8001c74:	4b03      	ldr	r3, [pc, #12]	; (8001c84 <ADC_POTS_selector_Ch+0x10>)
 8001c76:	eb03 00c0 	add.w	r0, r3, r0, lsl #3
 8001c7a:	e9d0 0100 	ldrd	r0, r1, [r0]
 8001c7e:	f7ff bfdd 	b.w	8001c3c <ADC_POTS_selector_SendDWord>
 8001c82:	bf00      	nop
 8001c84:	20000010 	.word	0x20000010

08001c88 <ADC_inc>:
 8001c88:	b5f8      	push	{r3, r4, r5, r6, r7, lr}
 8001c8a:	4f1e      	ldr	r7, [pc, #120]	; (8001d04 <ADC_inc+0x7c>)
 8001c8c:	f44f 4200 	mov.w	r2, #32768	; 0x8000
 8001c90:	837a      	strh	r2, [r7, #26]
 8001c92:	f1a0 0208 	sub.w	r2, r0, #8
 8001c96:	2a07      	cmp	r2, #7
 8001c98:	4605      	mov	r5, r0
 8001c9a:	f000 0607 	and.w	r6, r0, #7
 8001c9e:	d81b      	bhi.n	8001cd8 <ADC_inc+0x50>
 8001ca0:	1c74      	adds	r4, r6, #1
 8001ca2:	f004 0407 	and.w	r4, r4, #7
 8001ca6:	4620      	mov	r0, r4
 8001ca8:	f7ff ff8e 	bl	8001bc8 <ADC_POTS_selector_SendHalfByte>
 8001cac:	3418      	adds	r4, #24
 8001cae:	f44f 4300 	mov.w	r3, #32768	; 0x8000
 8001cb2:	833b      	strh	r3, [r7, #24]
 8001cb4:	bf00      	nop
 8001cb6:	bf00      	nop
 8001cb8:	bf00      	nop
 8001cba:	bf00      	nop
 8001cbc:	bf00      	nop
 8001cbe:	bf00      	nop
 8001cc0:	bf00      	nop
 8001cc2:	bf00      	nop
 8001cc4:	bf00      	nop
 8001cc6:	bf00      	nop
 8001cc8:	bf00      	nop
 8001cca:	bf00      	nop
 8001ccc:	bf00      	nop
 8001cce:	bf00      	nop
 8001cd0:	bf00      	nop
 8001cd2:	bf00      	nop
 8001cd4:	4620      	mov	r0, r4
 8001cd6:	bdf8      	pop	{r3, r4, r5, r6, r7, pc}
 8001cd8:	f1a0 0410 	sub.w	r4, r0, #16
 8001cdc:	b2e4      	uxtb	r4, r4
 8001cde:	2c07      	cmp	r4, #7
 8001ce0:	d804      	bhi.n	8001cec <ADC_inc+0x64>
 8001ce2:	20ff      	movs	r0, #255	; 0xff
 8001ce4:	f7ff ff36 	bl	8001b54 <ADC_POTS_selector_SendByte>
 8001ce8:	4634      	mov	r4, r6
 8001cea:	e7e0      	b.n	8001cae <ADC_inc+0x26>
 8001cec:	200f      	movs	r0, #15
 8001cee:	f7ff ff6b 	bl	8001bc8 <ADC_POTS_selector_SendHalfByte>
 8001cf2:	f1a5 0320 	sub.w	r3, r5, #32
 8001cf6:	2b07      	cmp	r3, #7
 8001cf8:	bf84      	itt	hi
 8001cfa:	f105 0408 	addhi.w	r4, r5, #8
 8001cfe:	b2e4      	uxtbhi	r4, r4
 8001d00:	e7d5      	b.n	8001cae <ADC_inc+0x26>
 8001d02:	bf00      	nop
 8001d04:	40020800 	.word	0x40020800

08001d08 <ADC_inc_expanded>:
 8001d08:	f1a0 0340 	sub.w	r3, r0, #64	; 0x40
 8001d0c:	2b07      	cmp	r3, #7
 8001d0e:	b570      	push	{r4, r5, r6, lr}
 8001d10:	4604      	mov	r4, r0
 8001d12:	f000 0607 	and.w	r6, r0, #7
 8001d16:	d814      	bhi.n	8001d42 <ADC_inc_expanded+0x3a>
 8001d18:	1c74      	adds	r4, r6, #1
 8001d1a:	f004 0407 	and.w	r4, r4, #7
 8001d1e:	4620      	mov	r0, r4
 8001d20:	f7ff ff52 	bl	8001bc8 <ADC_POTS_selector_SendHalfByte>
 8001d24:	f104 0518 	add.w	r5, r4, #24
 8001d28:	4b12      	ldr	r3, [pc, #72]	; (8001d74 <ADC_inc_expanded+0x6c>)
 8001d2a:	f44f 4200 	mov.w	r2, #32768	; 0x8000
 8001d2e:	835a      	strh	r2, [r3, #26]
 8001d30:	220a      	movs	r2, #10
 8001d32:	bf00      	nop
 8001d34:	3a01      	subs	r2, #1
 8001d36:	d1fc      	bne.n	8001d32 <ADC_inc_expanded+0x2a>
 8001d38:	f44f 4200 	mov.w	r2, #32768	; 0x8000
 8001d3c:	831a      	strh	r2, [r3, #24]
 8001d3e:	4628      	mov	r0, r5
 8001d40:	bd70      	pop	{r4, r5, r6, pc}
 8001d42:	f1a0 0510 	sub.w	r5, r0, #16
 8001d46:	b2ed      	uxtb	r5, r5
 8001d48:	2d07      	cmp	r5, #7
 8001d4a:	d804      	bhi.n	8001d56 <ADC_inc_expanded+0x4e>
 8001d4c:	20ff      	movs	r0, #255	; 0xff
 8001d4e:	f7ff ff01 	bl	8001b54 <ADC_POTS_selector_SendByte>
 8001d52:	4635      	mov	r5, r6
 8001d54:	e7e8      	b.n	8001d28 <ADC_inc_expanded+0x20>
 8001d56:	200f      	movs	r0, #15
 8001d58:	f7ff ff36 	bl	8001bc8 <ADC_POTS_selector_SendHalfByte>
 8001d5c:	f1a4 0320 	sub.w	r3, r4, #32
 8001d60:	2b07      	cmp	r3, #7
 8001d62:	d9e1      	bls.n	8001d28 <ADC_inc_expanded+0x20>
 8001d64:	f1a4 0308 	sub.w	r3, r4, #8
 8001d68:	2b07      	cmp	r3, #7
 8001d6a:	bf94      	ite	ls
 8001d6c:	3420      	addls	r4, #32
 8001d6e:	3408      	addhi	r4, #8
 8001d70:	b2e5      	uxtb	r5, r4
 8001d72:	e7d9      	b.n	8001d28 <ADC_inc_expanded+0x20>
 8001d74:	40020800 	.word	0x40020800

08001d78 <DipConfig_init>:
 8001d78:	b507      	push	{r0, r1, r2, lr}
 8001d7a:	2101      	movs	r1, #1
 8001d7c:	4608      	mov	r0, r1
 8001d7e:	f7ff f9fd 	bl	800117c <RCC_AHB1PeriphClockCmd>
 8001d82:	f44f 4309 	mov.w	r3, #35072	; 0x8900
 8001d86:	9300      	str	r3, [sp, #0]
 8001d88:	2201      	movs	r2, #1
 8001d8a:	2300      	movs	r3, #0
 8001d8c:	4669      	mov	r1, sp
 8001d8e:	4806      	ldr	r0, [pc, #24]	; (8001da8 <DipConfig_init+0x30>)
 8001d90:	f88d 3004 	strb.w	r3, [sp, #4]
 8001d94:	f88d 2007 	strb.w	r2, [sp, #7]
 8001d98:	f88d 3005 	strb.w	r3, [sp, #5]
 8001d9c:	f7ff f936 	bl	800100c <GPIO_Init>
 8001da0:	b003      	add	sp, #12
 8001da2:	f85d fb04 	ldr.w	pc, [sp], #4
 8001da6:	bf00      	nop
 8001da8:	40020000 	.word	0x40020000

08001dac <GetDipConfig>:
 8001dac:	b570      	push	{r4, r5, r6, lr}
 8001dae:	4e10      	ldr	r6, [pc, #64]	; (8001df0 <GetDipConfig+0x44>)
 8001db0:	f44f 6100 	mov.w	r1, #2048	; 0x800
 8001db4:	4630      	mov	r0, r6
 8001db6:	f7ff f980 	bl	80010ba <GPIO_ReadInputDataBit>
 8001dba:	f44f 4100 	mov.w	r1, #32768	; 0x8000
 8001dbe:	4605      	mov	r5, r0
 8001dc0:	4630      	mov	r0, r6
 8001dc2:	f7ff f97a 	bl	80010ba <GPIO_ReadInputDataBit>
 8001dc6:	f44f 7180 	mov.w	r1, #256	; 0x100
 8001dca:	4604      	mov	r4, r0
 8001dcc:	4630      	mov	r0, r6
 8001dce:	f7ff f974 	bl	80010ba <GPIO_ReadInputDataBit>
 8001dd2:	43ed      	mvns	r5, r5
 8001dd4:	f04f 0300 	mov.w	r3, #0
 8001dd8:	f365 0300 	bfi	r3, r5, #0, #1
 8001ddc:	43e4      	mvns	r4, r4
 8001dde:	f364 0341 	bfi	r3, r4, #1, #1
 8001de2:	43c0      	mvns	r0, r0
 8001de4:	f043 0304 	orr.w	r3, r3, #4
 8001de8:	f360 03c3 	bfi	r3, r0, #3, #1
 8001dec:	4618      	mov	r0, r3
 8001dee:	bd70      	pop	{r4, r5, r6, pc}
 8001df0:	40020000 	.word	0x40020000

08001df4 <Init_Expander_GPIO>:
 8001df4:	4770      	bx	lr

08001df6 <Is_Expander_Present>:
 8001df6:	b508      	push	{r3, lr}
 8001df8:	f7ff ffd8 	bl	8001dac <GetDipConfig>
 8001dfc:	f3c0 00c0 	ubfx	r0, r0, #3, #1
 8001e00:	bd08      	pop	{r3, pc}
	...

08001e04 <LEDS_modes_init>:
 8001e04:	b507      	push	{r0, r1, r2, lr}
 8001e06:	2101      	movs	r1, #1
 8001e08:	2004      	movs	r0, #4
 8001e0a:	f7ff f9b7 	bl	800117c <RCC_AHB1PeriphClockCmd>
 8001e0e:	2300      	movs	r3, #0
 8001e10:	f8ad 3006 	strh.w	r3, [sp, #6]
 8001e14:	2370      	movs	r3, #112	; 0x70
 8001e16:	9300      	str	r3, [sp, #0]
 8001e18:	2302      	movs	r3, #2
 8001e1a:	f88d 3005 	strb.w	r3, [sp, #5]
 8001e1e:	4669      	mov	r1, sp
 8001e20:	2301      	movs	r3, #1
 8001e22:	4805      	ldr	r0, [pc, #20]	; (8001e38 <LEDS_modes_init+0x34>)
 8001e24:	f88d 3004 	strb.w	r3, [sp, #4]
 8001e28:	f88d 3007 	strb.w	r3, [sp, #7]
 8001e2c:	f7ff f8ee 	bl	800100c <GPIO_Init>
 8001e30:	b003      	add	sp, #12
 8001e32:	f85d fb04 	ldr.w	pc, [sp], #4
 8001e36:	bf00      	nop
 8001e38:	40020800 	.word	0x40020800

08001e3c <LEDS_modes_SendByte>:
 8001e3c:	b570      	push	{r4, r5, r6, lr}
 8001e3e:	4e20      	ldr	r6, [pc, #128]	; (8001ec0 <LEDS_modes_SendByte+0x84>)
 8001e40:	4605      	mov	r5, r0
 8001e42:	2408      	movs	r4, #8
 8001e44:	062b      	lsls	r3, r5, #24
 8001e46:	f04f 0120 	mov.w	r1, #32
 8001e4a:	4630      	mov	r0, r6
 8001e4c:	d535      	bpl.n	8001eba <LEDS_modes_SendByte+0x7e>
 8001e4e:	f7ff f93a 	bl	80010c6 <GPIO_SetBits>
 8001e52:	2110      	movs	r1, #16
 8001e54:	481a      	ldr	r0, [pc, #104]	; (8001ec0 <LEDS_modes_SendByte+0x84>)
 8001e56:	f7ff f938 	bl	80010ca <GPIO_ResetBits>
 8001e5a:	bf00      	nop
 8001e5c:	bf00      	nop
 8001e5e:	bf00      	nop
 8001e60:	bf00      	nop
 8001e62:	bf00      	nop
 8001e64:	bf00      	nop
 8001e66:	bf00      	nop
 8001e68:	bf00      	nop
 8001e6a:	bf00      	nop
 8001e6c:	bf00      	nop
 8001e6e:	bf00      	nop
 8001e70:	bf00      	nop
 8001e72:	bf00      	nop
 8001e74:	bf00      	nop
 8001e76:	bf00      	nop
 8001e78:	bf00      	nop
 8001e7a:	2110      	movs	r1, #16
 8001e7c:	4810      	ldr	r0, [pc, #64]	; (8001ec0 <LEDS_modes_SendByte+0x84>)
 8001e7e:	f7ff f922 	bl	80010c6 <GPIO_SetBits>
 8001e82:	bf00      	nop
 8001e84:	bf00      	nop
 8001e86:	bf00      	nop
 8001e88:	bf00      	nop
 8001e8a:	bf00      	nop
 8001e8c:	bf00      	nop
 8001e8e:	bf00      	nop
 8001e90:	bf00      	nop
 8001e92:	bf00      	nop
 8001e94:	bf00      	nop
 8001e96:	bf00      	nop
 8001e98:	bf00      	nop
 8001e9a:	bf00      	nop
 8001e9c:	bf00      	nop
 8001e9e:	bf00      	nop
 8001ea0:	bf00      	nop
 8001ea2:	3c01      	subs	r4, #1
 8001ea4:	006d      	lsls	r5, r5, #1
 8001ea6:	f014 04ff 	ands.w	r4, r4, #255	; 0xff
 8001eaa:	b2ed      	uxtb	r5, r5
 8001eac:	d1ca      	bne.n	8001e44 <LEDS_modes_SendByte+0x8>
 8001eae:	2120      	movs	r1, #32
 8001eb0:	4803      	ldr	r0, [pc, #12]	; (8001ec0 <LEDS_modes_SendByte+0x84>)
 8001eb2:	e8bd 4070 	ldmia.w	sp!, {r4, r5, r6, lr}
 8001eb6:	f7ff b908 	b.w	80010ca <GPIO_ResetBits>
 8001eba:	f7ff f906 	bl	80010ca <GPIO_ResetBits>
 8001ebe:	e7c8      	b.n	8001e52 <LEDS_modes_SendByte+0x16>
 8001ec0:	40020800 	.word	0x40020800

08001ec4 <LEDS_modes_SendStruct>:
 8001ec4:	b538      	push	{r3, r4, r5, lr}
 8001ec6:	4d0c      	ldr	r5, [pc, #48]	; (8001ef8 <LEDS_modes_SendStruct+0x34>)
 8001ec8:	4604      	mov	r4, r0
 8001eca:	2140      	movs	r1, #64	; 0x40
 8001ecc:	4628      	mov	r0, r5
 8001ece:	f7ff f8fc 	bl	80010ca <GPIO_ResetBits>
 8001ed2:	7820      	ldrb	r0, [r4, #0]
 8001ed4:	f7ff ffb2 	bl	8001e3c <LEDS_modes_SendByte>
 8001ed8:	7860      	ldrb	r0, [r4, #1]
 8001eda:	f7ff ffaf 	bl	8001e3c <LEDS_modes_SendByte>
 8001ede:	78a0      	ldrb	r0, [r4, #2]
 8001ee0:	f7ff ffac 	bl	8001e3c <LEDS_modes_SendByte>
 8001ee4:	78e0      	ldrb	r0, [r4, #3]
 8001ee6:	f7ff ffa9 	bl	8001e3c <LEDS_modes_SendByte>
 8001eea:	4628      	mov	r0, r5
 8001eec:	2140      	movs	r1, #64	; 0x40
 8001eee:	e8bd 4038 	ldmia.w	sp!, {r3, r4, r5, lr}
 8001ef2:	f7ff b8e8 	b.w	80010c6 <GPIO_SetBits>
 8001ef6:	bf00      	nop
 8001ef8:	40020800 	.word	0x40020800

08001efc <LED_STEP_init>:
 8001efc:	b507      	push	{r0, r1, r2, lr}
 8001efe:	2101      	movs	r1, #1
 8001f00:	2004      	movs	r0, #4
 8001f02:	f7ff f93b 	bl	800117c <RCC_AHB1PeriphClockCmd>
 8001f06:	2300      	movs	r3, #0
 8001f08:	f8ad 3006 	strh.w	r3, [sp, #6]
 8001f0c:	f44f 7360 	mov.w	r3, #896	; 0x380
 8001f10:	9300      	str	r3, [sp, #0]
 8001f12:	2303      	movs	r3, #3
 8001f14:	f88d 3005 	strb.w	r3, [sp, #5]
 8001f18:	4669      	mov	r1, sp
 8001f1a:	2301      	movs	r3, #1
 8001f1c:	4804      	ldr	r0, [pc, #16]	; (8001f30 <LED_STEP_init+0x34>)
 8001f1e:	f88d 3004 	strb.w	r3, [sp, #4]
 8001f22:	f88d 3007 	strb.w	r3, [sp, #7]
 8001f26:	f7ff f871 	bl	800100c <GPIO_Init>
 8001f2a:	b003      	add	sp, #12
 8001f2c:	f85d fb04 	ldr.w	pc, [sp], #4
 8001f30:	40020800 	.word	0x40020800

08001f34 <LED_STEP_SendByte>:
 8001f34:	b570      	push	{r4, r5, r6, lr}
 8001f36:	4e21      	ldr	r6, [pc, #132]	; (8001fbc <LED_STEP_SendByte+0x88>)
 8001f38:	4605      	mov	r5, r0
 8001f3a:	2408      	movs	r4, #8
 8001f3c:	062b      	lsls	r3, r5, #24
 8001f3e:	f44f 7180 	mov.w	r1, #256	; 0x100
 8001f42:	4630      	mov	r0, r6
 8001f44:	d536      	bpl.n	8001fb4 <LED_STEP_SendByte+0x80>
 8001f46:	f7ff f8be 	bl	80010c6 <GPIO_SetBits>
 8001f4a:	2180      	movs	r1, #128	; 0x80
 8001f4c:	481b      	ldr	r0, [pc, #108]	; (8001fbc <LED_STEP_SendByte+0x88>)
 8001f4e:	f7ff f8bc 	bl	80010ca <GPIO_ResetBits>
 8001f52:	bf00      	nop
 8001f54:	bf00      	nop
 8001f56:	bf00      	nop
 8001f58:	bf00      	nop
 8001f5a:	bf00      	nop
 8001f5c:	bf00      	nop
 8001f5e:	bf00      	nop
 8001f60:	bf00      	nop
 8001f62:	bf00      	nop
 8001f64:	bf00      	nop
 8001f66:	bf00      	nop
 8001f68:	bf00      	nop
 8001f6a:	bf00      	nop
 8001f6c:	bf00      	nop
 8001f6e:	bf00      	nop
 8001f70:	bf00      	nop
 8001f72:	2180      	movs	r1, #128	; 0x80
 8001f74:	4811      	ldr	r0, [pc, #68]	; (8001fbc <LED_STEP_SendByte+0x88>)
 8001f76:	f7ff f8a6 	bl	80010c6 <GPIO_SetBits>
 8001f7a:	bf00      	nop
 8001f7c:	bf00      	nop
 8001f7e:	bf00      	nop
 8001f80:	bf00      	nop
 8001f82:	bf00      	nop
 8001f84:	bf00      	nop
 8001f86:	bf00      	nop
 8001f88:	bf00      	nop
 8001f8a:	bf00      	nop
 8001f8c:	bf00      	nop
 8001f8e:	bf00      	nop
 8001f90:	bf00      	nop
 8001f92:	bf00      	nop
 8001f94:	bf00      	nop
 8001f96:	bf00      	nop
 8001f98:	bf00      	nop
 8001f9a:	3c01      	subs	r4, #1
 8001f9c:	006d      	lsls	r5, r5, #1
 8001f9e:	f014 04ff 	ands.w	r4, r4, #255	; 0xff
 8001fa2:	b2ed      	uxtb	r5, r5
 8001fa4:	d1ca      	bne.n	8001f3c <LED_STEP_SendByte+0x8>
 8001fa6:	f44f 7180 	mov.w	r1, #256	; 0x100
 8001faa:	4804      	ldr	r0, [pc, #16]	; (8001fbc <LED_STEP_SendByte+0x88>)
 8001fac:	e8bd 4070 	ldmia.w	sp!, {r4, r5, r6, lr}
 8001fb0:	f7ff b88b 	b.w	80010ca <GPIO_ResetBits>
 8001fb4:	f7ff f889 	bl	80010ca <GPIO_ResetBits>
 8001fb8:	e7c7      	b.n	8001f4a <LED_STEP_SendByte+0x16>
 8001fba:	bf00      	nop
 8001fbc:	40020800 	.word	0x40020800

08001fc0 <LED_STEP_SendWord>:
 8001fc0:	b538      	push	{r3, r4, r5, lr}
 8001fc2:	4c0a      	ldr	r4, [pc, #40]	; (8001fec <LED_STEP_SendWord+0x2c>)
 8001fc4:	4605      	mov	r5, r0
 8001fc6:	f44f 7100 	mov.w	r1, #512	; 0x200
 8001fca:	4620      	mov	r0, r4
 8001fcc:	f7ff f87d 	bl	80010ca <GPIO_ResetBits>
 8001fd0:	f3c5 2007 	ubfx	r0, r5, #8, #8
 8001fd4:	f7ff ffae 	bl	8001f34 <LED_STEP_SendByte>
 8001fd8:	b2e8      	uxtb	r0, r5
 8001fda:	f7ff ffab 	bl	8001f34 <LED_STEP_SendByte>
 8001fde:	4620      	mov	r0, r4
 8001fe0:	f44f 7100 	mov.w	r1, #512	; 0x200
 8001fe4:	e8bd 4038 	ldmia.w	sp!, {r3, r4, r5, lr}
 8001fe8:	f7ff b86d 	b.w	80010c6 <GPIO_SetBits>
 8001fec:	40020800 	.word	0x40020800

08001ff0 <LED_STEP_LightStep>:
 8001ff0:	b510      	push	{r4, lr}
 8001ff2:	2300      	movs	r3, #0
 8001ff4:	f06f 0401 	mvn.w	r4, #1
 8001ff8:	b2da      	uxtb	r2, r3
 8001ffa:	4290      	cmp	r0, r2
 8001ffc:	f103 0301 	add.w	r3, r3, #1
 8002000:	d807      	bhi.n	8002012 <LED_STEP_LightStep+0x22>
 8002002:	f7ff fef8 	bl	8001df6 <Is_Expander_Present>
 8002006:	b940      	cbnz	r0, 800201a <LED_STEP_LightStep+0x2a>
 8002008:	b2a0      	uxth	r0, r4
 800200a:	e8bd 4010 	ldmia.w	sp!, {r4, lr}
 800200e:	f7ff bfd7 	b.w	8001fc0 <LED_STEP_SendWord>
 8002012:	0064      	lsls	r4, r4, #1
 8002014:	f044 0401 	orr.w	r4, r4, #1
 8002018:	e7ee      	b.n	8001ff8 <LED_STEP_LightStep+0x8>
 800201a:	f44f 7100 	mov.w	r1, #512	; 0x200
 800201e:	480c      	ldr	r0, [pc, #48]	; (8002050 <LED_STEP_LightStep+0x60>)
 8002020:	f7ff f853 	bl	80010ca <GPIO_ResetBits>
 8002024:	f3c4 4007 	ubfx	r0, r4, #16, #8
 8002028:	f7ff ff84 	bl	8001f34 <LED_STEP_SendByte>
 800202c:	0e20      	lsrs	r0, r4, #24
 800202e:	f7ff ff81 	bl	8001f34 <LED_STEP_SendByte>
 8002032:	f3c4 2007 	ubfx	r0, r4, #8, #8
 8002036:	f7ff ff7d 	bl	8001f34 <LED_STEP_SendByte>
 800203a:	b2e0      	uxtb	r0, r4
 800203c:	f7ff ff7a 	bl	8001f34 <LED_STEP_SendByte>
 8002040:	f44f 7100 	mov.w	r1, #512	; 0x200
 8002044:	4802      	ldr	r0, [pc, #8]	; (8002050 <LED_STEP_LightStep+0x60>)
 8002046:	e8bd 4010 	ldmia.w	sp!, {r4, lr}
 800204a:	f7ff b83c 	b.w	80010c6 <GPIO_SetBits>
 800204e:	bf00      	nop
 8002050:	40020800 	.word	0x40020800

08002054 <NVIC_EnableIRQ>:
 8002054:	b480      	push	{r7}
 8002056:	b083      	sub	sp, #12
 8002058:	af00      	add	r7, sp, #0
 800205a:	4603      	mov	r3, r0
 800205c:	71fb      	strb	r3, [r7, #7]
 800205e:	79fb      	ldrb	r3, [r7, #7]
 8002060:	f003 031f 	and.w	r3, r3, #31
 8002064:	2201      	movs	r2, #1
 8002066:	fa02 f103 	lsl.w	r1, r2, r3
 800206a:	4a06      	ldr	r2, [pc, #24]	; (8002084 <NVIC_EnableIRQ+0x30>)
 800206c:	f997 3007 	ldrsb.w	r3, [r7, #7]
 8002070:	095b      	lsrs	r3, r3, #5
 8002072:	f842 1023 	str.w	r1, [r2, r3, lsl #2]
 8002076:	bf00      	nop
 8002078:	370c      	adds	r7, #12
 800207a:	46bd      	mov	sp, r7
 800207c:	f85d 7b04 	ldr.w	r7, [sp], #4
 8002080:	4770      	bx	lr
 8002082:	bf00      	nop
 8002084:	e000e100 	.word	0xe000e100

08002088 <NVIC_DisableIRQ>:
 8002088:	b480      	push	{r7}
 800208a:	b083      	sub	sp, #12
 800208c:	af00      	add	r7, sp, #0
 800208e:	4603      	mov	r3, r0
 8002090:	71fb      	strb	r3, [r7, #7]
 8002092:	79fb      	ldrb	r3, [r7, #7]
 8002094:	f003 031f 	and.w	r3, r3, #31
 8002098:	2201      	movs	r2, #1
 800209a:	fa02 f103 	lsl.w	r1, r2, r3
 800209e:	4a06      	ldr	r2, [pc, #24]	; (80020b8 <NVIC_DisableIRQ+0x30>)
 80020a0:	f997 3007 	ldrsb.w	r3, [r7, #7]
 80020a4:	095b      	lsrs	r3, r3, #5
 80020a6:	3320      	adds	r3, #32
 80020a8:	f842 1023 	str.w	r1, [r2, r3, lsl #2]
 80020ac:	bf00      	nop
 80020ae:	370c      	adds	r7, #12
 80020b0:	46bd      	mov	sp, r7
 80020b2:	f85d 7b04 	ldr.w	r7, [sp], #4
 80020b6:	4770      	bx	lr
 80020b8:	e000e100 	.word	0xe000e100

080020bc <NVIC_SetPriority>:
 80020bc:	b480      	push	{r7}
 80020be:	b083      	sub	sp, #12
 80020c0:	af00      	add	r7, sp, #0
 80020c2:	4603      	mov	r3, r0
 80020c4:	6039      	str	r1, [r7, #0]
 80020c6:	71fb      	strb	r3, [r7, #7]
 80020c8:	f997 3007 	ldrsb.w	r3, [r7, #7]
 80020cc:	2b00      	cmp	r3, #0
 80020ce:	da0b      	bge.n	80020e8 <NVIC_SetPriority+0x2c>
 80020d0:	683b      	ldr	r3, [r7, #0]
 80020d2:	b2da      	uxtb	r2, r3
 80020d4:	490c      	ldr	r1, [pc, #48]	; (8002108 <NVIC_SetPriority+0x4c>)
 80020d6:	79fb      	ldrb	r3, [r7, #7]
 80020d8:	f003 030f 	and.w	r3, r3, #15
 80020dc:	3b04      	subs	r3, #4
 80020de:	0112      	lsls	r2, r2, #4
 80020e0:	b2d2      	uxtb	r2, r2
 80020e2:	440b      	add	r3, r1
 80020e4:	761a      	strb	r2, [r3, #24]
 80020e6:	e009      	b.n	80020fc <NVIC_SetPriority+0x40>
 80020e8:	683b      	ldr	r3, [r7, #0]
 80020ea:	b2da      	uxtb	r2, r3
 80020ec:	4907      	ldr	r1, [pc, #28]	; (800210c <NVIC_SetPriority+0x50>)
 80020ee:	f997 3007 	ldrsb.w	r3, [r7, #7]
 80020f2:	0112      	lsls	r2, r2, #4
 80020f4:	b2d2      	uxtb	r2, r2
 80020f6:	440b      	add	r3, r1
 80020f8:	f883 2300 	strb.w	r2, [r3, #768]	; 0x300
 80020fc:	bf00      	nop
 80020fe:	370c      	adds	r7, #12
 8002100:	46bd      	mov	sp, r7
 8002102:	f85d 7b04 	ldr.w	r7, [sp], #4
 8002106:	4770      	bx	lr
 8002108:	e000ed00 	.word	0xe000ed00
 800210c:	e000e100 	.word	0xe000e100

08002110 <SysTick_Config>:
 8002110:	b580      	push	{r7, lr}
 8002112:	b082      	sub	sp, #8
 8002114:	af00      	add	r7, sp, #0
 8002116:	6078      	str	r0, [r7, #4]
 8002118:	687b      	ldr	r3, [r7, #4]
 800211a:	f1b3 7f80 	cmp.w	r3, #16777216	; 0x1000000
 800211e:	d301      	bcc.n	8002124 <SysTick_Config+0x14>
 8002120:	2301      	movs	r3, #1
 8002122:	e011      	b.n	8002148 <SysTick_Config+0x38>
 8002124:	687b      	ldr	r3, [r7, #4]
 8002126:	f023 437f 	bic.w	r3, r3, #4278190080	; 0xff000000
 800212a:	4a09      	ldr	r2, [pc, #36]	; (8002150 <SysTick_Config+0x40>)
 800212c:	3b01      	subs	r3, #1
 800212e:	6053      	str	r3, [r2, #4]
 8002130:	210f      	movs	r1, #15
 8002132:	f04f 30ff 	mov.w	r0, #4294967295	; 0xffffffff
 8002136:	f7ff ffc1 	bl	80020bc <NVIC_SetPriority>
 800213a:	4b05      	ldr	r3, [pc, #20]	; (8002150 <SysTick_Config+0x40>)
 800213c:	2200      	movs	r2, #0
 800213e:	609a      	str	r2, [r3, #8]
 8002140:	4b03      	ldr	r3, [pc, #12]	; (8002150 <SysTick_Config+0x40>)
 8002142:	2207      	movs	r2, #7
 8002144:	601a      	str	r2, [r3, #0]
 8002146:	2300      	movs	r3, #0
 8002148:	4618      	mov	r0, r3
 800214a:	3708      	adds	r7, #8
 800214c:	46bd      	mov	sp, r7
 800214e:	bd80      	pop	{r7, pc}
 8002150:	e000e010 	.word	0xe000e010

08002154 <systickInit>:
 8002154:	b580      	push	{r7, lr}
 8002156:	b086      	sub	sp, #24
 8002158:	af00      	add	r7, sp, #0
 800215a:	4603      	mov	r3, r0
 800215c:	80fb      	strh	r3, [r7, #6]
 800215e:	f107 0308 	add.w	r3, r7, #8
 8002162:	4618      	mov	r0, r3
 8002164:	f7fe ffc6 	bl	80010f4 <RCC_GetClocksFreq>
 8002168:	68fa      	ldr	r2, [r7, #12]
 800216a:	88fb      	ldrh	r3, [r7, #6]
 800216c:	fbb2 f3f3 	udiv	r3, r2, r3
 8002170:	4618      	mov	r0, r3
 8002172:	f7ff ffcd 	bl	8002110 <SysTick_Config>
 8002176:	bf00      	nop
 8002178:	3718      	adds	r7, #24
 800217a:	46bd      	mov	sp, r7
 800217c:	bd80      	pop	{r7, pc}
	...

08002180 <SysTick_Handler>:
 8002180:	b480      	push	{r7}
 8002182:	af00      	add	r7, sp, #0
 8002184:	4b04      	ldr	r3, [pc, #16]	; (8002198 <SysTick_Handler+0x18>)
 8002186:	681b      	ldr	r3, [r3, #0]
 8002188:	3301      	adds	r3, #1
 800218a:	4a03      	ldr	r2, [pc, #12]	; (8002198 <SysTick_Handler+0x18>)
 800218c:	6013      	str	r3, [r2, #0]
 800218e:	bf00      	nop
 8002190:	46bd      	mov	sp, r7
 8002192:	f85d 7b04 	ldr.w	r7, [sp], #4
 8002196:	4770      	bx	lr
 8002198:	20000c1c 	.word	0x20000c1c

0800219c <ADC_IRQHandler>:
 800219c:	b580      	push	{r7, lr}
 800219e:	b084      	sub	sp, #16
 80021a0:	af00      	add	r7, sp, #0
 80021a2:	2300      	movs	r3, #0
 80021a4:	73fb      	strb	r3, [r7, #15]
 80021a6:	4b97      	ldr	r3, [pc, #604]	; (8002404 <ADC_IRQHandler+0x268>)
 80021a8:	781b      	ldrb	r3, [r3, #0]
 80021aa:	b2db      	uxtb	r3, r3
 80021ac:	2b0f      	cmp	r3, #15
 80021ae:	d805      	bhi.n	80021bc <ADC_IRQHandler+0x20>
 80021b0:	2364      	movs	r3, #100	; 0x64
 80021b2:	73bb      	strb	r3, [r7, #14]
 80021b4:	4b93      	ldr	r3, [pc, #588]	; (8002404 <ADC_IRQHandler+0x268>)
 80021b6:	781b      	ldrb	r3, [r3, #0]
 80021b8:	737b      	strb	r3, [r7, #13]
 80021ba:	e02d      	b.n	8002218 <ADC_IRQHandler+0x7c>
 80021bc:	4b91      	ldr	r3, [pc, #580]	; (8002404 <ADC_IRQHandler+0x268>)
 80021be:	781b      	ldrb	r3, [r3, #0]
 80021c0:	b2db      	uxtb	r3, r3
 80021c2:	2b17      	cmp	r3, #23
 80021c4:	d807      	bhi.n	80021d6 <ADC_IRQHandler+0x3a>
 80021c6:	2366      	movs	r3, #102	; 0x66
 80021c8:	73bb      	strb	r3, [r7, #14]
 80021ca:	4b8e      	ldr	r3, [pc, #568]	; (8002404 <ADC_IRQHandler+0x268>)
 80021cc:	781b      	ldrb	r3, [r3, #0]
 80021ce:	b2db      	uxtb	r3, r3
 80021d0:	3b10      	subs	r3, #16
 80021d2:	737b      	strb	r3, [r7, #13]
 80021d4:	e020      	b.n	8002218 <ADC_IRQHandler+0x7c>
 80021d6:	4b8b      	ldr	r3, [pc, #556]	; (8002404 <ADC_IRQHandler+0x268>)
 80021d8:	781b      	ldrb	r3, [r3, #0]
 80021da:	b2db      	uxtb	r3, r3
 80021dc:	2b27      	cmp	r3, #39	; 0x27
 80021de:	d807      	bhi.n	80021f0 <ADC_IRQHandler+0x54>
 80021e0:	2365      	movs	r3, #101	; 0x65
 80021e2:	73bb      	strb	r3, [r7, #14]
 80021e4:	4b87      	ldr	r3, [pc, #540]	; (8002404 <ADC_IRQHandler+0x268>)
 80021e6:	781b      	ldrb	r3, [r3, #0]
 80021e8:	b2db      	uxtb	r3, r3
 80021ea:	3b18      	subs	r3, #24
 80021ec:	737b      	strb	r3, [r7, #13]
 80021ee:	e013      	b.n	8002218 <ADC_IRQHandler+0x7c>
 80021f0:	4b84      	ldr	r3, [pc, #528]	; (8002404 <ADC_IRQHandler+0x268>)
 80021f2:	781b      	ldrb	r3, [r3, #0]
 80021f4:	b2db      	uxtb	r3, r3
 80021f6:	2b37      	cmp	r3, #55	; 0x37
 80021f8:	d807      	bhi.n	800220a <ADC_IRQHandler+0x6e>
 80021fa:	2364      	movs	r3, #100	; 0x64
 80021fc:	73bb      	strb	r3, [r7, #14]
 80021fe:	4b81      	ldr	r3, [pc, #516]	; (8002404 <ADC_IRQHandler+0x268>)
 8002200:	781b      	ldrb	r3, [r3, #0]
 8002202:	b2db      	uxtb	r3, r3
 8002204:	3b18      	subs	r3, #24
 8002206:	737b      	strb	r3, [r7, #13]
 8002208:	e006      	b.n	8002218 <ADC_IRQHandler+0x7c>
 800220a:	2365      	movs	r3, #101	; 0x65
 800220c:	73bb      	strb	r3, [r7, #14]
 800220e:	4b7d      	ldr	r3, [pc, #500]	; (8002404 <ADC_IRQHandler+0x268>)
 8002210:	781b      	ldrb	r3, [r3, #0]
 8002212:	b2db      	uxtb	r3, r3
 8002214:	3b28      	subs	r3, #40	; 0x28
 8002216:	737b      	strb	r3, [r7, #13]
 8002218:	7bbb      	ldrb	r3, [r7, #14]
 800221a:	2b66      	cmp	r3, #102	; 0x66
 800221c:	d111      	bne.n	8002242 <ADC_IRQHandler+0xa6>
 800221e:	2102      	movs	r1, #2
 8002220:	4879      	ldr	r0, [pc, #484]	; (8002408 <ADC_IRQHandler+0x26c>)
 8002222:	f7fe fe4a 	bl	8000eba <ADC_GetFlagStatus>
 8002226:	4603      	mov	r3, r0
 8002228:	2b01      	cmp	r3, #1
 800222a:	d13d      	bne.n	80022a8 <ADC_IRQHandler+0x10c>
 800222c:	4b76      	ldr	r3, [pc, #472]	; (8002408 <ADC_IRQHandler+0x26c>)
 800222e:	6cdb      	ldr	r3, [r3, #76]	; 0x4c
 8002230:	b29b      	uxth	r3, r3
 8002232:	f3c3 030b 	ubfx	r3, r3, #0, #12
 8002236:	b29a      	uxth	r2, r3
 8002238:	4b74      	ldr	r3, [pc, #464]	; (800240c <ADC_IRQHandler+0x270>)
 800223a:	801a      	strh	r2, [r3, #0]
 800223c:	2301      	movs	r3, #1
 800223e:	73fb      	strb	r3, [r7, #15]
 8002240:	e032      	b.n	80022a8 <ADC_IRQHandler+0x10c>
 8002242:	2102      	movs	r1, #2
 8002244:	4872      	ldr	r0, [pc, #456]	; (8002410 <ADC_IRQHandler+0x274>)
 8002246:	f7fe fe38 	bl	8000eba <ADC_GetFlagStatus>
 800224a:	4603      	mov	r3, r0
 800224c:	2b01      	cmp	r3, #1
 800224e:	d12b      	bne.n	80022a8 <ADC_IRQHandler+0x10c>
 8002250:	4b6f      	ldr	r3, [pc, #444]	; (8002410 <ADC_IRQHandler+0x274>)
 8002252:	6cdb      	ldr	r3, [r3, #76]	; 0x4c
 8002254:	b29b      	uxth	r3, r3
 8002256:	f3c3 030b 	ubfx	r3, r3, #0, #12
 800225a:	b29a      	uxth	r2, r3
 800225c:	4b6b      	ldr	r3, [pc, #428]	; (800240c <ADC_IRQHandler+0x270>)
 800225e:	801a      	strh	r2, [r3, #0]
 8002260:	4b6a      	ldr	r3, [pc, #424]	; (800240c <ADC_IRQHandler+0x270>)
 8002262:	881b      	ldrh	r3, [r3, #0]
 8002264:	b29b      	uxth	r3, r3
 8002266:	2b1d      	cmp	r3, #29
 8002268:	d919      	bls.n	800229e <ADC_IRQHandler+0x102>
 800226a:	4b68      	ldr	r3, [pc, #416]	; (800240c <ADC_IRQHandler+0x270>)
 800226c:	881b      	ldrh	r3, [r3, #0]
 800226e:	b29b      	uxth	r3, r3
 8002270:	f640 72be 	movw	r2, #4030	; 0xfbe
 8002274:	4293      	cmp	r3, r2
 8002276:	d80f      	bhi.n	8002298 <ADC_IRQHandler+0xfc>
 8002278:	4b64      	ldr	r3, [pc, #400]	; (800240c <ADC_IRQHandler+0x270>)
 800227a:	881b      	ldrh	r3, [r3, #0]
 800227c:	b29b      	uxth	r3, r3
 800227e:	461a      	mov	r2, r3
 8002280:	4613      	mov	r3, r2
 8002282:	015b      	lsls	r3, r3, #5
 8002284:	4413      	add	r3, r2
 8002286:	009b      	lsls	r3, r3, #2
 8002288:	2b00      	cmp	r3, #0
 800228a:	da00      	bge.n	800228e <ADC_IRQHandler+0xf2>
 800228c:	337f      	adds	r3, #127	; 0x7f
 800228e:	11db      	asrs	r3, r3, #7
 8002290:	b29b      	uxth	r3, r3
 8002292:	3b1e      	subs	r3, #30
 8002294:	b29b      	uxth	r3, r3
 8002296:	e003      	b.n	80022a0 <ADC_IRQHandler+0x104>
 8002298:	f241 031d 	movw	r3, #4125	; 0x101d
 800229c:	e000      	b.n	80022a0 <ADC_IRQHandler+0x104>
 800229e:	2300      	movs	r3, #0
 80022a0:	4a5a      	ldr	r2, [pc, #360]	; (800240c <ADC_IRQHandler+0x270>)
 80022a2:	8013      	strh	r3, [r2, #0]
 80022a4:	2301      	movs	r3, #1
 80022a6:	73fb      	strb	r3, [r7, #15]
 80022a8:	7bfb      	ldrb	r3, [r7, #15]
 80022aa:	2b00      	cmp	r3, #0
 80022ac:	f000 824d 	beq.w	800274a <ADC_IRQHandler+0x5ae>
 80022b0:	7bbb      	ldrb	r3, [r7, #14]
 80022b2:	2b65      	cmp	r3, #101	; 0x65
 80022b4:	f000 80e8 	beq.w	8002488 <ADC_IRQHandler+0x2ec>
 80022b8:	2b66      	cmp	r3, #102	; 0x66
 80022ba:	f000 81ba 	beq.w	8002632 <ADC_IRQHandler+0x496>
 80022be:	2b64      	cmp	r3, #100	; 0x64
 80022c0:	f040 8221 	bne.w	8002706 <ADC_IRQHandler+0x56a>
 80022c4:	4b51      	ldr	r3, [pc, #324]	; (800240c <ADC_IRQHandler+0x270>)
 80022c6:	881b      	ldrh	r3, [r3, #0]
 80022c8:	b29b      	uxth	r3, r3
 80022ca:	4619      	mov	r1, r3
 80022cc:	7b7b      	ldrb	r3, [r7, #13]
 80022ce:	4a51      	ldr	r2, [pc, #324]	; (8002414 <ADC_IRQHandler+0x278>)
 80022d0:	f832 3013 	ldrh.w	r3, [r2, r3, lsl #1]
 80022d4:	b29b      	uxth	r3, r3
 80022d6:	1acb      	subs	r3, r1, r3
 80022d8:	1118      	asrs	r0, r3, #4
 80022da:	7b7b      	ldrb	r3, [r7, #13]
 80022dc:	4a4d      	ldr	r2, [pc, #308]	; (8002414 <ADC_IRQHandler+0x278>)
 80022de:	f832 3013 	ldrh.w	r3, [r2, r3, lsl #1]
 80022e2:	b299      	uxth	r1, r3
 80022e4:	b282      	uxth	r2, r0
 80022e6:	7b7b      	ldrb	r3, [r7, #13]
 80022e8:	440a      	add	r2, r1
 80022ea:	b291      	uxth	r1, r2
 80022ec:	4a49      	ldr	r2, [pc, #292]	; (8002414 <ADC_IRQHandler+0x278>)
 80022ee:	f822 1013 	strh.w	r1, [r2, r3, lsl #1]
 80022f2:	2300      	movs	r3, #0
 80022f4:	60bb      	str	r3, [r7, #8]
 80022f6:	e0c2      	b.n	800247e <ADC_IRQHandler+0x2e2>
 80022f8:	7b7b      	ldrb	r3, [r7, #13]
 80022fa:	4947      	ldr	r1, [pc, #284]	; (8002418 <ADC_IRQHandler+0x27c>)
 80022fc:	68ba      	ldr	r2, [r7, #8]
 80022fe:	0152      	lsls	r2, r2, #5
 8002300:	4413      	add	r3, r2
 8002302:	00db      	lsls	r3, r3, #3
 8002304:	440b      	add	r3, r1
 8002306:	685b      	ldr	r3, [r3, #4]
 8002308:	f3c3 3340 	ubfx	r3, r3, #13, #1
 800230c:	b2db      	uxtb	r3, r3
 800230e:	2b00      	cmp	r3, #0
 8002310:	d01f      	beq.n	8002352 <ADC_IRQHandler+0x1b6>
 8002312:	4b3e      	ldr	r3, [pc, #248]	; (800240c <ADC_IRQHandler+0x270>)
 8002314:	881b      	ldrh	r3, [r3, #0]
 8002316:	b29b      	uxth	r3, r3
 8002318:	091b      	lsrs	r3, r3, #4
 800231a:	b29b      	uxth	r3, r3
 800231c:	4618      	mov	r0, r3
 800231e:	7b7b      	ldrb	r3, [r7, #13]
 8002320:	493d      	ldr	r1, [pc, #244]	; (8002418 <ADC_IRQHandler+0x27c>)
 8002322:	68ba      	ldr	r2, [r7, #8]
 8002324:	0152      	lsls	r2, r2, #5
 8002326:	4413      	add	r3, r2
 8002328:	f851 3033 	ldr.w	r3, [r1, r3, lsl #3]
 800232c:	f3c3 030b 	ubfx	r3, r3, #0, #12
 8002330:	b29b      	uxth	r3, r3
 8002332:	111b      	asrs	r3, r3, #4
 8002334:	4298      	cmp	r0, r3
 8002336:	f040 809f 	bne.w	8002478 <ADC_IRQHandler+0x2dc>
 800233a:	7b7b      	ldrb	r3, [r7, #13]
 800233c:	4936      	ldr	r1, [pc, #216]	; (8002418 <ADC_IRQHandler+0x27c>)
 800233e:	68ba      	ldr	r2, [r7, #8]
 8002340:	0152      	lsls	r2, r2, #5
 8002342:	4413      	add	r3, r2
 8002344:	00db      	lsls	r3, r3, #3
 8002346:	440b      	add	r3, r1
 8002348:	685a      	ldr	r2, [r3, #4]
 800234a:	f36f 324d 	bfc	r2, #13, #1
 800234e:	605a      	str	r2, [r3, #4]
 8002350:	e092      	b.n	8002478 <ADC_IRQHandler+0x2dc>
 8002352:	4b2e      	ldr	r3, [pc, #184]	; (800240c <ADC_IRQHandler+0x270>)
 8002354:	881b      	ldrh	r3, [r3, #0]
 8002356:	b29b      	uxth	r3, r3
 8002358:	4618      	mov	r0, r3
 800235a:	7b7b      	ldrb	r3, [r7, #13]
 800235c:	492e      	ldr	r1, [pc, #184]	; (8002418 <ADC_IRQHandler+0x27c>)
 800235e:	68ba      	ldr	r2, [r7, #8]
 8002360:	0152      	lsls	r2, r2, #5
 8002362:	4413      	add	r3, r2
 8002364:	f851 3033 	ldr.w	r3, [r1, r3, lsl #3]
 8002368:	f3c3 030b 	ubfx	r3, r3, #0, #12
 800236c:	b29b      	uxth	r3, r3
 800236e:	1ac3      	subs	r3, r0, r3
 8002370:	2b96      	cmp	r3, #150	; 0x96
 8002372:	dd1c      	ble.n	80023ae <ADC_IRQHandler+0x212>
 8002374:	4b25      	ldr	r3, [pc, #148]	; (800240c <ADC_IRQHandler+0x270>)
 8002376:	881b      	ldrh	r3, [r3, #0]
 8002378:	b29b      	uxth	r3, r3
 800237a:	3b1e      	subs	r3, #30
 800237c:	b29a      	uxth	r2, r3
 800237e:	7b7b      	ldrb	r3, [r7, #13]
 8002380:	f3c2 020b 	ubfx	r2, r2, #0, #12
 8002384:	b290      	uxth	r0, r2
 8002386:	4924      	ldr	r1, [pc, #144]	; (8002418 <ADC_IRQHandler+0x27c>)
 8002388:	68ba      	ldr	r2, [r7, #8]
 800238a:	0152      	lsls	r2, r2, #5
 800238c:	441a      	add	r2, r3
 800238e:	f851 3032 	ldr.w	r3, [r1, r2, lsl #3]
 8002392:	f360 030b 	bfi	r3, r0, #0, #12
 8002396:	f841 3032 	str.w	r3, [r1, r2, lsl #3]
 800239a:	4b1c      	ldr	r3, [pc, #112]	; (800240c <ADC_IRQHandler+0x270>)
 800239c:	881b      	ldrh	r3, [r3, #0]
 800239e:	b29a      	uxth	r2, r3
 80023a0:	7b7b      	ldrb	r3, [r7, #13]
 80023a2:	3a0f      	subs	r2, #15
 80023a4:	b291      	uxth	r1, r2
 80023a6:	4a1b      	ldr	r2, [pc, #108]	; (8002414 <ADC_IRQHandler+0x278>)
 80023a8:	f822 1013 	strh.w	r1, [r2, r3, lsl #1]
 80023ac:	e064      	b.n	8002478 <ADC_IRQHandler+0x2dc>
 80023ae:	7b7b      	ldrb	r3, [r7, #13]
 80023b0:	4919      	ldr	r1, [pc, #100]	; (8002418 <ADC_IRQHandler+0x27c>)
 80023b2:	68ba      	ldr	r2, [r7, #8]
 80023b4:	0152      	lsls	r2, r2, #5
 80023b6:	4413      	add	r3, r2
 80023b8:	f851 3033 	ldr.w	r3, [r1, r3, lsl #3]
 80023bc:	f3c3 030b 	ubfx	r3, r3, #0, #12
 80023c0:	b29b      	uxth	r3, r3
 80023c2:	461a      	mov	r2, r3
 80023c4:	4b11      	ldr	r3, [pc, #68]	; (800240c <ADC_IRQHandler+0x270>)
 80023c6:	881b      	ldrh	r3, [r3, #0]
 80023c8:	b29b      	uxth	r3, r3
 80023ca:	1ad3      	subs	r3, r2, r3
 80023cc:	2b96      	cmp	r3, #150	; 0x96
 80023ce:	dd25      	ble.n	800241c <ADC_IRQHandler+0x280>
 80023d0:	4b0e      	ldr	r3, [pc, #56]	; (800240c <ADC_IRQHandler+0x270>)
 80023d2:	881b      	ldrh	r3, [r3, #0]
 80023d4:	b29a      	uxth	r2, r3
 80023d6:	7b7b      	ldrb	r3, [r7, #13]
 80023d8:	f3c2 020b 	ubfx	r2, r2, #0, #12
 80023dc:	b290      	uxth	r0, r2
 80023de:	490e      	ldr	r1, [pc, #56]	; (8002418 <ADC_IRQHandler+0x27c>)
 80023e0:	68ba      	ldr	r2, [r7, #8]
 80023e2:	0152      	lsls	r2, r2, #5
 80023e4:	441a      	add	r2, r3
 80023e6:	f851 3032 	ldr.w	r3, [r1, r2, lsl #3]
 80023ea:	f360 030b 	bfi	r3, r0, #0, #12
 80023ee:	f841 3032 	str.w	r3, [r1, r2, lsl #3]
 80023f2:	7b7b      	ldrb	r3, [r7, #13]
 80023f4:	4a05      	ldr	r2, [pc, #20]	; (800240c <ADC_IRQHandler+0x270>)
 80023f6:	8812      	ldrh	r2, [r2, #0]
 80023f8:	b291      	uxth	r1, r2
 80023fa:	4a06      	ldr	r2, [pc, #24]	; (8002414 <ADC_IRQHandler+0x278>)
 80023fc:	f822 1013 	strh.w	r1, [r2, r3, lsl #1]
 8002400:	e03a      	b.n	8002478 <ADC_IRQHandler+0x2dc>
 8002402:	bf00      	nop
 8002404:	20000294 	.word	0x20000294
 8002408:	40012100 	.word	0x40012100
 800240c:	20000bd8 	.word	0x20000bd8
 8002410:	40012000 	.word	0x40012000
 8002414:	200007e4 	.word	0x200007e4
 8002418:	20000948 	.word	0x20000948
 800241c:	7b7b      	ldrb	r3, [r7, #13]
 800241e:	4aa8      	ldr	r2, [pc, #672]	; (80026c0 <ADC_IRQHandler+0x524>)
 8002420:	f832 3013 	ldrh.w	r3, [r2, r3, lsl #1]
 8002424:	b29b      	uxth	r3, r3
 8002426:	4618      	mov	r0, r3
 8002428:	7b7b      	ldrb	r3, [r7, #13]
 800242a:	49a6      	ldr	r1, [pc, #664]	; (80026c4 <ADC_IRQHandler+0x528>)
 800242c:	68ba      	ldr	r2, [r7, #8]
 800242e:	0152      	lsls	r2, r2, #5
 8002430:	4413      	add	r3, r2
 8002432:	f851 3033 	ldr.w	r3, [r1, r3, lsl #3]
 8002436:	f3c3 030b 	ubfx	r3, r3, #0, #12
 800243a:	b29b      	uxth	r3, r3
 800243c:	1ac3      	subs	r3, r0, r3
 800243e:	1118      	asrs	r0, r3, #4
 8002440:	7b7b      	ldrb	r3, [r7, #13]
 8002442:	49a0      	ldr	r1, [pc, #640]	; (80026c4 <ADC_IRQHandler+0x528>)
 8002444:	68ba      	ldr	r2, [r7, #8]
 8002446:	0152      	lsls	r2, r2, #5
 8002448:	4413      	add	r3, r2
 800244a:	f851 3033 	ldr.w	r3, [r1, r3, lsl #3]
 800244e:	f3c3 030b 	ubfx	r3, r3, #0, #12
 8002452:	b29b      	uxth	r3, r3
 8002454:	461a      	mov	r2, r3
 8002456:	b283      	uxth	r3, r0
 8002458:	4413      	add	r3, r2
 800245a:	b29a      	uxth	r2, r3
 800245c:	7b7b      	ldrb	r3, [r7, #13]
 800245e:	f3c2 020b 	ubfx	r2, r2, #0, #12
 8002462:	b290      	uxth	r0, r2
 8002464:	4997      	ldr	r1, [pc, #604]	; (80026c4 <ADC_IRQHandler+0x528>)
 8002466:	68ba      	ldr	r2, [r7, #8]
 8002468:	0152      	lsls	r2, r2, #5
 800246a:	441a      	add	r2, r3
 800246c:	f851 3032 	ldr.w	r3, [r1, r2, lsl #3]
 8002470:	f360 030b 	bfi	r3, r0, #0, #12
 8002474:	f841 3032 	str.w	r3, [r1, r2, lsl #3]
 8002478:	68bb      	ldr	r3, [r7, #8]
 800247a:	3301      	adds	r3, #1
 800247c:	60bb      	str	r3, [r7, #8]
 800247e:	68bb      	ldr	r3, [r7, #8]
 8002480:	2b01      	cmp	r3, #1
 8002482:	f77f af39 	ble.w	80022f8 <ADC_IRQHandler+0x15c>
 8002486:	e13e      	b.n	8002706 <ADC_IRQHandler+0x56a>
 8002488:	4b8f      	ldr	r3, [pc, #572]	; (80026c8 <ADC_IRQHandler+0x52c>)
 800248a:	881b      	ldrh	r3, [r3, #0]
 800248c:	b29b      	uxth	r3, r3
 800248e:	4619      	mov	r1, r3
 8002490:	7b7b      	ldrb	r3, [r7, #13]
 8002492:	4a8e      	ldr	r2, [pc, #568]	; (80026cc <ADC_IRQHandler+0x530>)
 8002494:	f832 3013 	ldrh.w	r3, [r2, r3, lsl #1]
 8002498:	b29b      	uxth	r3, r3
 800249a:	1acb      	subs	r3, r1, r3
 800249c:	1118      	asrs	r0, r3, #4
 800249e:	7b7b      	ldrb	r3, [r7, #13]
 80024a0:	4a8a      	ldr	r2, [pc, #552]	; (80026cc <ADC_IRQHandler+0x530>)
 80024a2:	f832 3013 	ldrh.w	r3, [r2, r3, lsl #1]
 80024a6:	b299      	uxth	r1, r3
 80024a8:	b282      	uxth	r2, r0
 80024aa:	7b7b      	ldrb	r3, [r7, #13]
 80024ac:	440a      	add	r2, r1
 80024ae:	b291      	uxth	r1, r2
 80024b0:	4a86      	ldr	r2, [pc, #536]	; (80026cc <ADC_IRQHandler+0x530>)
 80024b2:	f822 1013 	strh.w	r1, [r2, r3, lsl #1]
 80024b6:	2300      	movs	r3, #0
 80024b8:	607b      	str	r3, [r7, #4]
 80024ba:	e0b5      	b.n	8002628 <ADC_IRQHandler+0x48c>
 80024bc:	7b7b      	ldrb	r3, [r7, #13]
 80024be:	4981      	ldr	r1, [pc, #516]	; (80026c4 <ADC_IRQHandler+0x528>)
 80024c0:	687a      	ldr	r2, [r7, #4]
 80024c2:	0152      	lsls	r2, r2, #5
 80024c4:	4413      	add	r3, r2
 80024c6:	00db      	lsls	r3, r3, #3
 80024c8:	440b      	add	r3, r1
 80024ca:	685b      	ldr	r3, [r3, #4]
 80024cc:	f3c3 3380 	ubfx	r3, r3, #14, #1
 80024d0:	b2db      	uxtb	r3, r3
 80024d2:	2b00      	cmp	r3, #0
 80024d4:	d01f      	beq.n	8002516 <ADC_IRQHandler+0x37a>
 80024d6:	4b7c      	ldr	r3, [pc, #496]	; (80026c8 <ADC_IRQHandler+0x52c>)
 80024d8:	881b      	ldrh	r3, [r3, #0]
 80024da:	b29b      	uxth	r3, r3
 80024dc:	091b      	lsrs	r3, r3, #4
 80024de:	b29b      	uxth	r3, r3
 80024e0:	4618      	mov	r0, r3
 80024e2:	7b7b      	ldrb	r3, [r7, #13]
 80024e4:	4977      	ldr	r1, [pc, #476]	; (80026c4 <ADC_IRQHandler+0x528>)
 80024e6:	687a      	ldr	r2, [r7, #4]
 80024e8:	0152      	lsls	r2, r2, #5
 80024ea:	4413      	add	r3, r2
 80024ec:	f851 3033 	ldr.w	r3, [r1, r3, lsl #3]
 80024f0:	f3c3 330b 	ubfx	r3, r3, #12, #12
 80024f4:	b29b      	uxth	r3, r3
 80024f6:	111b      	asrs	r3, r3, #4
 80024f8:	4298      	cmp	r0, r3
 80024fa:	f040 8092 	bne.w	8002622 <ADC_IRQHandler+0x486>
 80024fe:	7b7b      	ldrb	r3, [r7, #13]
 8002500:	4970      	ldr	r1, [pc, #448]	; (80026c4 <ADC_IRQHandler+0x528>)
 8002502:	687a      	ldr	r2, [r7, #4]
 8002504:	0152      	lsls	r2, r2, #5
 8002506:	4413      	add	r3, r2
 8002508:	00db      	lsls	r3, r3, #3
 800250a:	440b      	add	r3, r1
 800250c:	685a      	ldr	r2, [r3, #4]
 800250e:	f36f 328e 	bfc	r2, #14, #1
 8002512:	605a      	str	r2, [r3, #4]
 8002514:	e085      	b.n	8002622 <ADC_IRQHandler+0x486>
 8002516:	4b6c      	ldr	r3, [pc, #432]	; (80026c8 <ADC_IRQHandler+0x52c>)
 8002518:	881b      	ldrh	r3, [r3, #0]
 800251a:	b29b      	uxth	r3, r3
 800251c:	4618      	mov	r0, r3
 800251e:	7b7b      	ldrb	r3, [r7, #13]
 8002520:	4968      	ldr	r1, [pc, #416]	; (80026c4 <ADC_IRQHandler+0x528>)
 8002522:	687a      	ldr	r2, [r7, #4]
 8002524:	0152      	lsls	r2, r2, #5
 8002526:	4413      	add	r3, r2
 8002528:	f851 3033 	ldr.w	r3, [r1, r3, lsl #3]
 800252c:	f3c3 330b 	ubfx	r3, r3, #12, #12
 8002530:	b29b      	uxth	r3, r3
 8002532:	1ac3      	subs	r3, r0, r3
 8002534:	2b96      	cmp	r3, #150	; 0x96
 8002536:	dd1c      	ble.n	8002572 <ADC_IRQHandler+0x3d6>
 8002538:	4b63      	ldr	r3, [pc, #396]	; (80026c8 <ADC_IRQHandler+0x52c>)
 800253a:	881b      	ldrh	r3, [r3, #0]
 800253c:	b29b      	uxth	r3, r3
 800253e:	3b1e      	subs	r3, #30
 8002540:	b29a      	uxth	r2, r3
 8002542:	7b7b      	ldrb	r3, [r7, #13]
 8002544:	f3c2 020b 	ubfx	r2, r2, #0, #12
 8002548:	b290      	uxth	r0, r2
 800254a:	495e      	ldr	r1, [pc, #376]	; (80026c4 <ADC_IRQHandler+0x528>)
 800254c:	687a      	ldr	r2, [r7, #4]
 800254e:	0152      	lsls	r2, r2, #5
 8002550:	441a      	add	r2, r3
 8002552:	f851 3032 	ldr.w	r3, [r1, r2, lsl #3]
 8002556:	f360 3317 	bfi	r3, r0, #12, #12
 800255a:	f841 3032 	str.w	r3, [r1, r2, lsl #3]
 800255e:	4b5a      	ldr	r3, [pc, #360]	; (80026c8 <ADC_IRQHandler+0x52c>)
 8002560:	881b      	ldrh	r3, [r3, #0]
 8002562:	b29a      	uxth	r2, r3
 8002564:	7b7b      	ldrb	r3, [r7, #13]
 8002566:	3a0f      	subs	r2, #15
 8002568:	b291      	uxth	r1, r2
 800256a:	4a58      	ldr	r2, [pc, #352]	; (80026cc <ADC_IRQHandler+0x530>)
 800256c:	f822 1013 	strh.w	r1, [r2, r3, lsl #1]
 8002570:	e057      	b.n	8002622 <ADC_IRQHandler+0x486>
 8002572:	7b7b      	ldrb	r3, [r7, #13]
 8002574:	4953      	ldr	r1, [pc, #332]	; (80026c4 <ADC_IRQHandler+0x528>)
 8002576:	687a      	ldr	r2, [r7, #4]
 8002578:	0152      	lsls	r2, r2, #5
 800257a:	4413      	add	r3, r2
 800257c:	f851 3033 	ldr.w	r3, [r1, r3, lsl #3]
 8002580:	f3c3 330b 	ubfx	r3, r3, #12, #12
 8002584:	b29b      	uxth	r3, r3
 8002586:	461a      	mov	r2, r3
 8002588:	4b4f      	ldr	r3, [pc, #316]	; (80026c8 <ADC_IRQHandler+0x52c>)
 800258a:	881b      	ldrh	r3, [r3, #0]
 800258c:	b29b      	uxth	r3, r3
 800258e:	1ad3      	subs	r3, r2, r3
 8002590:	2b96      	cmp	r3, #150	; 0x96
 8002592:	dd18      	ble.n	80025c6 <ADC_IRQHandler+0x42a>
 8002594:	4b4c      	ldr	r3, [pc, #304]	; (80026c8 <ADC_IRQHandler+0x52c>)
 8002596:	881b      	ldrh	r3, [r3, #0]
 8002598:	b29a      	uxth	r2, r3
 800259a:	7b7b      	ldrb	r3, [r7, #13]
 800259c:	f3c2 020b 	ubfx	r2, r2, #0, #12
 80025a0:	b290      	uxth	r0, r2
 80025a2:	4948      	ldr	r1, [pc, #288]	; (80026c4 <ADC_IRQHandler+0x528>)
 80025a4:	687a      	ldr	r2, [r7, #4]
 80025a6:	0152      	lsls	r2, r2, #5
 80025a8:	441a      	add	r2, r3
 80025aa:	f851 3032 	ldr.w	r3, [r1, r2, lsl #3]
 80025ae:	f360 3317 	bfi	r3, r0, #12, #12
 80025b2:	f841 3032 	str.w	r3, [r1, r2, lsl #3]
 80025b6:	7b7b      	ldrb	r3, [r7, #13]
 80025b8:	4a43      	ldr	r2, [pc, #268]	; (80026c8 <ADC_IRQHandler+0x52c>)
 80025ba:	8812      	ldrh	r2, [r2, #0]
 80025bc:	b291      	uxth	r1, r2
 80025be:	4a43      	ldr	r2, [pc, #268]	; (80026cc <ADC_IRQHandler+0x530>)
 80025c0:	f822 1013 	strh.w	r1, [r2, r3, lsl #1]
 80025c4:	e02d      	b.n	8002622 <ADC_IRQHandler+0x486>
 80025c6:	7b7b      	ldrb	r3, [r7, #13]
 80025c8:	4a40      	ldr	r2, [pc, #256]	; (80026cc <ADC_IRQHandler+0x530>)
 80025ca:	f832 3013 	ldrh.w	r3, [r2, r3, lsl #1]
 80025ce:	b29b      	uxth	r3, r3
 80025d0:	4618      	mov	r0, r3
 80025d2:	7b7b      	ldrb	r3, [r7, #13]
 80025d4:	493b      	ldr	r1, [pc, #236]	; (80026c4 <ADC_IRQHandler+0x528>)
 80025d6:	687a      	ldr	r2, [r7, #4]
 80025d8:	0152      	lsls	r2, r2, #5
 80025da:	4413      	add	r3, r2
 80025dc:	f851 3033 	ldr.w	r3, [r1, r3, lsl #3]
 80025e0:	f3c3 330b 	ubfx	r3, r3, #12, #12
 80025e4:	b29b      	uxth	r3, r3
 80025e6:	1ac3      	subs	r3, r0, r3
 80025e8:	1118      	asrs	r0, r3, #4
 80025ea:	7b7b      	ldrb	r3, [r7, #13]
 80025ec:	4935      	ldr	r1, [pc, #212]	; (80026c4 <ADC_IRQHandler+0x528>)
 80025ee:	687a      	ldr	r2, [r7, #4]
 80025f0:	0152      	lsls	r2, r2, #5
 80025f2:	4413      	add	r3, r2
 80025f4:	f851 3033 	ldr.w	r3, [r1, r3, lsl #3]
 80025f8:	f3c3 330b 	ubfx	r3, r3, #12, #12
 80025fc:	b29b      	uxth	r3, r3
 80025fe:	461a      	mov	r2, r3
 8002600:	b283      	uxth	r3, r0
 8002602:	4413      	add	r3, r2
 8002604:	b29a      	uxth	r2, r3
 8002606:	7b7b      	ldrb	r3, [r7, #13]
 8002608:	f3c2 020b 	ubfx	r2, r2, #0, #12
 800260c:	b290      	uxth	r0, r2
 800260e:	492d      	ldr	r1, [pc, #180]	; (80026c4 <ADC_IRQHandler+0x528>)
 8002610:	687a      	ldr	r2, [r7, #4]
 8002612:	0152      	lsls	r2, r2, #5
 8002614:	441a      	add	r2, r3
 8002616:	f851 3032 	ldr.w	r3, [r1, r2, lsl #3]
 800261a:	f360 3317 	bfi	r3, r0, #12, #12
 800261e:	f841 3032 	str.w	r3, [r1, r2, lsl #3]
 8002622:	687b      	ldr	r3, [r7, #4]
 8002624:	3301      	adds	r3, #1
 8002626:	607b      	str	r3, [r7, #4]
 8002628:	687b      	ldr	r3, [r7, #4]
 800262a:	2b01      	cmp	r3, #1
 800262c:	f77f af46 	ble.w	80024bc <ADC_IRQHandler+0x320>
 8002630:	e069      	b.n	8002706 <ADC_IRQHandler+0x56a>
 8002632:	7b7b      	ldrb	r3, [r7, #13]
 8002634:	3b06      	subs	r3, #6
 8002636:	2b01      	cmp	r3, #1
 8002638:	d84c      	bhi.n	80026d4 <ADC_IRQHandler+0x538>
 800263a:	4b23      	ldr	r3, [pc, #140]	; (80026c8 <ADC_IRQHandler+0x52c>)
 800263c:	881b      	ldrh	r3, [r3, #0]
 800263e:	b29b      	uxth	r3, r3
 8002640:	4619      	mov	r1, r3
 8002642:	7b7b      	ldrb	r3, [r7, #13]
 8002644:	4a22      	ldr	r2, [pc, #136]	; (80026d0 <ADC_IRQHandler+0x534>)
 8002646:	f832 3013 	ldrh.w	r3, [r2, r3, lsl #1]
 800264a:	b29b      	uxth	r3, r3
 800264c:	1acb      	subs	r3, r1, r3
 800264e:	2b96      	cmp	r3, #150	; 0x96
 8002650:	dd09      	ble.n	8002666 <ADC_IRQHandler+0x4ca>
 8002652:	4b1d      	ldr	r3, [pc, #116]	; (80026c8 <ADC_IRQHandler+0x52c>)
 8002654:	881b      	ldrh	r3, [r3, #0]
 8002656:	b29a      	uxth	r2, r3
 8002658:	7b7b      	ldrb	r3, [r7, #13]
 800265a:	3a03      	subs	r2, #3
 800265c:	b291      	uxth	r1, r2
 800265e:	4a1c      	ldr	r2, [pc, #112]	; (80026d0 <ADC_IRQHandler+0x534>)
 8002660:	f822 1013 	strh.w	r1, [r2, r3, lsl #1]
 8002664:	e04e      	b.n	8002704 <ADC_IRQHandler+0x568>
 8002666:	7b7b      	ldrb	r3, [r7, #13]
 8002668:	4a19      	ldr	r2, [pc, #100]	; (80026d0 <ADC_IRQHandler+0x534>)
 800266a:	f832 3013 	ldrh.w	r3, [r2, r3, lsl #1]
 800266e:	b29b      	uxth	r3, r3
 8002670:	461a      	mov	r2, r3
 8002672:	4b15      	ldr	r3, [pc, #84]	; (80026c8 <ADC_IRQHandler+0x52c>)
 8002674:	881b      	ldrh	r3, [r3, #0]
 8002676:	b29b      	uxth	r3, r3
 8002678:	1ad3      	subs	r3, r2, r3
 800267a:	2b96      	cmp	r3, #150	; 0x96
 800267c:	dd07      	ble.n	800268e <ADC_IRQHandler+0x4f2>
 800267e:	7b7b      	ldrb	r3, [r7, #13]
 8002680:	4a11      	ldr	r2, [pc, #68]	; (80026c8 <ADC_IRQHandler+0x52c>)
 8002682:	8812      	ldrh	r2, [r2, #0]
 8002684:	b291      	uxth	r1, r2
 8002686:	4a12      	ldr	r2, [pc, #72]	; (80026d0 <ADC_IRQHandler+0x534>)
 8002688:	f822 1013 	strh.w	r1, [r2, r3, lsl #1]
 800268c:	e03a      	b.n	8002704 <ADC_IRQHandler+0x568>
 800268e:	4b0e      	ldr	r3, [pc, #56]	; (80026c8 <ADC_IRQHandler+0x52c>)
 8002690:	881b      	ldrh	r3, [r3, #0]
 8002692:	b29b      	uxth	r3, r3
 8002694:	4619      	mov	r1, r3
 8002696:	7b7b      	ldrb	r3, [r7, #13]
 8002698:	4a0d      	ldr	r2, [pc, #52]	; (80026d0 <ADC_IRQHandler+0x534>)
 800269a:	f832 3013 	ldrh.w	r3, [r2, r3, lsl #1]
 800269e:	b29b      	uxth	r3, r3
 80026a0:	1acb      	subs	r3, r1, r3
 80026a2:	1098      	asrs	r0, r3, #2
 80026a4:	7b7b      	ldrb	r3, [r7, #13]
 80026a6:	4a0a      	ldr	r2, [pc, #40]	; (80026d0 <ADC_IRQHandler+0x534>)
 80026a8:	f832 3013 	ldrh.w	r3, [r2, r3, lsl #1]
 80026ac:	b299      	uxth	r1, r3
 80026ae:	b282      	uxth	r2, r0
 80026b0:	7b7b      	ldrb	r3, [r7, #13]
 80026b2:	440a      	add	r2, r1
 80026b4:	b291      	uxth	r1, r2
 80026b6:	4a06      	ldr	r2, [pc, #24]	; (80026d0 <ADC_IRQHandler+0x534>)
 80026b8:	f822 1013 	strh.w	r1, [r2, r3, lsl #1]
 80026bc:	e022      	b.n	8002704 <ADC_IRQHandler+0x568>
 80026be:	bf00      	nop
 80026c0:	200007e4 	.word	0x200007e4
 80026c4:	20000948 	.word	0x20000948
 80026c8:	20000bd8 	.word	0x20000bd8
 80026cc:	20000bdc 	.word	0x20000bdc
 80026d0:	20000828 	.word	0x20000828
 80026d4:	4b20      	ldr	r3, [pc, #128]	; (8002758 <ADC_IRQHandler+0x5bc>)
 80026d6:	881b      	ldrh	r3, [r3, #0]
 80026d8:	b29b      	uxth	r3, r3
 80026da:	4619      	mov	r1, r3
 80026dc:	7b7b      	ldrb	r3, [r7, #13]
 80026de:	4a1f      	ldr	r2, [pc, #124]	; (800275c <ADC_IRQHandler+0x5c0>)
 80026e0:	f832 3013 	ldrh.w	r3, [r2, r3, lsl #1]
 80026e4:	b29b      	uxth	r3, r3
 80026e6:	1acb      	subs	r3, r1, r3
 80026e8:	1118      	asrs	r0, r3, #4
 80026ea:	7b7b      	ldrb	r3, [r7, #13]
 80026ec:	4a1b      	ldr	r2, [pc, #108]	; (800275c <ADC_IRQHandler+0x5c0>)
 80026ee:	f832 3013 	ldrh.w	r3, [r2, r3, lsl #1]
 80026f2:	b299      	uxth	r1, r3
 80026f4:	b282      	uxth	r2, r0
 80026f6:	7b7b      	ldrb	r3, [r7, #13]
 80026f8:	440a      	add	r2, r1
 80026fa:	b291      	uxth	r1, r2
 80026fc:	4a17      	ldr	r2, [pc, #92]	; (800275c <ADC_IRQHandler+0x5c0>)
 80026fe:	f822 1013 	strh.w	r1, [r2, r3, lsl #1]
 8002702:	bf00      	nop
 8002704:	bf00      	nop
 8002706:	2102      	movs	r1, #2
 8002708:	4815      	ldr	r0, [pc, #84]	; (8002760 <ADC_IRQHandler+0x5c4>)
 800270a:	f7fe fbdc 	bl	8000ec6 <ADC_ClearFlag>
 800270e:	2102      	movs	r1, #2
 8002710:	4814      	ldr	r0, [pc, #80]	; (8002764 <ADC_IRQHandler+0x5c8>)
 8002712:	f7fe fbd8 	bl	8000ec6 <ADC_ClearFlag>
 8002716:	f7ff fb6e 	bl	8001df6 <Is_Expander_Present>
 800271a:	4603      	mov	r3, r0
 800271c:	2b00      	cmp	r3, #0
 800271e:	d00a      	beq.n	8002736 <ADC_IRQHandler+0x59a>
 8002720:	4b11      	ldr	r3, [pc, #68]	; (8002768 <ADC_IRQHandler+0x5cc>)
 8002722:	781b      	ldrb	r3, [r3, #0]
 8002724:	b2db      	uxtb	r3, r3
 8002726:	4618      	mov	r0, r3
 8002728:	f7ff faee 	bl	8001d08 <ADC_inc_expanded>
 800272c:	4603      	mov	r3, r0
 800272e:	461a      	mov	r2, r3
 8002730:	4b0d      	ldr	r3, [pc, #52]	; (8002768 <ADC_IRQHandler+0x5cc>)
 8002732:	701a      	strb	r2, [r3, #0]
 8002734:	e009      	b.n	800274a <ADC_IRQHandler+0x5ae>
 8002736:	4b0c      	ldr	r3, [pc, #48]	; (8002768 <ADC_IRQHandler+0x5cc>)
 8002738:	781b      	ldrb	r3, [r3, #0]
 800273a:	b2db      	uxtb	r3, r3
 800273c:	4618      	mov	r0, r3
 800273e:	f7ff faa3 	bl	8001c88 <ADC_inc>
 8002742:	4603      	mov	r3, r0
 8002744:	461a      	mov	r2, r3
 8002746:	4b08      	ldr	r3, [pc, #32]	; (8002768 <ADC_IRQHandler+0x5cc>)
 8002748:	701a      	strb	r2, [r3, #0]
 800274a:	200a      	movs	r0, #10
 800274c:	f004 fd1c 	bl	8007188 <delay_us>
 8002750:	bf00      	nop
 8002752:	3710      	adds	r7, #16
 8002754:	46bd      	mov	sp, r7
 8002756:	bd80      	pop	{r7, pc}
 8002758:	20000bd8 	.word	0x20000bd8
 800275c:	20000828 	.word	0x20000828
 8002760:	40012000 	.word	0x40012000
 8002764:	40012100 	.word	0x40012100
 8002768:	20000294 	.word	0x20000294

0800276c <mADC_init>:
 800276c:	b580      	push	{r7, lr}
 800276e:	b090      	sub	sp, #64	; 0x40
 8002770:	af00      	add	r7, sp, #0
 8002772:	2101      	movs	r1, #1
 8002774:	2001      	movs	r0, #1
 8002776:	f7fe fd0d 	bl	8001194 <RCC_APB1PeriphClockCmd>
 800277a:	f107 0314 	add.w	r3, r7, #20
 800277e:	4618      	mov	r0, r3
 8002780:	f7fe fe34 	bl	80013ec <TIM_TimeBaseStructInit>
 8002784:	2301      	movs	r3, #1
 8002786:	82bb      	strh	r3, [r7, #20]
 8002788:	2300      	movs	r3, #0
 800278a:	82fb      	strh	r3, [r7, #22]
 800278c:	f241 0367 	movw	r3, #4199	; 0x1067
 8002790:	61bb      	str	r3, [r7, #24]
 8002792:	2300      	movs	r3, #0
 8002794:	83bb      	strh	r3, [r7, #28]
 8002796:	f107 0314 	add.w	r3, r7, #20
 800279a:	4619      	mov	r1, r3
 800279c:	f04f 4080 	mov.w	r0, #1073741824	; 0x40000000
 80027a0:	f7fe fde6 	bl	8001370 <TIM_TimeBaseInit>
 80027a4:	2150      	movs	r1, #80	; 0x50
 80027a6:	f04f 4080 	mov.w	r0, #1073741824	; 0x40000000
 80027aa:	f7fe fe66 	bl	800147a <TIM_SelectOutputTrigger>
 80027ae:	2201      	movs	r2, #1
 80027b0:	2104      	movs	r1, #4
 80027b2:	f04f 4080 	mov.w	r0, #1073741824	; 0x40000000
 80027b6:	f7fe fe3b 	bl	8001430 <TIM_CCxCmd>
 80027ba:	2101      	movs	r1, #1
 80027bc:	f04f 4080 	mov.w	r0, #1073741824	; 0x40000000
 80027c0:	f7fe fe34 	bl	800142c <TIM_SetCompare2>
 80027c4:	f04f 4380 	mov.w	r3, #1073741824	; 0x40000000
 80027c8:	8b1b      	ldrh	r3, [r3, #24]
 80027ca:	b29b      	uxth	r3, r3
 80027cc:	f04f 4280 	mov.w	r2, #1073741824	; 0x40000000
 80027d0:	f443 43e0 	orr.w	r3, r3, #28672	; 0x7000
 80027d4:	b29b      	uxth	r3, r3
 80027d6:	8313      	strh	r3, [r2, #24]
 80027d8:	2101      	movs	r1, #1
 80027da:	f04f 4080 	mov.w	r0, #1073741824	; 0x40000000
 80027de:	f7fe fe1a 	bl	8001416 <TIM_Cmd>
 80027e2:	2101      	movs	r1, #1
 80027e4:	2012      	movs	r0, #18
 80027e6:	f7ff fc69 	bl	80020bc <NVIC_SetPriority>
 80027ea:	2101      	movs	r1, #1
 80027ec:	2001      	movs	r0, #1
 80027ee:	f7fe fcc5 	bl	800117c <RCC_AHB1PeriphClockCmd>
 80027f2:	f107 0338 	add.w	r3, r7, #56	; 0x38
 80027f6:	2208      	movs	r2, #8
 80027f8:	2100      	movs	r1, #0
 80027fa:	4618      	mov	r0, r3
 80027fc:	f004 fe34 	bl	8007468 <memset>
 8002800:	2303      	movs	r3, #3
 8002802:	63bb      	str	r3, [r7, #56]	; 0x38
 8002804:	2303      	movs	r3, #3
 8002806:	f887 303c 	strb.w	r3, [r7, #60]	; 0x3c
 800280a:	f107 0338 	add.w	r3, r7, #56	; 0x38
 800280e:	4619      	mov	r1, r3
 8002810:	483b      	ldr	r0, [pc, #236]	; (8002900 <mADC_init+0x194>)
 8002812:	f7fe fbfb 	bl	800100c <GPIO_Init>
 8002816:	2101      	movs	r1, #1
 8002818:	f44f 7080 	mov.w	r0, #256	; 0x100
 800281c:	f7fe fcc6 	bl	80011ac <RCC_APB2PeriphClockCmd>
 8002820:	2101      	movs	r1, #1
 8002822:	f44f 7000 	mov.w	r0, #512	; 0x200
 8002826:	f7fe fcc1 	bl	80011ac <RCC_APB2PeriphClockCmd>
 800282a:	2300      	movs	r3, #0
 800282c:	603b      	str	r3, [r7, #0]
 800282e:	f44f 3300 	mov.w	r3, #131072	; 0x20000
 8002832:	607b      	str	r3, [r7, #4]
 8002834:	2300      	movs	r3, #0
 8002836:	60bb      	str	r3, [r7, #8]
 8002838:	2300      	movs	r3, #0
 800283a:	60fb      	str	r3, [r7, #12]
 800283c:	463b      	mov	r3, r7
 800283e:	4618      	mov	r0, r3
 8002840:	f7fe facc 	bl	8000ddc <ADC_CommonInit>
 8002844:	f107 0320 	add.w	r3, r7, #32
 8002848:	4618      	mov	r0, r3
 800284a:	f7fe fabd 	bl	8000dc8 <ADC_StructInit>
 800284e:	2300      	movs	r3, #0
 8002850:	f887 3025 	strb.w	r3, [r7, #37]	; 0x25
 8002854:	2300      	movs	r3, #0
 8002856:	633b      	str	r3, [r7, #48]	; 0x30
 8002858:	f04f 63c0 	mov.w	r3, #100663296	; 0x6000000
 800285c:	62fb      	str	r3, [r7, #44]	; 0x2c
 800285e:	f04f 5380 	mov.w	r3, #268435456	; 0x10000000
 8002862:	62bb      	str	r3, [r7, #40]	; 0x28
 8002864:	2301      	movs	r3, #1
 8002866:	f887 3034 	strb.w	r3, [r7, #52]	; 0x34
 800286a:	2300      	movs	r3, #0
 800286c:	623b      	str	r3, [r7, #32]
 800286e:	2300      	movs	r3, #0
 8002870:	f887 3024 	strb.w	r3, [r7, #36]	; 0x24
 8002874:	f107 0320 	add.w	r3, r7, #32
 8002878:	4619      	mov	r1, r3
 800287a:	4822      	ldr	r0, [pc, #136]	; (8002904 <mADC_init+0x198>)
 800287c:	f7fe fa7e 	bl	8000d7c <ADC_Init>
 8002880:	f107 0320 	add.w	r3, r7, #32
 8002884:	4619      	mov	r1, r3
 8002886:	4820      	ldr	r0, [pc, #128]	; (8002908 <mADC_init+0x19c>)
 8002888:	f7fe fa78 	bl	8000d7c <ADC_Init>
 800288c:	2307      	movs	r3, #7
 800288e:	2201      	movs	r2, #1
 8002890:	2100      	movs	r1, #0
 8002892:	481c      	ldr	r0, [pc, #112]	; (8002904 <mADC_init+0x198>)
 8002894:	f7fe fabf 	bl	8000e16 <ADC_RegularChannelConfig>
 8002898:	2307      	movs	r3, #7
 800289a:	2201      	movs	r2, #1
 800289c:	2101      	movs	r1, #1
 800289e:	481a      	ldr	r0, [pc, #104]	; (8002908 <mADC_init+0x19c>)
 80028a0:	f7fe fab9 	bl	8000e16 <ADC_RegularChannelConfig>
 80028a4:	2312      	movs	r3, #18
 80028a6:	743b      	strb	r3, [r7, #16]
 80028a8:	2301      	movs	r3, #1
 80028aa:	747b      	strb	r3, [r7, #17]
 80028ac:	2300      	movs	r3, #0
 80028ae:	74bb      	strb	r3, [r7, #18]
 80028b0:	2301      	movs	r3, #1
 80028b2:	74fb      	strb	r3, [r7, #19]
 80028b4:	f107 0310 	add.w	r3, r7, #16
 80028b8:	4618      	mov	r0, r3
 80028ba:	f7fe fa33 	bl	8000d24 <NVIC_Init>
 80028be:	4b13      	ldr	r3, [pc, #76]	; (800290c <mADC_init+0x1a0>)
 80028c0:	2200      	movs	r2, #0
 80028c2:	701a      	strb	r2, [r3, #0]
 80028c4:	2000      	movs	r0, #0
 80028c6:	f7ff f9d5 	bl	8001c74 <ADC_POTS_selector_Ch>
 80028ca:	2012      	movs	r0, #18
 80028cc:	f7ff fbc2 	bl	8002054 <NVIC_EnableIRQ>
 80028d0:	2201      	movs	r2, #1
 80028d2:	f240 2105 	movw	r1, #517	; 0x205
 80028d6:	480b      	ldr	r0, [pc, #44]	; (8002904 <mADC_init+0x198>)
 80028d8:	f7fe fae3 	bl	8000ea2 <ADC_ITConfig>
 80028dc:	2201      	movs	r2, #1
 80028de:	f240 2105 	movw	r1, #517	; 0x205
 80028e2:	4809      	ldr	r0, [pc, #36]	; (8002908 <mADC_init+0x19c>)
 80028e4:	f7fe fadd 	bl	8000ea2 <ADC_ITConfig>
 80028e8:	2101      	movs	r1, #1
 80028ea:	4806      	ldr	r0, [pc, #24]	; (8002904 <mADC_init+0x198>)
 80028ec:	f7fe fa8a 	bl	8000e04 <ADC_Cmd>
 80028f0:	2101      	movs	r1, #1
 80028f2:	4805      	ldr	r0, [pc, #20]	; (8002908 <mADC_init+0x19c>)
 80028f4:	f7fe fa86 	bl	8000e04 <ADC_Cmd>
 80028f8:	bf00      	nop
 80028fa:	3740      	adds	r7, #64	; 0x40
 80028fc:	46bd      	mov	sp, r7
 80028fe:	bd80      	pop	{r7, pc}
 8002900:	40020000 	.word	0x40020000
 8002904:	40012000 	.word	0x40012000
 8002908:	40012100 	.word	0x40012100
 800290c:	20000294 	.word	0x20000294

08002910 <ADCPause>:
 8002910:	b580      	push	{r7, lr}
 8002912:	af00      	add	r7, sp, #0
 8002914:	2012      	movs	r0, #18
 8002916:	f7ff fbb7 	bl	8002088 <NVIC_DisableIRQ>
 800291a:	bf00      	nop
 800291c:	bd80      	pop	{r7, pc}
	...

08002920 <mInterruptInit>:
 8002920:	b580      	push	{r7, lr}
 8002922:	b086      	sub	sp, #24
 8002924:	af00      	add	r7, sp, #0
 8002926:	2101      	movs	r1, #1
 8002928:	f44f 4080 	mov.w	r0, #16384	; 0x4000
 800292c:	f7fe fc3e 	bl	80011ac <RCC_APB2PeriphClockCmd>
 8002930:	2300      	movs	r3, #0
 8002932:	753b      	strb	r3, [r7, #20]
 8002934:	f240 13e3 	movw	r3, #483	; 0x1e3
 8002938:	613b      	str	r3, [r7, #16]
 800293a:	2300      	movs	r3, #0
 800293c:	75fb      	strb	r3, [r7, #23]
 800293e:	2303      	movs	r3, #3
 8002940:	757b      	strb	r3, [r7, #21]
 8002942:	f107 0310 	add.w	r3, r7, #16
 8002946:	4619      	mov	r1, r3
 8002948:	4832      	ldr	r0, [pc, #200]	; (8002a14 <mInterruptInit+0xf4>)
 800294a:	f7fe fb5f 	bl	800100c <GPIO_Init>
 800294e:	2100      	movs	r1, #0
 8002950:	2001      	movs	r0, #1
 8002952:	f7fe fcf7 	bl	8001344 <SYSCFG_EXTILineConfig>
 8002956:	2101      	movs	r1, #1
 8002958:	2001      	movs	r0, #1
 800295a:	f7fe fcf3 	bl	8001344 <SYSCFG_EXTILineConfig>
 800295e:	2105      	movs	r1, #5
 8002960:	2001      	movs	r0, #1
 8002962:	f7fe fcef 	bl	8001344 <SYSCFG_EXTILineConfig>
 8002966:	2106      	movs	r1, #6
 8002968:	2001      	movs	r0, #1
 800296a:	f7fe fceb 	bl	8001344 <SYSCFG_EXTILineConfig>
 800296e:	2107      	movs	r1, #7
 8002970:	2001      	movs	r0, #1
 8002972:	f7fe fce7 	bl	8001344 <SYSCFG_EXTILineConfig>
 8002976:	2108      	movs	r1, #8
 8002978:	2001      	movs	r0, #1
 800297a:	f7fe fce3 	bl	8001344 <SYSCFG_EXTILineConfig>
 800297e:	f7fe fafd 	bl	8000f7c <EXTI_DeInit>
 8002982:	f240 13e3 	movw	r3, #483	; 0x1e3
 8002986:	60bb      	str	r3, [r7, #8]
 8002988:	2300      	movs	r3, #0
 800298a:	733b      	strb	r3, [r7, #12]
 800298c:	2308      	movs	r3, #8
 800298e:	737b      	strb	r3, [r7, #13]
 8002990:	2301      	movs	r3, #1
 8002992:	73bb      	strb	r3, [r7, #14]
 8002994:	f107 0308 	add.w	r3, r7, #8
 8002998:	4618      	mov	r0, r3
 800299a:	f7fe fafd 	bl	8000f98 <EXTI_Init>
 800299e:	2306      	movs	r3, #6
 80029a0:	713b      	strb	r3, [r7, #4]
 80029a2:	2300      	movs	r3, #0
 80029a4:	717b      	strb	r3, [r7, #5]
 80029a6:	2300      	movs	r3, #0
 80029a8:	71bb      	strb	r3, [r7, #6]
 80029aa:	2301      	movs	r3, #1
 80029ac:	71fb      	strb	r3, [r7, #7]
 80029ae:	1d3b      	adds	r3, r7, #4
 80029b0:	4618      	mov	r0, r3
 80029b2:	f7fe f9b7 	bl	8000d24 <NVIC_Init>
 80029b6:	2307      	movs	r3, #7
 80029b8:	713b      	strb	r3, [r7, #4]
 80029ba:	2300      	movs	r3, #0
 80029bc:	717b      	strb	r3, [r7, #5]
 80029be:	2300      	movs	r3, #0
 80029c0:	71bb      	strb	r3, [r7, #6]
 80029c2:	2301      	movs	r3, #1
 80029c4:	71fb      	strb	r3, [r7, #7]
 80029c6:	1d3b      	adds	r3, r7, #4
 80029c8:	4618      	mov	r0, r3
 80029ca:	f7fe f9ab 	bl	8000d24 <NVIC_Init>
 80029ce:	2317      	movs	r3, #23
 80029d0:	713b      	strb	r3, [r7, #4]
 80029d2:	2300      	movs	r3, #0
 80029d4:	717b      	strb	r3, [r7, #5]
 80029d6:	2300      	movs	r3, #0
 80029d8:	71bb      	strb	r3, [r7, #6]
 80029da:	2301      	movs	r3, #1
 80029dc:	71fb      	strb	r3, [r7, #7]
 80029de:	1d3b      	adds	r3, r7, #4
 80029e0:	4618      	mov	r0, r3
 80029e2:	f7fe f99f 	bl	8000d24 <NVIC_Init>
 80029e6:	2001      	movs	r0, #1
 80029e8:	f7fe fb0a 	bl	8001000 <EXTI_ClearITPendingBit>
 80029ec:	2002      	movs	r0, #2
 80029ee:	f7fe fb07 	bl	8001000 <EXTI_ClearITPendingBit>
 80029f2:	2020      	movs	r0, #32
 80029f4:	f7fe fb04 	bl	8001000 <EXTI_ClearITPendingBit>
 80029f8:	2040      	movs	r0, #64	; 0x40
 80029fa:	f7fe fb01 	bl	8001000 <EXTI_ClearITPendingBit>
 80029fe:	2080      	movs	r0, #128	; 0x80
 8002a00:	f7fe fafe 	bl	8001000 <EXTI_ClearITPendingBit>
 8002a04:	f44f 7080 	mov.w	r0, #256	; 0x100
 8002a08:	f7fe fafa 	bl	8001000 <EXTI_ClearITPendingBit>
 8002a0c:	bf00      	nop
 8002a0e:	3718      	adds	r7, #24
 8002a10:	46bd      	mov	sp, r7
 8002a12:	bd80      	pop	{r7, pc}
 8002a14:	40020400 	.word	0x40020400

08002a18 <EXTI0_IRQHandler>:
 8002a18:	b580      	push	{r7, lr}
 8002a1a:	af00      	add	r7, sp, #0
 8002a1c:	4b16      	ldr	r3, [pc, #88]	; (8002a78 <EXTI0_IRQHandler+0x60>)
 8002a1e:	691b      	ldr	r3, [r3, #16]
 8002a20:	f003 0301 	and.w	r3, r3, #1
 8002a24:	2b00      	cmp	r3, #0
 8002a26:	d021      	beq.n	8002a6c <EXTI0_IRQHandler+0x54>
 8002a28:	4b14      	ldr	r3, [pc, #80]	; (8002a7c <EXTI0_IRQHandler+0x64>)
 8002a2a:	781b      	ldrb	r3, [r3, #0]
 8002a2c:	b2db      	uxtb	r3, r3
 8002a2e:	2b01      	cmp	r3, #1
 8002a30:	d01c      	beq.n	8002a6c <EXTI0_IRQHandler+0x54>
 8002a32:	4b12      	ldr	r3, [pc, #72]	; (8002a7c <EXTI0_IRQHandler+0x64>)
 8002a34:	781b      	ldrb	r3, [r3, #0]
 8002a36:	b2db      	uxtb	r3, r3
 8002a38:	2b04      	cmp	r3, #4
 8002a3a:	d017      	beq.n	8002a6c <EXTI0_IRQHandler+0x54>
 8002a3c:	4b0f      	ldr	r3, [pc, #60]	; (8002a7c <EXTI0_IRQHandler+0x64>)
 8002a3e:	781b      	ldrb	r3, [r3, #0]
 8002a40:	b2db      	uxtb	r3, r3
 8002a42:	2b05      	cmp	r3, #5
 8002a44:	d012      	beq.n	8002a6c <EXTI0_IRQHandler+0x54>
 8002a46:	480e      	ldr	r0, [pc, #56]	; (8002a80 <EXTI0_IRQHandler+0x68>)
 8002a48:	f004 fca8 	bl	800739c <puts>
 8002a4c:	4b0d      	ldr	r3, [pc, #52]	; (8002a84 <EXTI0_IRQHandler+0x6c>)
 8002a4e:	2200      	movs	r2, #0
 8002a50:	701a      	strb	r2, [r3, #0]
 8002a52:	4b0a      	ldr	r3, [pc, #40]	; (8002a7c <EXTI0_IRQHandler+0x64>)
 8002a54:	2202      	movs	r2, #2
 8002a56:	701a      	strb	r2, [r3, #0]
 8002a58:	4a0b      	ldr	r2, [pc, #44]	; (8002a88 <EXTI0_IRQHandler+0x70>)
 8002a5a:	7813      	ldrb	r3, [r2, #0]
 8002a5c:	f043 0301 	orr.w	r3, r3, #1
 8002a60:	7013      	strb	r3, [r2, #0]
 8002a62:	4a09      	ldr	r2, [pc, #36]	; (8002a88 <EXTI0_IRQHandler+0x70>)
 8002a64:	7813      	ldrb	r3, [r2, #0]
 8002a66:	f043 0302 	orr.w	r3, r3, #2
 8002a6a:	7013      	strb	r3, [r2, #0]
 8002a6c:	2001      	movs	r0, #1
 8002a6e:	f7fe fac7 	bl	8001000 <EXTI_ClearITPendingBit>
 8002a72:	bf00      	nop
 8002a74:	bd80      	pop	{r7, pc}
 8002a76:	bf00      	nop
 8002a78:	40020400 	.word	0x40020400
 8002a7c:	200002ad 	.word	0x200002ad
 8002a80:	08007490 	.word	0x08007490
 8002a84:	200002af 	.word	0x200002af
 8002a88:	200002e0 	.word	0x200002e0

08002a8c <InitStart_1_SignalTimer>:
 8002a8c:	b580      	push	{r7, lr}
 8002a8e:	af00      	add	r7, sp, #0
 8002a90:	2101      	movs	r1, #1
 8002a92:	2002      	movs	r0, #2
 8002a94:	f7fe fb7e 	bl	8001194 <RCC_APB1PeriphClockCmd>
 8002a98:	4b0c      	ldr	r3, [pc, #48]	; (8002acc <InitStart_1_SignalTimer+0x40>)
 8002a9a:	f642 1204 	movw	r2, #10500	; 0x2904
 8002a9e:	851a      	strh	r2, [r3, #40]	; 0x28
 8002aa0:	4b0a      	ldr	r3, [pc, #40]	; (8002acc <InitStart_1_SignalTimer+0x40>)
 8002aa2:	2201      	movs	r2, #1
 8002aa4:	62da      	str	r2, [r3, #44]	; 0x2c
 8002aa6:	4b09      	ldr	r3, [pc, #36]	; (8002acc <InitStart_1_SignalTimer+0x40>)
 8002aa8:	2200      	movs	r2, #0
 8002aaa:	625a      	str	r2, [r3, #36]	; 0x24
 8002aac:	4b07      	ldr	r3, [pc, #28]	; (8002acc <InitStart_1_SignalTimer+0x40>)
 8002aae:	2201      	movs	r2, #1
 8002ab0:	819a      	strh	r2, [r3, #12]
 8002ab2:	4b06      	ldr	r3, [pc, #24]	; (8002acc <InitStart_1_SignalTimer+0x40>)
 8002ab4:	881b      	ldrh	r3, [r3, #0]
 8002ab6:	b29b      	uxth	r3, r3
 8002ab8:	4a04      	ldr	r2, [pc, #16]	; (8002acc <InitStart_1_SignalTimer+0x40>)
 8002aba:	f043 0301 	orr.w	r3, r3, #1
 8002abe:	b29b      	uxth	r3, r3
 8002ac0:	8013      	strh	r3, [r2, #0]
 8002ac2:	201d      	movs	r0, #29
 8002ac4:	f7ff fac6 	bl	8002054 <NVIC_EnableIRQ>
 8002ac8:	bf00      	nop
 8002aca:	bd80      	pop	{r7, pc}
 8002acc:	40000400 	.word	0x40000400

08002ad0 <InitStart_2_SignalTimer>:
 8002ad0:	b580      	push	{r7, lr}
 8002ad2:	af00      	add	r7, sp, #0
 8002ad4:	2101      	movs	r1, #1
 8002ad6:	2020      	movs	r0, #32
 8002ad8:	f7fe fb5c 	bl	8001194 <RCC_APB1PeriphClockCmd>
 8002adc:	4b0c      	ldr	r3, [pc, #48]	; (8002b10 <InitStart_2_SignalTimer+0x40>)
 8002ade:	f642 1204 	movw	r2, #10500	; 0x2904
 8002ae2:	851a      	strh	r2, [r3, #40]	; 0x28
 8002ae4:	4b0a      	ldr	r3, [pc, #40]	; (8002b10 <InitStart_2_SignalTimer+0x40>)
 8002ae6:	2201      	movs	r2, #1
 8002ae8:	62da      	str	r2, [r3, #44]	; 0x2c
 8002aea:	4b09      	ldr	r3, [pc, #36]	; (8002b10 <InitStart_2_SignalTimer+0x40>)
 8002aec:	2200      	movs	r2, #0
 8002aee:	625a      	str	r2, [r3, #36]	; 0x24
 8002af0:	4b07      	ldr	r3, [pc, #28]	; (8002b10 <InitStart_2_SignalTimer+0x40>)
 8002af2:	2201      	movs	r2, #1
 8002af4:	819a      	strh	r2, [r3, #12]
 8002af6:	4b06      	ldr	r3, [pc, #24]	; (8002b10 <InitStart_2_SignalTimer+0x40>)
 8002af8:	881b      	ldrh	r3, [r3, #0]
 8002afa:	b29b      	uxth	r3, r3
 8002afc:	4a04      	ldr	r2, [pc, #16]	; (8002b10 <InitStart_2_SignalTimer+0x40>)
 8002afe:	f043 0301 	orr.w	r3, r3, #1
 8002b02:	b29b      	uxth	r3, r3
 8002b04:	8013      	strh	r3, [r2, #0]
 8002b06:	2037      	movs	r0, #55	; 0x37
 8002b08:	f7ff faa4 	bl	8002054 <NVIC_EnableIRQ>
 8002b0c:	bf00      	nop
 8002b0e:	bd80      	pop	{r7, pc}
 8002b10:	40001400 	.word	0x40001400

08002b14 <InitClear_Timer>:
 8002b14:	b580      	push	{r7, lr}
 8002b16:	af00      	add	r7, sp, #0
 8002b18:	2101      	movs	r1, #1
 8002b1a:	2010      	movs	r0, #16
 8002b1c:	f7fe fb3a 	bl	8001194 <RCC_APB1PeriphClockCmd>
 8002b20:	4b0f      	ldr	r3, [pc, #60]	; (8002b60 <InitClear_Timer+0x4c>)
 8002b22:	f245 2208 	movw	r2, #21000	; 0x5208
 8002b26:	851a      	strh	r2, [r3, #40]	; 0x28
 8002b28:	4b0d      	ldr	r3, [pc, #52]	; (8002b60 <InitClear_Timer+0x4c>)
 8002b2a:	22c8      	movs	r2, #200	; 0xc8
 8002b2c:	62da      	str	r2, [r3, #44]	; 0x2c
 8002b2e:	4b0c      	ldr	r3, [pc, #48]	; (8002b60 <InitClear_Timer+0x4c>)
 8002b30:	2200      	movs	r2, #0
 8002b32:	625a      	str	r2, [r3, #36]	; 0x24
 8002b34:	4b0a      	ldr	r3, [pc, #40]	; (8002b60 <InitClear_Timer+0x4c>)
 8002b36:	2201      	movs	r2, #1
 8002b38:	819a      	strh	r2, [r3, #12]
 8002b3a:	4b09      	ldr	r3, [pc, #36]	; (8002b60 <InitClear_Timer+0x4c>)
 8002b3c:	881b      	ldrh	r3, [r3, #0]
 8002b3e:	b29b      	uxth	r3, r3
 8002b40:	4a07      	ldr	r2, [pc, #28]	; (8002b60 <InitClear_Timer+0x4c>)
 8002b42:	f043 0301 	orr.w	r3, r3, #1
 8002b46:	b29b      	uxth	r3, r3
 8002b48:	8013      	strh	r3, [r2, #0]
 8002b4a:	2036      	movs	r0, #54	; 0x36
 8002b4c:	f7ff fa82 	bl	8002054 <NVIC_EnableIRQ>
 8002b50:	2201      	movs	r2, #1
 8002b52:	2101      	movs	r1, #1
 8002b54:	4802      	ldr	r0, [pc, #8]	; (8002b60 <InitClear_Timer+0x4c>)
 8002b56:	f7fe fc79 	bl	800144c <TIM_ITConfig>
 8002b5a:	bf00      	nop
 8002b5c:	bd80      	pop	{r7, pc}
 8002b5e:	bf00      	nop
 8002b60:	40001000 	.word	0x40001000

08002b64 <EXTI1_IRQHandler>:
 8002b64:	b580      	push	{r7, lr}
 8002b66:	af00      	add	r7, sp, #0
 8002b68:	4b14      	ldr	r3, [pc, #80]	; (8002bbc <EXTI1_IRQHandler+0x58>)
 8002b6a:	691b      	ldr	r3, [r3, #16]
 8002b6c:	f003 0302 	and.w	r3, r3, #2
 8002b70:	2b00      	cmp	r3, #0
 8002b72:	d11e      	bne.n	8002bb2 <EXTI1_IRQHandler+0x4e>
 8002b74:	4b12      	ldr	r3, [pc, #72]	; (8002bc0 <EXTI1_IRQHandler+0x5c>)
 8002b76:	781b      	ldrb	r3, [r3, #0]
 8002b78:	b2db      	uxtb	r3, r3
 8002b7a:	2b01      	cmp	r3, #1
 8002b7c:	d019      	beq.n	8002bb2 <EXTI1_IRQHandler+0x4e>
 8002b7e:	4b10      	ldr	r3, [pc, #64]	; (8002bc0 <EXTI1_IRQHandler+0x5c>)
 8002b80:	781b      	ldrb	r3, [r3, #0]
 8002b82:	b2db      	uxtb	r3, r3
 8002b84:	2b04      	cmp	r3, #4
 8002b86:	d014      	beq.n	8002bb2 <EXTI1_IRQHandler+0x4e>
 8002b88:	4b0d      	ldr	r3, [pc, #52]	; (8002bc0 <EXTI1_IRQHandler+0x5c>)
 8002b8a:	781b      	ldrb	r3, [r3, #0]
 8002b8c:	b2db      	uxtb	r3, r3
 8002b8e:	2b05      	cmp	r3, #5
 8002b90:	d00f      	beq.n	8002bb2 <EXTI1_IRQHandler+0x4e>
 8002b92:	4b0c      	ldr	r3, [pc, #48]	; (8002bc4 <EXTI1_IRQHandler+0x60>)
 8002b94:	2200      	movs	r2, #0
 8002b96:	701a      	strb	r2, [r3, #0]
 8002b98:	4b09      	ldr	r3, [pc, #36]	; (8002bc0 <EXTI1_IRQHandler+0x5c>)
 8002b9a:	2202      	movs	r2, #2
 8002b9c:	701a      	strb	r2, [r3, #0]
 8002b9e:	4a0a      	ldr	r2, [pc, #40]	; (8002bc8 <EXTI1_IRQHandler+0x64>)
 8002ba0:	7813      	ldrb	r3, [r2, #0]
 8002ba2:	f043 0301 	orr.w	r3, r3, #1
 8002ba6:	7013      	strb	r3, [r2, #0]
 8002ba8:	4a07      	ldr	r2, [pc, #28]	; (8002bc8 <EXTI1_IRQHandler+0x64>)
 8002baa:	7813      	ldrb	r3, [r2, #0]
 8002bac:	f043 0302 	orr.w	r3, r3, #2
 8002bb0:	7013      	strb	r3, [r2, #0]
 8002bb2:	2002      	movs	r0, #2
 8002bb4:	f7fe fa24 	bl	8001000 <EXTI_ClearITPendingBit>
 8002bb8:	bf00      	nop
 8002bba:	bd80      	pop	{r7, pc}
 8002bbc:	40020400 	.word	0x40020400
 8002bc0:	200002ae 	.word	0x200002ae
 8002bc4:	200002b0 	.word	0x200002b0
 8002bc8:	200002e0 	.word	0x200002e0

08002bcc <EXTI9_5_IRQHandler>:
 8002bcc:	b580      	push	{r7, lr}
 8002bce:	af00      	add	r7, sp, #0
 8002bd0:	4b2d      	ldr	r3, [pc, #180]	; (8002c88 <EXTI9_5_IRQHandler+0xbc>)
 8002bd2:	695b      	ldr	r3, [r3, #20]
 8002bd4:	f403 7380 	and.w	r3, r3, #256	; 0x100
 8002bd8:	2b00      	cmp	r3, #0
 8002bda:	f000 8103 	beq.w	8002de4 <EXTI9_5_IRQHandler+0x218>
 8002bde:	4b2b      	ldr	r3, [pc, #172]	; (8002c8c <EXTI9_5_IRQHandler+0xc0>)
 8002be0:	691b      	ldr	r3, [r3, #16]
 8002be2:	f003 0301 	and.w	r3, r3, #1
 8002be6:	2b00      	cmp	r3, #0
 8002be8:	d05c      	beq.n	8002ca4 <EXTI9_5_IRQHandler+0xd8>
 8002bea:	4b27      	ldr	r3, [pc, #156]	; (8002c88 <EXTI9_5_IRQHandler+0xbc>)
 8002bec:	695b      	ldr	r3, [r3, #20]
 8002bee:	f403 7380 	and.w	r3, r3, #256	; 0x100
 8002bf2:	2b00      	cmp	r3, #0
 8002bf4:	d056      	beq.n	8002ca4 <EXTI9_5_IRQHandler+0xd8>
 8002bf6:	4b26      	ldr	r3, [pc, #152]	; (8002c90 <EXTI9_5_IRQHandler+0xc4>)
 8002bf8:	2206      	movs	r2, #6
 8002bfa:	701a      	strb	r2, [r3, #0]
 8002bfc:	4b25      	ldr	r3, [pc, #148]	; (8002c94 <EXTI9_5_IRQHandler+0xc8>)
 8002bfe:	781b      	ldrb	r3, [r3, #0]
 8002c00:	b2db      	uxtb	r3, r3
 8002c02:	4619      	mov	r1, r3
 8002c04:	2000      	movs	r0, #0
 8002c06:	f000 fe8d 	bl	8003924 <GetNextStep>
 8002c0a:	4603      	mov	r3, r0
 8002c0c:	461a      	mov	r2, r3
 8002c0e:	4b21      	ldr	r3, [pc, #132]	; (8002c94 <EXTI9_5_IRQHandler+0xc8>)
 8002c10:	701a      	strb	r2, [r3, #0]
 8002c12:	4a21      	ldr	r2, [pc, #132]	; (8002c98 <EXTI9_5_IRQHandler+0xcc>)
 8002c14:	7813      	ldrb	r3, [r2, #0]
 8002c16:	f043 0301 	orr.w	r3, r3, #1
 8002c1a:	7013      	strb	r3, [r2, #0]
 8002c1c:	4a1e      	ldr	r2, [pc, #120]	; (8002c98 <EXTI9_5_IRQHandler+0xcc>)
 8002c1e:	7813      	ldrb	r3, [r2, #0]
 8002c20:	f043 0302 	orr.w	r3, r3, #2
 8002c24:	7013      	strb	r3, [r2, #0]
 8002c26:	f44f 7100 	mov.w	r1, #512	; 0x200
 8002c2a:	4818      	ldr	r0, [pc, #96]	; (8002c8c <EXTI9_5_IRQHandler+0xc0>)
 8002c2c:	f7fe fa4d 	bl	80010ca <GPIO_ResetBits>
 8002c30:	4b18      	ldr	r3, [pc, #96]	; (8002c94 <EXTI9_5_IRQHandler+0xc8>)
 8002c32:	781b      	ldrb	r3, [r3, #0]
 8002c34:	b2db      	uxtb	r3, r3
 8002c36:	4a19      	ldr	r2, [pc, #100]	; (8002c9c <EXTI9_5_IRQHandler+0xd0>)
 8002c38:	00db      	lsls	r3, r3, #3
 8002c3a:	4413      	add	r3, r2
 8002c3c:	685b      	ldr	r3, [r3, #4]
 8002c3e:	f3c3 23c0 	ubfx	r3, r3, #11, #1
 8002c42:	b2db      	uxtb	r3, r3
 8002c44:	2b00      	cmp	r3, #0
 8002c46:	d004      	beq.n	8002c52 <EXTI9_5_IRQHandler+0x86>
 8002c48:	f44f 6100 	mov.w	r1, #2048	; 0x800
 8002c4c:	480f      	ldr	r0, [pc, #60]	; (8002c8c <EXTI9_5_IRQHandler+0xc0>)
 8002c4e:	f7fe fa3c 	bl	80010ca <GPIO_ResetBits>
 8002c52:	4b10      	ldr	r3, [pc, #64]	; (8002c94 <EXTI9_5_IRQHandler+0xc8>)
 8002c54:	781b      	ldrb	r3, [r3, #0]
 8002c56:	b2db      	uxtb	r3, r3
 8002c58:	4a10      	ldr	r2, [pc, #64]	; (8002c9c <EXTI9_5_IRQHandler+0xd0>)
 8002c5a:	00db      	lsls	r3, r3, #3
 8002c5c:	4413      	add	r3, r2
 8002c5e:	685b      	ldr	r3, [r3, #4]
 8002c60:	f3c3 3300 	ubfx	r3, r3, #12, #1
 8002c64:	b2db      	uxtb	r3, r3
 8002c66:	2b00      	cmp	r3, #0
 8002c68:	d004      	beq.n	8002c74 <EXTI9_5_IRQHandler+0xa8>
 8002c6a:	f44f 6180 	mov.w	r1, #1024	; 0x400
 8002c6e:	4807      	ldr	r0, [pc, #28]	; (8002c8c <EXTI9_5_IRQHandler+0xc0>)
 8002c70:	f7fe fa2b 	bl	80010ca <GPIO_ResetBits>
 8002c74:	2101      	movs	r1, #1
 8002c76:	480a      	ldr	r0, [pc, #40]	; (8002ca0 <EXTI9_5_IRQHandler+0xd4>)
 8002c78:	f7fe fbcd 	bl	8001416 <TIM_Cmd>
 8002c7c:	2100      	movs	r1, #0
 8002c7e:	4808      	ldr	r0, [pc, #32]	; (8002ca0 <EXTI9_5_IRQHandler+0xd4>)
 8002c80:	f7fe fbbc 	bl	80013fc <TIM_SetCounter>
 8002c84:	e05f      	b.n	8002d46 <EXTI9_5_IRQHandler+0x17a>
 8002c86:	bf00      	nop
 8002c88:	40013c00 	.word	0x40013c00
 8002c8c:	40020400 	.word	0x40020400
 8002c90:	200002ad 	.word	0x200002ad
 8002c94:	20000297 	.word	0x20000297
 8002c98:	200002e0 	.word	0x200002e0
 8002c9c:	20000948 	.word	0x20000948
 8002ca0:	40002000 	.word	0x40002000
 8002ca4:	4bb6      	ldr	r3, [pc, #728]	; (8002f80 <EXTI9_5_IRQHandler+0x3b4>)
 8002ca6:	781b      	ldrb	r3, [r3, #0]
 8002ca8:	b2db      	uxtb	r3, r3
 8002caa:	2b05      	cmp	r3, #5
 8002cac:	d04b      	beq.n	8002d46 <EXTI9_5_IRQHandler+0x17a>
 8002cae:	4bb4      	ldr	r3, [pc, #720]	; (8002f80 <EXTI9_5_IRQHandler+0x3b4>)
 8002cb0:	781b      	ldrb	r3, [r3, #0]
 8002cb2:	b2db      	uxtb	r3, r3
 8002cb4:	2b04      	cmp	r3, #4
 8002cb6:	d046      	beq.n	8002d46 <EXTI9_5_IRQHandler+0x17a>
 8002cb8:	4bb1      	ldr	r3, [pc, #708]	; (8002f80 <EXTI9_5_IRQHandler+0x3b4>)
 8002cba:	781b      	ldrb	r3, [r3, #0]
 8002cbc:	b2db      	uxtb	r3, r3
 8002cbe:	2b01      	cmp	r3, #1
 8002cc0:	d041      	beq.n	8002d46 <EXTI9_5_IRQHandler+0x17a>
 8002cc2:	4baf      	ldr	r3, [pc, #700]	; (8002f80 <EXTI9_5_IRQHandler+0x3b4>)
 8002cc4:	781b      	ldrb	r3, [r3, #0]
 8002cc6:	b2db      	uxtb	r3, r3
 8002cc8:	2b00      	cmp	r3, #0
 8002cca:	d03c      	beq.n	8002d46 <EXTI9_5_IRQHandler+0x17a>
 8002ccc:	4bac      	ldr	r3, [pc, #688]	; (8002f80 <EXTI9_5_IRQHandler+0x3b4>)
 8002cce:	2200      	movs	r2, #0
 8002cd0:	701a      	strb	r2, [r3, #0]
 8002cd2:	4bac      	ldr	r3, [pc, #688]	; (8002f84 <EXTI9_5_IRQHandler+0x3b8>)
 8002cd4:	781b      	ldrb	r3, [r3, #0]
 8002cd6:	b2db      	uxtb	r3, r3
 8002cd8:	4619      	mov	r1, r3
 8002cda:	2000      	movs	r0, #0
 8002cdc:	f000 fe22 	bl	8003924 <GetNextStep>
 8002ce0:	4603      	mov	r3, r0
 8002ce2:	461a      	mov	r2, r3
 8002ce4:	4ba7      	ldr	r3, [pc, #668]	; (8002f84 <EXTI9_5_IRQHandler+0x3b8>)
 8002ce6:	701a      	strb	r2, [r3, #0]
 8002ce8:	f44f 7100 	mov.w	r1, #512	; 0x200
 8002cec:	48a6      	ldr	r0, [pc, #664]	; (8002f88 <EXTI9_5_IRQHandler+0x3bc>)
 8002cee:	f7fe f9ec 	bl	80010ca <GPIO_ResetBits>
 8002cf2:	4ba4      	ldr	r3, [pc, #656]	; (8002f84 <EXTI9_5_IRQHandler+0x3b8>)
 8002cf4:	781b      	ldrb	r3, [r3, #0]
 8002cf6:	b2db      	uxtb	r3, r3
 8002cf8:	4aa4      	ldr	r2, [pc, #656]	; (8002f8c <EXTI9_5_IRQHandler+0x3c0>)
 8002cfa:	00db      	lsls	r3, r3, #3
 8002cfc:	4413      	add	r3, r2
 8002cfe:	685b      	ldr	r3, [r3, #4]
 8002d00:	f3c3 23c0 	ubfx	r3, r3, #11, #1
 8002d04:	b2db      	uxtb	r3, r3
 8002d06:	2b00      	cmp	r3, #0
 8002d08:	d004      	beq.n	8002d14 <EXTI9_5_IRQHandler+0x148>
 8002d0a:	f44f 6100 	mov.w	r1, #2048	; 0x800
 8002d0e:	489e      	ldr	r0, [pc, #632]	; (8002f88 <EXTI9_5_IRQHandler+0x3bc>)
 8002d10:	f7fe f9db 	bl	80010ca <GPIO_ResetBits>
 8002d14:	4b9b      	ldr	r3, [pc, #620]	; (8002f84 <EXTI9_5_IRQHandler+0x3b8>)
 8002d16:	781b      	ldrb	r3, [r3, #0]
 8002d18:	b2db      	uxtb	r3, r3
 8002d1a:	4a9c      	ldr	r2, [pc, #624]	; (8002f8c <EXTI9_5_IRQHandler+0x3c0>)
 8002d1c:	00db      	lsls	r3, r3, #3
 8002d1e:	4413      	add	r3, r2
 8002d20:	685b      	ldr	r3, [r3, #4]
 8002d22:	f3c3 3300 	ubfx	r3, r3, #12, #1
 8002d26:	b2db      	uxtb	r3, r3
 8002d28:	2b00      	cmp	r3, #0
 8002d2a:	d004      	beq.n	8002d36 <EXTI9_5_IRQHandler+0x16a>
 8002d2c:	f44f 6180 	mov.w	r1, #1024	; 0x400
 8002d30:	4895      	ldr	r0, [pc, #596]	; (8002f88 <EXTI9_5_IRQHandler+0x3bc>)
 8002d32:	f7fe f9ca 	bl	80010ca <GPIO_ResetBits>
 8002d36:	2101      	movs	r1, #1
 8002d38:	4895      	ldr	r0, [pc, #596]	; (8002f90 <EXTI9_5_IRQHandler+0x3c4>)
 8002d3a:	f7fe fb6c 	bl	8001416 <TIM_Cmd>
 8002d3e:	2100      	movs	r1, #0
 8002d40:	4893      	ldr	r0, [pc, #588]	; (8002f90 <EXTI9_5_IRQHandler+0x3c4>)
 8002d42:	f7fe fb5b 	bl	80013fc <TIM_SetCounter>
 8002d46:	4b8e      	ldr	r3, [pc, #568]	; (8002f80 <EXTI9_5_IRQHandler+0x3b4>)
 8002d48:	781b      	ldrb	r3, [r3, #0]
 8002d4a:	b2db      	uxtb	r3, r3
 8002d4c:	2b04      	cmp	r3, #4
 8002d4e:	d13e      	bne.n	8002dce <EXTI9_5_IRQHandler+0x202>
 8002d50:	f7ff fe9c 	bl	8002a8c <InitStart_1_SignalTimer>
 8002d54:	4b8a      	ldr	r3, [pc, #552]	; (8002f80 <EXTI9_5_IRQHandler+0x3b4>)
 8002d56:	2200      	movs	r2, #0
 8002d58:	701a      	strb	r2, [r3, #0]
 8002d5a:	4b8a      	ldr	r3, [pc, #552]	; (8002f84 <EXTI9_5_IRQHandler+0x3b8>)
 8002d5c:	781b      	ldrb	r3, [r3, #0]
 8002d5e:	b2db      	uxtb	r3, r3
 8002d60:	4619      	mov	r1, r3
 8002d62:	2000      	movs	r0, #0
 8002d64:	f000 fdde 	bl	8003924 <GetNextStep>
 8002d68:	4603      	mov	r3, r0
 8002d6a:	461a      	mov	r2, r3
 8002d6c:	4b85      	ldr	r3, [pc, #532]	; (8002f84 <EXTI9_5_IRQHandler+0x3b8>)
 8002d6e:	701a      	strb	r2, [r3, #0]
 8002d70:	f44f 7100 	mov.w	r1, #512	; 0x200
 8002d74:	4884      	ldr	r0, [pc, #528]	; (8002f88 <EXTI9_5_IRQHandler+0x3bc>)
 8002d76:	f7fe f9a8 	bl	80010ca <GPIO_ResetBits>
 8002d7a:	4b82      	ldr	r3, [pc, #520]	; (8002f84 <EXTI9_5_IRQHandler+0x3b8>)
 8002d7c:	781b      	ldrb	r3, [r3, #0]
 8002d7e:	b2db      	uxtb	r3, r3
 8002d80:	4a82      	ldr	r2, [pc, #520]	; (8002f8c <EXTI9_5_IRQHandler+0x3c0>)
 8002d82:	00db      	lsls	r3, r3, #3
 8002d84:	4413      	add	r3, r2
 8002d86:	685b      	ldr	r3, [r3, #4]
 8002d88:	f3c3 23c0 	ubfx	r3, r3, #11, #1
 8002d8c:	b2db      	uxtb	r3, r3
 8002d8e:	2b00      	cmp	r3, #0
 8002d90:	d004      	beq.n	8002d9c <EXTI9_5_IRQHandler+0x1d0>
 8002d92:	f44f 6100 	mov.w	r1, #2048	; 0x800
 8002d96:	487c      	ldr	r0, [pc, #496]	; (8002f88 <EXTI9_5_IRQHandler+0x3bc>)
 8002d98:	f7fe f997 	bl	80010ca <GPIO_ResetBits>
 8002d9c:	4b79      	ldr	r3, [pc, #484]	; (8002f84 <EXTI9_5_IRQHandler+0x3b8>)
 8002d9e:	781b      	ldrb	r3, [r3, #0]
 8002da0:	b2db      	uxtb	r3, r3
 8002da2:	4a7a      	ldr	r2, [pc, #488]	; (8002f8c <EXTI9_5_IRQHandler+0x3c0>)
 8002da4:	00db      	lsls	r3, r3, #3
 8002da6:	4413      	add	r3, r2
 8002da8:	685b      	ldr	r3, [r3, #4]
 8002daa:	f3c3 3300 	ubfx	r3, r3, #12, #1
 8002dae:	b2db      	uxtb	r3, r3
 8002db0:	2b00      	cmp	r3, #0
 8002db2:	d004      	beq.n	8002dbe <EXTI9_5_IRQHandler+0x1f2>
 8002db4:	f44f 6180 	mov.w	r1, #1024	; 0x400
 8002db8:	4873      	ldr	r0, [pc, #460]	; (8002f88 <EXTI9_5_IRQHandler+0x3bc>)
 8002dba:	f7fe f986 	bl	80010ca <GPIO_ResetBits>
 8002dbe:	2101      	movs	r1, #1
 8002dc0:	4873      	ldr	r0, [pc, #460]	; (8002f90 <EXTI9_5_IRQHandler+0x3c4>)
 8002dc2:	f7fe fb28 	bl	8001416 <TIM_Cmd>
 8002dc6:	2100      	movs	r1, #0
 8002dc8:	4871      	ldr	r0, [pc, #452]	; (8002f90 <EXTI9_5_IRQHandler+0x3c4>)
 8002dca:	f7fe fb17 	bl	80013fc <TIM_SetCounter>
 8002dce:	4b6c      	ldr	r3, [pc, #432]	; (8002f80 <EXTI9_5_IRQHandler+0x3b4>)
 8002dd0:	781b      	ldrb	r3, [r3, #0]
 8002dd2:	b2db      	uxtb	r3, r3
 8002dd4:	2b05      	cmp	r3, #5
 8002dd6:	d101      	bne.n	8002ddc <EXTI9_5_IRQHandler+0x210>
 8002dd8:	f7ff fe58 	bl	8002a8c <InitStart_1_SignalTimer>
 8002ddc:	f44f 7080 	mov.w	r0, #256	; 0x100
 8002de0:	f7fe f90e 	bl	8001000 <EXTI_ClearITPendingBit>
 8002de4:	4b6b      	ldr	r3, [pc, #428]	; (8002f94 <EXTI9_5_IRQHandler+0x3c8>)
 8002de6:	695b      	ldr	r3, [r3, #20]
 8002de8:	f003 0340 	and.w	r3, r3, #64	; 0x40
 8002dec:	2b00      	cmp	r3, #0
 8002dee:	f000 80a2 	beq.w	8002f36 <EXTI9_5_IRQHandler+0x36a>
 8002df2:	4b69      	ldr	r3, [pc, #420]	; (8002f98 <EXTI9_5_IRQHandler+0x3cc>)
 8002df4:	781b      	ldrb	r3, [r3, #0]
 8002df6:	b2db      	uxtb	r3, r3
 8002df8:	2b05      	cmp	r3, #5
 8002dfa:	d049      	beq.n	8002e90 <EXTI9_5_IRQHandler+0x2c4>
 8002dfc:	4b66      	ldr	r3, [pc, #408]	; (8002f98 <EXTI9_5_IRQHandler+0x3cc>)
 8002dfe:	781b      	ldrb	r3, [r3, #0]
 8002e00:	b2db      	uxtb	r3, r3
 8002e02:	2b04      	cmp	r3, #4
 8002e04:	d044      	beq.n	8002e90 <EXTI9_5_IRQHandler+0x2c4>
 8002e06:	4b64      	ldr	r3, [pc, #400]	; (8002f98 <EXTI9_5_IRQHandler+0x3cc>)
 8002e08:	781b      	ldrb	r3, [r3, #0]
 8002e0a:	b2db      	uxtb	r3, r3
 8002e0c:	2b01      	cmp	r3, #1
 8002e0e:	d03f      	beq.n	8002e90 <EXTI9_5_IRQHandler+0x2c4>
 8002e10:	4b61      	ldr	r3, [pc, #388]	; (8002f98 <EXTI9_5_IRQHandler+0x3cc>)
 8002e12:	781b      	ldrb	r3, [r3, #0]
 8002e14:	b2db      	uxtb	r3, r3
 8002e16:	2b00      	cmp	r3, #0
 8002e18:	d03a      	beq.n	8002e90 <EXTI9_5_IRQHandler+0x2c4>
 8002e1a:	4b5f      	ldr	r3, [pc, #380]	; (8002f98 <EXTI9_5_IRQHandler+0x3cc>)
 8002e1c:	2200      	movs	r2, #0
 8002e1e:	701a      	strb	r2, [r3, #0]
 8002e20:	4b5e      	ldr	r3, [pc, #376]	; (8002f9c <EXTI9_5_IRQHandler+0x3d0>)
 8002e22:	781b      	ldrb	r3, [r3, #0]
 8002e24:	b2db      	uxtb	r3, r3
 8002e26:	4619      	mov	r1, r3
 8002e28:	2001      	movs	r0, #1
 8002e2a:	f000 fd7b 	bl	8003924 <GetNextStep>
 8002e2e:	4603      	mov	r3, r0
 8002e30:	461a      	mov	r2, r3
 8002e32:	4b5a      	ldr	r3, [pc, #360]	; (8002f9c <EXTI9_5_IRQHandler+0x3d0>)
 8002e34:	701a      	strb	r2, [r3, #0]
 8002e36:	2104      	movs	r1, #4
 8002e38:	4859      	ldr	r0, [pc, #356]	; (8002fa0 <EXTI9_5_IRQHandler+0x3d4>)
 8002e3a:	f7fe f946 	bl	80010ca <GPIO_ResetBits>
 8002e3e:	4b57      	ldr	r3, [pc, #348]	; (8002f9c <EXTI9_5_IRQHandler+0x3d0>)
 8002e40:	781b      	ldrb	r3, [r3, #0]
 8002e42:	b2db      	uxtb	r3, r3
 8002e44:	4a51      	ldr	r2, [pc, #324]	; (8002f8c <EXTI9_5_IRQHandler+0x3c0>)
 8002e46:	00db      	lsls	r3, r3, #3
 8002e48:	4413      	add	r3, r2
 8002e4a:	685b      	ldr	r3, [r3, #4]
 8002e4c:	f3c3 23c0 	ubfx	r3, r3, #11, #1
 8002e50:	b2db      	uxtb	r3, r3
 8002e52:	2b00      	cmp	r3, #0
 8002e54:	d003      	beq.n	8002e5e <EXTI9_5_IRQHandler+0x292>
 8002e56:	2108      	movs	r1, #8
 8002e58:	4851      	ldr	r0, [pc, #324]	; (8002fa0 <EXTI9_5_IRQHandler+0x3d4>)
 8002e5a:	f7fe f936 	bl	80010ca <GPIO_ResetBits>
 8002e5e:	4b4f      	ldr	r3, [pc, #316]	; (8002f9c <EXTI9_5_IRQHandler+0x3d0>)
 8002e60:	781b      	ldrb	r3, [r3, #0]
 8002e62:	b2db      	uxtb	r3, r3
 8002e64:	4a49      	ldr	r2, [pc, #292]	; (8002f8c <EXTI9_5_IRQHandler+0x3c0>)
 8002e66:	00db      	lsls	r3, r3, #3
 8002e68:	4413      	add	r3, r2
 8002e6a:	685b      	ldr	r3, [r3, #4]
 8002e6c:	f3c3 3300 	ubfx	r3, r3, #12, #1
 8002e70:	b2db      	uxtb	r3, r3
 8002e72:	2b00      	cmp	r3, #0
 8002e74:	d004      	beq.n	8002e80 <EXTI9_5_IRQHandler+0x2b4>
 8002e76:	f44f 5180 	mov.w	r1, #4096	; 0x1000
 8002e7a:	4849      	ldr	r0, [pc, #292]	; (8002fa0 <EXTI9_5_IRQHandler+0x3d4>)
 8002e7c:	f7fe f925 	bl	80010ca <GPIO_ResetBits>
 8002e80:	2101      	movs	r1, #1
 8002e82:	4848      	ldr	r0, [pc, #288]	; (8002fa4 <EXTI9_5_IRQHandler+0x3d8>)
 8002e84:	f7fe fac7 	bl	8001416 <TIM_Cmd>
 8002e88:	2100      	movs	r1, #0
 8002e8a:	4846      	ldr	r0, [pc, #280]	; (8002fa4 <EXTI9_5_IRQHandler+0x3d8>)
 8002e8c:	f7fe fab6 	bl	80013fc <TIM_SetCounter>
 8002e90:	4b41      	ldr	r3, [pc, #260]	; (8002f98 <EXTI9_5_IRQHandler+0x3cc>)
 8002e92:	781b      	ldrb	r3, [r3, #0]
 8002e94:	b2db      	uxtb	r3, r3
 8002e96:	2b04      	cmp	r3, #4
 8002e98:	d13c      	bne.n	8002f14 <EXTI9_5_IRQHandler+0x348>
 8002e9a:	f7ff fe19 	bl	8002ad0 <InitStart_2_SignalTimer>
 8002e9e:	4b3e      	ldr	r3, [pc, #248]	; (8002f98 <EXTI9_5_IRQHandler+0x3cc>)
 8002ea0:	2200      	movs	r2, #0
 8002ea2:	701a      	strb	r2, [r3, #0]
 8002ea4:	4b3d      	ldr	r3, [pc, #244]	; (8002f9c <EXTI9_5_IRQHandler+0x3d0>)
 8002ea6:	781b      	ldrb	r3, [r3, #0]
 8002ea8:	b2db      	uxtb	r3, r3
 8002eaa:	4619      	mov	r1, r3
 8002eac:	2001      	movs	r0, #1
 8002eae:	f000 fd39 	bl	8003924 <GetNextStep>
 8002eb2:	4603      	mov	r3, r0
 8002eb4:	461a      	mov	r2, r3
 8002eb6:	4b39      	ldr	r3, [pc, #228]	; (8002f9c <EXTI9_5_IRQHandler+0x3d0>)
 8002eb8:	701a      	strb	r2, [r3, #0]
 8002eba:	2104      	movs	r1, #4
 8002ebc:	4838      	ldr	r0, [pc, #224]	; (8002fa0 <EXTI9_5_IRQHandler+0x3d4>)
 8002ebe:	f7fe f904 	bl	80010ca <GPIO_ResetBits>
 8002ec2:	4b36      	ldr	r3, [pc, #216]	; (8002f9c <EXTI9_5_IRQHandler+0x3d0>)
 8002ec4:	781b      	ldrb	r3, [r3, #0]
 8002ec6:	b2db      	uxtb	r3, r3
 8002ec8:	4a30      	ldr	r2, [pc, #192]	; (8002f8c <EXTI9_5_IRQHandler+0x3c0>)
 8002eca:	00db      	lsls	r3, r3, #3
 8002ecc:	4413      	add	r3, r2
 8002ece:	685b      	ldr	r3, [r3, #4]
 8002ed0:	f3c3 23c0 	ubfx	r3, r3, #11, #1
 8002ed4:	b2db      	uxtb	r3, r3
 8002ed6:	2b00      	cmp	r3, #0
 8002ed8:	d003      	beq.n	8002ee2 <EXTI9_5_IRQHandler+0x316>
 8002eda:	2108      	movs	r1, #8
 8002edc:	4830      	ldr	r0, [pc, #192]	; (8002fa0 <EXTI9_5_IRQHandler+0x3d4>)
 8002ede:	f7fe f8f4 	bl	80010ca <GPIO_ResetBits>
 8002ee2:	4b2e      	ldr	r3, [pc, #184]	; (8002f9c <EXTI9_5_IRQHandler+0x3d0>)
 8002ee4:	781b      	ldrb	r3, [r3, #0]
 8002ee6:	b2db      	uxtb	r3, r3
 8002ee8:	4a28      	ldr	r2, [pc, #160]	; (8002f8c <EXTI9_5_IRQHandler+0x3c0>)
 8002eea:	00db      	lsls	r3, r3, #3
 8002eec:	4413      	add	r3, r2
 8002eee:	685b      	ldr	r3, [r3, #4]
 8002ef0:	f3c3 3300 	ubfx	r3, r3, #12, #1
 8002ef4:	b2db      	uxtb	r3, r3
 8002ef6:	2b00      	cmp	r3, #0
 8002ef8:	d004      	beq.n	8002f04 <EXTI9_5_IRQHandler+0x338>
 8002efa:	f44f 5180 	mov.w	r1, #4096	; 0x1000
 8002efe:	4828      	ldr	r0, [pc, #160]	; (8002fa0 <EXTI9_5_IRQHandler+0x3d4>)
 8002f00:	f7fe f8e3 	bl	80010ca <GPIO_ResetBits>
 8002f04:	2101      	movs	r1, #1
 8002f06:	4827      	ldr	r0, [pc, #156]	; (8002fa4 <EXTI9_5_IRQHandler+0x3d8>)
 8002f08:	f7fe fa85 	bl	8001416 <TIM_Cmd>
 8002f0c:	2100      	movs	r1, #0
 8002f0e:	4825      	ldr	r0, [pc, #148]	; (8002fa4 <EXTI9_5_IRQHandler+0x3d8>)
 8002f10:	f7fe fa74 	bl	80013fc <TIM_SetCounter>
 8002f14:	4b20      	ldr	r3, [pc, #128]	; (8002f98 <EXTI9_5_IRQHandler+0x3cc>)
 8002f16:	781b      	ldrb	r3, [r3, #0]
 8002f18:	b2db      	uxtb	r3, r3
 8002f1a:	2b05      	cmp	r3, #5
 8002f1c:	d101      	bne.n	8002f22 <EXTI9_5_IRQHandler+0x356>
 8002f1e:	f7ff fdd7 	bl	8002ad0 <InitStart_2_SignalTimer>
 8002f22:	4b1d      	ldr	r3, [pc, #116]	; (8002f98 <EXTI9_5_IRQHandler+0x3cc>)
 8002f24:	781b      	ldrb	r3, [r3, #0]
 8002f26:	b2db      	uxtb	r3, r3
 8002f28:	2b05      	cmp	r3, #5
 8002f2a:	d101      	bne.n	8002f30 <EXTI9_5_IRQHandler+0x364>
 8002f2c:	f7ff fdae 	bl	8002a8c <InitStart_1_SignalTimer>
 8002f30:	2040      	movs	r0, #64	; 0x40
 8002f32:	f7fe f865 	bl	8001000 <EXTI_ClearITPendingBit>
 8002f36:	4b17      	ldr	r3, [pc, #92]	; (8002f94 <EXTI9_5_IRQHandler+0x3c8>)
 8002f38:	695b      	ldr	r3, [r3, #20]
 8002f3a:	f003 0320 	and.w	r3, r3, #32
 8002f3e:	2b00      	cmp	r3, #0
 8002f40:	d062      	beq.n	8003008 <EXTI9_5_IRQHandler+0x43c>
 8002f42:	4b19      	ldr	r3, [pc, #100]	; (8002fa8 <EXTI9_5_IRQHandler+0x3dc>)
 8002f44:	781b      	ldrb	r3, [r3, #0]
 8002f46:	b2db      	uxtb	r3, r3
 8002f48:	3b01      	subs	r3, #1
 8002f4a:	b2da      	uxtb	r2, r3
 8002f4c:	4b0d      	ldr	r3, [pc, #52]	; (8002f84 <EXTI9_5_IRQHandler+0x3b8>)
 8002f4e:	701a      	strb	r2, [r3, #0]
 8002f50:	4b16      	ldr	r3, [pc, #88]	; (8002fac <EXTI9_5_IRQHandler+0x3e0>)
 8002f52:	781b      	ldrb	r3, [r3, #0]
 8002f54:	b2db      	uxtb	r3, r3
 8002f56:	2b00      	cmp	r3, #0
 8002f58:	d109      	bne.n	8002f6e <EXTI9_5_IRQHandler+0x3a2>
 8002f5a:	4a15      	ldr	r2, [pc, #84]	; (8002fb0 <EXTI9_5_IRQHandler+0x3e4>)
 8002f5c:	7813      	ldrb	r3, [r2, #0]
 8002f5e:	f043 0301 	orr.w	r3, r3, #1
 8002f62:	7013      	strb	r3, [r2, #0]
 8002f64:	4a12      	ldr	r2, [pc, #72]	; (8002fb0 <EXTI9_5_IRQHandler+0x3e4>)
 8002f66:	7813      	ldrb	r3, [r2, #0]
 8002f68:	f043 0302 	orr.w	r3, r3, #2
 8002f6c:	7013      	strb	r3, [r2, #0]
 8002f6e:	f44f 7100 	mov.w	r1, #512	; 0x200
 8002f72:	4805      	ldr	r0, [pc, #20]	; (8002f88 <EXTI9_5_IRQHandler+0x3bc>)
 8002f74:	f7fe f8a9 	bl	80010ca <GPIO_ResetBits>
 8002f78:	4b02      	ldr	r3, [pc, #8]	; (8002f84 <EXTI9_5_IRQHandler+0x3b8>)
 8002f7a:	781b      	ldrb	r3, [r3, #0]
 8002f7c:	b2db      	uxtb	r3, r3
 8002f7e:	e019      	b.n	8002fb4 <EXTI9_5_IRQHandler+0x3e8>
 8002f80:	200002ad 	.word	0x200002ad
 8002f84:	20000297 	.word	0x20000297
 8002f88:	40020400 	.word	0x40020400
 8002f8c:	20000948 	.word	0x20000948
 8002f90:	40002000 	.word	0x40002000
 8002f94:	40013c00 	.word	0x40013c00
 8002f98:	200002ae 	.word	0x200002ae
 8002f9c:	20000298 	.word	0x20000298
 8002fa0:	40020000 	.word	0x40020000
 8002fa4:	40010400 	.word	0x40010400
 8002fa8:	20000270 	.word	0x20000270
 8002fac:	20000296 	.word	0x20000296
 8002fb0:	200002e0 	.word	0x200002e0
 8002fb4:	4a41      	ldr	r2, [pc, #260]	; (80030bc <EXTI9_5_IRQHandler+0x4f0>)
 8002fb6:	00db      	lsls	r3, r3, #3
 8002fb8:	4413      	add	r3, r2
 8002fba:	685b      	ldr	r3, [r3, #4]
 8002fbc:	f3c3 23c0 	ubfx	r3, r3, #11, #1
 8002fc0:	b2db      	uxtb	r3, r3
 8002fc2:	2b00      	cmp	r3, #0
 8002fc4:	d004      	beq.n	8002fd0 <EXTI9_5_IRQHandler+0x404>
 8002fc6:	f44f 6100 	mov.w	r1, #2048	; 0x800
 8002fca:	483d      	ldr	r0, [pc, #244]	; (80030c0 <EXTI9_5_IRQHandler+0x4f4>)
 8002fcc:	f7fe f87d 	bl	80010ca <GPIO_ResetBits>
 8002fd0:	4b3c      	ldr	r3, [pc, #240]	; (80030c4 <EXTI9_5_IRQHandler+0x4f8>)
 8002fd2:	781b      	ldrb	r3, [r3, #0]
 8002fd4:	b2db      	uxtb	r3, r3
 8002fd6:	4a39      	ldr	r2, [pc, #228]	; (80030bc <EXTI9_5_IRQHandler+0x4f0>)
 8002fd8:	00db      	lsls	r3, r3, #3
 8002fda:	4413      	add	r3, r2
 8002fdc:	685b      	ldr	r3, [r3, #4]
 8002fde:	f3c3 3300 	ubfx	r3, r3, #12, #1
 8002fe2:	b2db      	uxtb	r3, r3
 8002fe4:	2b00      	cmp	r3, #0
 8002fe6:	d004      	beq.n	8002ff2 <EXTI9_5_IRQHandler+0x426>
 8002fe8:	f44f 6180 	mov.w	r1, #1024	; 0x400
 8002fec:	4834      	ldr	r0, [pc, #208]	; (80030c0 <EXTI9_5_IRQHandler+0x4f4>)
 8002fee:	f7fe f86c 	bl	80010ca <GPIO_ResetBits>
 8002ff2:	2101      	movs	r1, #1
 8002ff4:	4834      	ldr	r0, [pc, #208]	; (80030c8 <EXTI9_5_IRQHandler+0x4fc>)
 8002ff6:	f7fe fa0e 	bl	8001416 <TIM_Cmd>
 8002ffa:	2100      	movs	r1, #0
 8002ffc:	4832      	ldr	r0, [pc, #200]	; (80030c8 <EXTI9_5_IRQHandler+0x4fc>)
 8002ffe:	f7fe f9fd 	bl	80013fc <TIM_SetCounter>
 8003002:	2020      	movs	r0, #32
 8003004:	f7fd fffc 	bl	8001000 <EXTI_ClearITPendingBit>
 8003008:	4b30      	ldr	r3, [pc, #192]	; (80030cc <EXTI9_5_IRQHandler+0x500>)
 800300a:	695b      	ldr	r3, [r3, #20]
 800300c:	f003 0380 	and.w	r3, r3, #128	; 0x80
 8003010:	2b00      	cmp	r3, #0
 8003012:	d047      	beq.n	80030a4 <EXTI9_5_IRQHandler+0x4d8>
 8003014:	4b2e      	ldr	r3, [pc, #184]	; (80030d0 <EXTI9_5_IRQHandler+0x504>)
 8003016:	785b      	ldrb	r3, [r3, #1]
 8003018:	b2db      	uxtb	r3, r3
 800301a:	3b01      	subs	r3, #1
 800301c:	b2da      	uxtb	r2, r3
 800301e:	4b2d      	ldr	r3, [pc, #180]	; (80030d4 <EXTI9_5_IRQHandler+0x508>)
 8003020:	701a      	strb	r2, [r3, #0]
 8003022:	4b2d      	ldr	r3, [pc, #180]	; (80030d8 <EXTI9_5_IRQHandler+0x50c>)
 8003024:	781b      	ldrb	r3, [r3, #0]
 8003026:	b2db      	uxtb	r3, r3
 8003028:	2b01      	cmp	r3, #1
 800302a:	d109      	bne.n	8003040 <EXTI9_5_IRQHandler+0x474>
 800302c:	4a2b      	ldr	r2, [pc, #172]	; (80030dc <EXTI9_5_IRQHandler+0x510>)
 800302e:	7813      	ldrb	r3, [r2, #0]
 8003030:	f043 0301 	orr.w	r3, r3, #1
 8003034:	7013      	strb	r3, [r2, #0]
 8003036:	4a29      	ldr	r2, [pc, #164]	; (80030dc <EXTI9_5_IRQHandler+0x510>)
 8003038:	7813      	ldrb	r3, [r2, #0]
 800303a:	f043 0302 	orr.w	r3, r3, #2
 800303e:	7013      	strb	r3, [r2, #0]
 8003040:	2104      	movs	r1, #4
 8003042:	4827      	ldr	r0, [pc, #156]	; (80030e0 <EXTI9_5_IRQHandler+0x514>)
 8003044:	f7fe f841 	bl	80010ca <GPIO_ResetBits>
 8003048:	4b22      	ldr	r3, [pc, #136]	; (80030d4 <EXTI9_5_IRQHandler+0x508>)
 800304a:	781b      	ldrb	r3, [r3, #0]
 800304c:	b2db      	uxtb	r3, r3
 800304e:	4a1b      	ldr	r2, [pc, #108]	; (80030bc <EXTI9_5_IRQHandler+0x4f0>)
 8003050:	3320      	adds	r3, #32
 8003052:	00db      	lsls	r3, r3, #3
 8003054:	4413      	add	r3, r2
 8003056:	685b      	ldr	r3, [r3, #4]
 8003058:	f3c3 23c0 	ubfx	r3, r3, #11, #1
 800305c:	b2db      	uxtb	r3, r3
 800305e:	2b00      	cmp	r3, #0
 8003060:	d003      	beq.n	800306a <EXTI9_5_IRQHandler+0x49e>
 8003062:	2108      	movs	r1, #8
 8003064:	481e      	ldr	r0, [pc, #120]	; (80030e0 <EXTI9_5_IRQHandler+0x514>)
 8003066:	f7fe f830 	bl	80010ca <GPIO_ResetBits>
 800306a:	4b1a      	ldr	r3, [pc, #104]	; (80030d4 <EXTI9_5_IRQHandler+0x508>)
 800306c:	781b      	ldrb	r3, [r3, #0]
 800306e:	b2db      	uxtb	r3, r3
 8003070:	4a12      	ldr	r2, [pc, #72]	; (80030bc <EXTI9_5_IRQHandler+0x4f0>)
 8003072:	3320      	adds	r3, #32
 8003074:	00db      	lsls	r3, r3, #3
 8003076:	4413      	add	r3, r2
 8003078:	685b      	ldr	r3, [r3, #4]
 800307a:	f3c3 3300 	ubfx	r3, r3, #12, #1
 800307e:	b2db      	uxtb	r3, r3
 8003080:	2b00      	cmp	r3, #0
 8003082:	d004      	beq.n	800308e <EXTI9_5_IRQHandler+0x4c2>
 8003084:	f44f 5180 	mov.w	r1, #4096	; 0x1000
 8003088:	4815      	ldr	r0, [pc, #84]	; (80030e0 <EXTI9_5_IRQHandler+0x514>)
 800308a:	f7fe f81e 	bl	80010ca <GPIO_ResetBits>
 800308e:	2101      	movs	r1, #1
 8003090:	4814      	ldr	r0, [pc, #80]	; (80030e4 <EXTI9_5_IRQHandler+0x518>)
 8003092:	f7fe f9c0 	bl	8001416 <TIM_Cmd>
 8003096:	2100      	movs	r1, #0
 8003098:	4812      	ldr	r0, [pc, #72]	; (80030e4 <EXTI9_5_IRQHandler+0x518>)
 800309a:	f7fe f9af 	bl	80013fc <TIM_SetCounter>
 800309e:	2080      	movs	r0, #128	; 0x80
 80030a0:	f7fd ffae 	bl	8001000 <EXTI_ClearITPendingBit>
 80030a4:	4a0d      	ldr	r2, [pc, #52]	; (80030dc <EXTI9_5_IRQHandler+0x510>)
 80030a6:	7813      	ldrb	r3, [r2, #0]
 80030a8:	f043 0301 	orr.w	r3, r3, #1
 80030ac:	7013      	strb	r3, [r2, #0]
 80030ae:	4a0b      	ldr	r2, [pc, #44]	; (80030dc <EXTI9_5_IRQHandler+0x510>)
 80030b0:	7813      	ldrb	r3, [r2, #0]
 80030b2:	f043 0302 	orr.w	r3, r3, #2
 80030b6:	7013      	strb	r3, [r2, #0]
 80030b8:	bf00      	nop
 80030ba:	bd80      	pop	{r7, pc}
 80030bc:	20000948 	.word	0x20000948
 80030c0:	40020400 	.word	0x40020400
 80030c4:	20000297 	.word	0x20000297
 80030c8:	40002000 	.word	0x40002000
 80030cc:	40013c00 	.word	0x40013c00
 80030d0:	20000270 	.word	0x20000270
 80030d4:	20000298 	.word	0x20000298
 80030d8:	20000296 	.word	0x20000296
 80030dc:	200002e0 	.word	0x200002e0
 80030e0:	40020000 	.word	0x40020000
 80030e4:	40010400 	.word	0x40010400

080030e8 <SaveSequence>:
 80030e8:	b580      	push	{r7, lr}
 80030ea:	b082      	sub	sp, #8
 80030ec:	af00      	add	r7, sp, #0
 80030ee:	4603      	mov	r3, r0
 80030f0:	71fb      	strb	r3, [r7, #7]
 80030f2:	f7ff fc0d 	bl	8002910 <ADCPause>
 80030f6:	f7fe fe7e 	bl	8001df6 <Is_Expander_Present>
 80030fa:	4603      	mov	r3, r0
 80030fc:	2b00      	cmp	r3, #0
 80030fe:	d125      	bne.n	800314c <SaveSequence+0x64>
 8003100:	4b22      	ldr	r3, [pc, #136]	; (800318c <SaveSequence+0xa4>)
 8003102:	781b      	ldrb	r3, [r3, #0]
 8003104:	b2db      	uxtb	r3, r3
 8003106:	b29a      	uxth	r2, r3
 8003108:	79fb      	ldrb	r3, [r7, #7]
 800310a:	b29b      	uxth	r3, r3
 800310c:	fb12 f303 	smulbb	r3, r2, r3
 8003110:	b29b      	uxth	r3, r3
 8003112:	025b      	lsls	r3, r3, #9
 8003114:	b29b      	uxth	r3, r3
 8003116:	f44f 7280 	mov.w	r2, #256	; 0x100
 800311a:	491d      	ldr	r1, [pc, #116]	; (8003190 <SaveSequence+0xa8>)
 800311c:	4618      	mov	r0, r3
 800311e:	f7fe faad 	bl	800167c <CAT25512_write_block>
 8003122:	4b1a      	ldr	r3, [pc, #104]	; (800318c <SaveSequence+0xa4>)
 8003124:	781b      	ldrb	r3, [r3, #0]
 8003126:	b2db      	uxtb	r3, r3
 8003128:	b29a      	uxth	r2, r3
 800312a:	79fb      	ldrb	r3, [r7, #7]
 800312c:	b29b      	uxth	r3, r3
 800312e:	fb12 f303 	smulbb	r3, r2, r3
 8003132:	b29b      	uxth	r3, r3
 8003134:	025b      	lsls	r3, r3, #9
 8003136:	b29b      	uxth	r3, r3
 8003138:	f503 7380 	add.w	r3, r3, #256	; 0x100
 800313c:	b29b      	uxth	r3, r3
 800313e:	f44f 7280 	mov.w	r2, #256	; 0x100
 8003142:	4914      	ldr	r1, [pc, #80]	; (8003194 <SaveSequence+0xac>)
 8003144:	4618      	mov	r0, r3
 8003146:	f7fe fa99 	bl	800167c <CAT25512_write_block>
 800314a:	e018      	b.n	800317e <SaveSequence+0x96>
 800314c:	79fb      	ldrb	r3, [r7, #7]
 800314e:	3320      	adds	r3, #32
 8003150:	b29b      	uxth	r3, r3
 8003152:	025b      	lsls	r3, r3, #9
 8003154:	b29b      	uxth	r3, r3
 8003156:	f44f 7280 	mov.w	r2, #256	; 0x100
 800315a:	490d      	ldr	r1, [pc, #52]	; (8003190 <SaveSequence+0xa8>)
 800315c:	4618      	mov	r0, r3
 800315e:	f7fe fa8d 	bl	800167c <CAT25512_write_block>
 8003162:	79fb      	ldrb	r3, [r7, #7]
 8003164:	3320      	adds	r3, #32
 8003166:	b29b      	uxth	r3, r3
 8003168:	025b      	lsls	r3, r3, #9
 800316a:	b29b      	uxth	r3, r3
 800316c:	f503 7380 	add.w	r3, r3, #256	; 0x100
 8003170:	b29b      	uxth	r3, r3
 8003172:	f44f 7280 	mov.w	r2, #256	; 0x100
 8003176:	4907      	ldr	r1, [pc, #28]	; (8003194 <SaveSequence+0xac>)
 8003178:	4618      	mov	r0, r3
 800317a:	f7fe fa7f 	bl	800167c <CAT25512_write_block>
 800317e:	f7ff faf5 	bl	800276c <mADC_init>
 8003182:	2300      	movs	r3, #0
 8003184:	4618      	mov	r0, r3
 8003186:	3708      	adds	r7, #8
 8003188:	46bd      	mov	sp, r7
 800318a:	bd80      	pop	{r7, pc}
 800318c:	20000276 	.word	0x20000276
 8003190:	20000948 	.word	0x20000948
 8003194:	20000a48 	.word	0x20000a48

08003198 <LoadSequence>:
 8003198:	b580      	push	{r7, lr}
 800319a:	b084      	sub	sp, #16
 800319c:	af00      	add	r7, sp, #0
 800319e:	4603      	mov	r3, r0
 80031a0:	71fb      	strb	r3, [r7, #7]
 80031a2:	f7ff fbb5 	bl	8002910 <ADCPause>
 80031a6:	f7fe fe26 	bl	8001df6 <Is_Expander_Present>
 80031aa:	4603      	mov	r3, r0
 80031ac:	2b00      	cmp	r3, #0
 80031ae:	d125      	bne.n	80031fc <LoadSequence+0x64>
 80031b0:	4b51      	ldr	r3, [pc, #324]	; (80032f8 <LoadSequence+0x160>)
 80031b2:	781b      	ldrb	r3, [r3, #0]
 80031b4:	b2db      	uxtb	r3, r3
 80031b6:	b29a      	uxth	r2, r3
 80031b8:	79fb      	ldrb	r3, [r7, #7]
 80031ba:	b29b      	uxth	r3, r3
 80031bc:	fb12 f303 	smulbb	r3, r2, r3
 80031c0:	b29b      	uxth	r3, r3
 80031c2:	025b      	lsls	r3, r3, #9
 80031c4:	b29b      	uxth	r3, r3
 80031c6:	f44f 7280 	mov.w	r2, #256	; 0x100
 80031ca:	494c      	ldr	r1, [pc, #304]	; (80032fc <LoadSequence+0x164>)
 80031cc:	4618      	mov	r0, r3
 80031ce:	f7fe faaf 	bl	8001730 <CAT25512_read_block>
 80031d2:	4b49      	ldr	r3, [pc, #292]	; (80032f8 <LoadSequence+0x160>)
 80031d4:	781b      	ldrb	r3, [r3, #0]
 80031d6:	b2db      	uxtb	r3, r3
 80031d8:	b29a      	uxth	r2, r3
 80031da:	79fb      	ldrb	r3, [r7, #7]
 80031dc:	b29b      	uxth	r3, r3
 80031de:	fb12 f303 	smulbb	r3, r2, r3
 80031e2:	b29b      	uxth	r3, r3
 80031e4:	025b      	lsls	r3, r3, #9
 80031e6:	b29b      	uxth	r3, r3
 80031e8:	f503 7380 	add.w	r3, r3, #256	; 0x100
 80031ec:	b29b      	uxth	r3, r3
 80031ee:	f44f 7280 	mov.w	r2, #256	; 0x100
 80031f2:	4943      	ldr	r1, [pc, #268]	; (8003300 <LoadSequence+0x168>)
 80031f4:	4618      	mov	r0, r3
 80031f6:	f7fe fa9b 	bl	8001730 <CAT25512_read_block>
 80031fa:	e018      	b.n	800322e <LoadSequence+0x96>
 80031fc:	79fb      	ldrb	r3, [r7, #7]
 80031fe:	3320      	adds	r3, #32
 8003200:	b29b      	uxth	r3, r3
 8003202:	025b      	lsls	r3, r3, #9
 8003204:	b29b      	uxth	r3, r3
 8003206:	f44f 7280 	mov.w	r2, #256	; 0x100
 800320a:	493c      	ldr	r1, [pc, #240]	; (80032fc <LoadSequence+0x164>)
 800320c:	4618      	mov	r0, r3
 800320e:	f7fe fa8f 	bl	8001730 <CAT25512_read_block>
 8003212:	79fb      	ldrb	r3, [r7, #7]
 8003214:	3320      	adds	r3, #32
 8003216:	b29b      	uxth	r3, r3
 8003218:	025b      	lsls	r3, r3, #9
 800321a:	b29b      	uxth	r3, r3
 800321c:	f503 7380 	add.w	r3, r3, #256	; 0x100
 8003220:	b29b      	uxth	r3, r3
 8003222:	f44f 7280 	mov.w	r2, #256	; 0x100
 8003226:	4936      	ldr	r1, [pc, #216]	; (8003300 <LoadSequence+0x168>)
 8003228:	4618      	mov	r0, r3
 800322a:	f7fe fa81 	bl	8001730 <CAT25512_read_block>
 800322e:	4b35      	ldr	r3, [pc, #212]	; (8003304 <LoadSequence+0x16c>)
 8003230:	781b      	ldrb	r3, [r3, #0]
 8003232:	f3c3 0380 	ubfx	r3, r3, #2, #1
 8003236:	b2db      	uxtb	r3, r3
 8003238:	2b01      	cmp	r3, #1
 800323a:	d150      	bne.n	80032de <LoadSequence+0x146>
 800323c:	2300      	movs	r3, #0
 800323e:	73fb      	strb	r3, [r7, #15]
 8003240:	e04a      	b.n	80032d8 <LoadSequence+0x140>
 8003242:	7bfb      	ldrb	r3, [r7, #15]
 8003244:	4a2d      	ldr	r2, [pc, #180]	; (80032fc <LoadSequence+0x164>)
 8003246:	00db      	lsls	r3, r3, #3
 8003248:	4413      	add	r3, r2
 800324a:	685a      	ldr	r2, [r3, #4]
 800324c:	f442 5200 	orr.w	r2, r2, #8192	; 0x2000
 8003250:	605a      	str	r2, [r3, #4]
 8003252:	7bfb      	ldrb	r3, [r7, #15]
 8003254:	4a29      	ldr	r2, [pc, #164]	; (80032fc <LoadSequence+0x164>)
 8003256:	00db      	lsls	r3, r3, #3
 8003258:	4413      	add	r3, r2
 800325a:	685a      	ldr	r2, [r3, #4]
 800325c:	f442 4280 	orr.w	r2, r2, #16384	; 0x4000
 8003260:	605a      	str	r2, [r3, #4]
 8003262:	7bfb      	ldrb	r3, [r7, #15]
 8003264:	4a25      	ldr	r2, [pc, #148]	; (80032fc <LoadSequence+0x164>)
 8003266:	3320      	adds	r3, #32
 8003268:	00db      	lsls	r3, r3, #3
 800326a:	4413      	add	r3, r2
 800326c:	685a      	ldr	r2, [r3, #4]
 800326e:	f442 5200 	orr.w	r2, r2, #8192	; 0x2000
 8003272:	605a      	str	r2, [r3, #4]
 8003274:	7bfb      	ldrb	r3, [r7, #15]
 8003276:	4a21      	ldr	r2, [pc, #132]	; (80032fc <LoadSequence+0x164>)
 8003278:	3320      	adds	r3, #32
 800327a:	00db      	lsls	r3, r3, #3
 800327c:	4413      	add	r3, r2
 800327e:	685a      	ldr	r2, [r3, #4]
 8003280:	f442 4280 	orr.w	r2, r2, #16384	; 0x4000
 8003284:	605a      	str	r2, [r3, #4]
 8003286:	7bfb      	ldrb	r3, [r7, #15]
 8003288:	3310      	adds	r3, #16
 800328a:	4a1c      	ldr	r2, [pc, #112]	; (80032fc <LoadSequence+0x164>)
 800328c:	00db      	lsls	r3, r3, #3
 800328e:	4413      	add	r3, r2
 8003290:	685a      	ldr	r2, [r3, #4]
 8003292:	f442 5200 	orr.w	r2, r2, #8192	; 0x2000
 8003296:	605a      	str	r2, [r3, #4]
 8003298:	7bfb      	ldrb	r3, [r7, #15]
 800329a:	3310      	adds	r3, #16
 800329c:	4a17      	ldr	r2, [pc, #92]	; (80032fc <LoadSequence+0x164>)
 800329e:	00db      	lsls	r3, r3, #3
 80032a0:	4413      	add	r3, r2
 80032a2:	685a      	ldr	r2, [r3, #4]
 80032a4:	f442 4280 	orr.w	r2, r2, #16384	; 0x4000
 80032a8:	605a      	str	r2, [r3, #4]
 80032aa:	7bfb      	ldrb	r3, [r7, #15]
 80032ac:	3310      	adds	r3, #16
 80032ae:	4a13      	ldr	r2, [pc, #76]	; (80032fc <LoadSequence+0x164>)
 80032b0:	3320      	adds	r3, #32
 80032b2:	00db      	lsls	r3, r3, #3
 80032b4:	4413      	add	r3, r2
 80032b6:	685a      	ldr	r2, [r3, #4]
 80032b8:	f442 5200 	orr.w	r2, r2, #8192	; 0x2000
 80032bc:	605a      	str	r2, [r3, #4]
 80032be:	7bfb      	ldrb	r3, [r7, #15]
 80032c0:	3310      	adds	r3, #16
 80032c2:	4a0e      	ldr	r2, [pc, #56]	; (80032fc <LoadSequence+0x164>)
 80032c4:	3320      	adds	r3, #32
 80032c6:	00db      	lsls	r3, r3, #3
 80032c8:	4413      	add	r3, r2
 80032ca:	685a      	ldr	r2, [r3, #4]
 80032cc:	f442 4280 	orr.w	r2, r2, #16384	; 0x4000
 80032d0:	605a      	str	r2, [r3, #4]
 80032d2:	7bfb      	ldrb	r3, [r7, #15]
 80032d4:	3301      	adds	r3, #1
 80032d6:	73fb      	strb	r3, [r7, #15]
 80032d8:	7bfb      	ldrb	r3, [r7, #15]
 80032da:	2b0f      	cmp	r3, #15
 80032dc:	d9b1      	bls.n	8003242 <LoadSequence+0xaa>
 80032de:	4b0a      	ldr	r3, [pc, #40]	; (8003308 <LoadSequence+0x170>)
 80032e0:	2202      	movs	r2, #2
 80032e2:	701a      	strb	r2, [r3, #0]
 80032e4:	4b09      	ldr	r3, [pc, #36]	; (800330c <LoadSequence+0x174>)
 80032e6:	2202      	movs	r2, #2
 80032e8:	701a      	strb	r2, [r3, #0]
 80032ea:	f7ff fa3f 	bl	800276c <mADC_init>
 80032ee:	bf00      	nop
 80032f0:	3710      	adds	r7, #16
 80032f2:	46bd      	mov	sp, r7
 80032f4:	bd80      	pop	{r7, pc}
 80032f6:	bf00      	nop
 80032f8:	20000276 	.word	0x20000276
 80032fc:	20000948 	.word	0x20000948
 8003300:	20000a48 	.word	0x20000a48
 8003304:	200002d8 	.word	0x200002d8
 8003308:	200002ad 	.word	0x200002ad
 800330c:	200002ae 	.word	0x200002ae

08003310 <GetStepWidth>:
 8003310:	b480      	push	{r7}
 8003312:	b087      	sub	sp, #28
 8003314:	af00      	add	r7, sp, #0
 8003316:	4603      	mov	r3, r0
 8003318:	460a      	mov	r2, r1
 800331a:	71fb      	strb	r3, [r7, #7]
 800331c:	4613      	mov	r3, r2
 800331e:	71bb      	strb	r3, [r7, #6]
 8003320:	2300      	movs	r3, #0
 8003322:	617b      	str	r3, [r7, #20]
 8003324:	2300      	movs	r3, #0
 8003326:	613b      	str	r3, [r7, #16]
 8003328:	2300      	movs	r3, #0
 800332a:	73fb      	strb	r3, [r7, #15]
 800332c:	79fa      	ldrb	r2, [r7, #7]
 800332e:	79bb      	ldrb	r3, [r7, #6]
 8003330:	496f      	ldr	r1, [pc, #444]	; (80034f0 <GetStepWidth+0x1e0>)
 8003332:	0152      	lsls	r2, r2, #5
 8003334:	4413      	add	r3, r2
 8003336:	00db      	lsls	r3, r3, #3
 8003338:	440b      	add	r3, r1
 800333a:	685b      	ldr	r3, [r3, #4]
 800333c:	f3c3 2380 	ubfx	r3, r3, #10, #1
 8003340:	b2db      	uxtb	r3, r3
 8003342:	2b00      	cmp	r3, #0
 8003344:	d034      	beq.n	80033b0 <GetStepWidth+0xa0>
 8003346:	79fa      	ldrb	r2, [r7, #7]
 8003348:	79bb      	ldrb	r3, [r7, #6]
 800334a:	4969      	ldr	r1, [pc, #420]	; (80034f0 <GetStepWidth+0x1e0>)
 800334c:	0152      	lsls	r2, r2, #5
 800334e:	4413      	add	r3, r2
 8003350:	f851 3033 	ldr.w	r3, [r1, r3, lsl #3]
 8003354:	f3c3 330b 	ubfx	r3, r3, #12, #12
 8003358:	b29b      	uxth	r3, r3
 800335a:	f503 737a 	add.w	r3, r3, #1000	; 0x3e8
 800335e:	4a65      	ldr	r2, [pc, #404]	; (80034f4 <GetStepWidth+0x1e4>)
 8003360:	fb82 1203 	smull	r1, r2, r2, r3
 8003364:	1152      	asrs	r2, r2, #5
 8003366:	17db      	asrs	r3, r3, #31
 8003368:	1ad3      	subs	r3, r2, r3
 800336a:	73fb      	strb	r3, [r7, #15]
 800336c:	7bfb      	ldrb	r3, [r7, #15]
 800336e:	2b03      	cmp	r3, #3
 8003370:	d901      	bls.n	8003376 <GetStepWidth+0x66>
 8003372:	2303      	movs	r3, #3
 8003374:	73fb      	strb	r3, [r7, #15]
 8003376:	7bfb      	ldrb	r3, [r7, #15]
 8003378:	4a5f      	ldr	r2, [pc, #380]	; (80034f8 <GetStepWidth+0x1e8>)
 800337a:	f832 3013 	ldrh.w	r3, [r2, r3, lsl #1]
 800337e:	b29b      	uxth	r3, r3
 8003380:	ee07 3a90 	vmov	s15, r3
 8003384:	eeb8 7ae7 	vcvt.f32.s32	s14, s15
 8003388:	7bfb      	ldrb	r3, [r7, #15]
 800338a:	4a5c      	ldr	r2, [pc, #368]	; (80034fc <GetStepWidth+0x1ec>)
 800338c:	f852 3023 	ldr.w	r3, [r2, r3, lsl #2]
 8003390:	ee07 3a90 	vmov	s15, r3
 8003394:	eef8 6a67 	vcvt.f32.u32	s13, s15
 8003398:	ed9f 6a59 	vldr	s12, [pc, #356]	; 8003500 <GetStepWidth+0x1f0>
 800339c:	eec6 7a26 	vdiv.f32	s15, s12, s13
 80033a0:	ee67 7a27 	vmul.f32	s15, s14, s15
 80033a4:	eefc 7ae7 	vcvt.u32.f32	s15, s15
 80033a8:	ee17 3a90 	vmov	r3, s15
 80033ac:	613b      	str	r3, [r7, #16]
 80033ae:	e00b      	b.n	80033c8 <GetStepWidth+0xb8>
 80033b0:	79fa      	ldrb	r2, [r7, #7]
 80033b2:	79bb      	ldrb	r3, [r7, #6]
 80033b4:	494e      	ldr	r1, [pc, #312]	; (80034f0 <GetStepWidth+0x1e0>)
 80033b6:	0152      	lsls	r2, r2, #5
 80033b8:	4413      	add	r3, r2
 80033ba:	f851 3033 	ldr.w	r3, [r1, r3, lsl #3]
 80033be:	f3c3 330b 	ubfx	r3, r3, #12, #12
 80033c2:	b29b      	uxth	r3, r3
 80033c4:	3301      	adds	r3, #1
 80033c6:	613b      	str	r3, [r7, #16]
 80033c8:	79fa      	ldrb	r2, [r7, #7]
 80033ca:	79bb      	ldrb	r3, [r7, #6]
 80033cc:	4948      	ldr	r1, [pc, #288]	; (80034f0 <GetStepWidth+0x1e0>)
 80033ce:	0152      	lsls	r2, r2, #5
 80033d0:	4413      	add	r3, r2
 80033d2:	00db      	lsls	r3, r3, #3
 80033d4:	440b      	add	r3, r1
 80033d6:	685b      	ldr	r3, [r3, #4]
 80033d8:	f3c3 1380 	ubfx	r3, r3, #6, #1
 80033dc:	b2db      	uxtb	r3, r3
 80033de:	2b01      	cmp	r3, #1
 80033e0:	d115      	bne.n	800340e <GetStepWidth+0xfe>
 80033e2:	693b      	ldr	r3, [r7, #16]
 80033e4:	ee07 3a90 	vmov	s15, r3
 80033e8:	eef8 7a67 	vcvt.f32.u32	s15, s15
 80033ec:	ed9f 7a45 	vldr	s14, [pc, #276]	; 8003504 <GetStepWidth+0x1f4>
 80033f0:	ee27 7a87 	vmul.f32	s14, s15, s14
 80033f4:	eddf 6a42 	vldr	s13, [pc, #264]	; 8003500 <GetStepWidth+0x1f0>
 80033f8:	eec7 7a26 	vdiv.f32	s15, s14, s13
 80033fc:	eeb2 7a00 	vmov.f32	s14, #32	; 0x41000000  8.0
 8003400:	ee77 7a87 	vadd.f32	s15, s15, s14
 8003404:	eefc 7ae7 	vcvt.u32.f32	s15, s15
 8003408:	ee17 3a90 	vmov	r3, s15
 800340c:	617b      	str	r3, [r7, #20]
 800340e:	79fa      	ldrb	r2, [r7, #7]
 8003410:	79bb      	ldrb	r3, [r7, #6]
 8003412:	4937      	ldr	r1, [pc, #220]	; (80034f0 <GetStepWidth+0x1e0>)
 8003414:	0152      	lsls	r2, r2, #5
 8003416:	4413      	add	r3, r2
 8003418:	00db      	lsls	r3, r3, #3
 800341a:	440b      	add	r3, r1
 800341c:	685b      	ldr	r3, [r3, #4]
 800341e:	f3c3 13c0 	ubfx	r3, r3, #7, #1
 8003422:	b2db      	uxtb	r3, r3
 8003424:	2b01      	cmp	r3, #1
 8003426:	d115      	bne.n	8003454 <GetStepWidth+0x144>
 8003428:	693b      	ldr	r3, [r7, #16]
 800342a:	ee07 3a90 	vmov	s15, r3
 800342e:	eef8 7a67 	vcvt.f32.u32	s15, s15
 8003432:	ed9f 7a35 	vldr	s14, [pc, #212]	; 8003508 <GetStepWidth+0x1f8>
 8003436:	ee27 7a87 	vmul.f32	s14, s15, s14
 800343a:	eddf 6a31 	vldr	s13, [pc, #196]	; 8003500 <GetStepWidth+0x1f0>
 800343e:	eec7 7a26 	vdiv.f32	s15, s14, s13
 8003442:	ed9f 7a32 	vldr	s14, [pc, #200]	; 800350c <GetStepWidth+0x1fc>
 8003446:	ee77 7a87 	vadd.f32	s15, s15, s14
 800344a:	eefc 7ae7 	vcvt.u32.f32	s15, s15
 800344e:	ee17 3a90 	vmov	r3, s15
 8003452:	617b      	str	r3, [r7, #20]
 8003454:	79fa      	ldrb	r2, [r7, #7]
 8003456:	79bb      	ldrb	r3, [r7, #6]
 8003458:	4925      	ldr	r1, [pc, #148]	; (80034f0 <GetStepWidth+0x1e0>)
 800345a:	0152      	lsls	r2, r2, #5
 800345c:	4413      	add	r3, r2
 800345e:	00db      	lsls	r3, r3, #3
 8003460:	440b      	add	r3, r1
 8003462:	685b      	ldr	r3, [r3, #4]
 8003464:	f3c3 2300 	ubfx	r3, r3, #8, #1
 8003468:	b2db      	uxtb	r3, r3
 800346a:	2b01      	cmp	r3, #1
 800346c:	d115      	bne.n	800349a <GetStepWidth+0x18a>
 800346e:	693b      	ldr	r3, [r7, #16]
 8003470:	ee07 3a90 	vmov	s15, r3
 8003474:	eef8 7a67 	vcvt.f32.u32	s15, s15
 8003478:	ed9f 7a25 	vldr	s14, [pc, #148]	; 8003510 <GetStepWidth+0x200>
 800347c:	ee27 7a87 	vmul.f32	s14, s15, s14
 8003480:	eddf 6a1f 	vldr	s13, [pc, #124]	; 8003500 <GetStepWidth+0x1f0>
 8003484:	eec7 7a26 	vdiv.f32	s15, s14, s13
 8003488:	ed9f 7a22 	vldr	s14, [pc, #136]	; 8003514 <GetStepWidth+0x204>
 800348c:	ee77 7a87 	vadd.f32	s15, s15, s14
 8003490:	eefc 7ae7 	vcvt.u32.f32	s15, s15
 8003494:	ee17 3a90 	vmov	r3, s15
 8003498:	617b      	str	r3, [r7, #20]
 800349a:	79fa      	ldrb	r2, [r7, #7]
 800349c:	79bb      	ldrb	r3, [r7, #6]
 800349e:	4914      	ldr	r1, [pc, #80]	; (80034f0 <GetStepWidth+0x1e0>)
 80034a0:	0152      	lsls	r2, r2, #5
 80034a2:	4413      	add	r3, r2
 80034a4:	00db      	lsls	r3, r3, #3
 80034a6:	440b      	add	r3, r1
 80034a8:	685b      	ldr	r3, [r3, #4]
 80034aa:	f3c3 2340 	ubfx	r3, r3, #9, #1
 80034ae:	b2db      	uxtb	r3, r3
 80034b0:	2b01      	cmp	r3, #1
 80034b2:	d115      	bne.n	80034e0 <GetStepWidth+0x1d0>
 80034b4:	693b      	ldr	r3, [r7, #16]
 80034b6:	ee07 3a90 	vmov	s15, r3
 80034ba:	eef8 7a67 	vcvt.f32.u32	s15, s15
 80034be:	ed9f 7a16 	vldr	s14, [pc, #88]	; 8003518 <GetStepWidth+0x208>
 80034c2:	ee27 7a87 	vmul.f32	s14, s15, s14
 80034c6:	eddf 6a0e 	vldr	s13, [pc, #56]	; 8003500 <GetStepWidth+0x1f0>
 80034ca:	eec7 7a26 	vdiv.f32	s15, s14, s13
 80034ce:	ed9f 7a13 	vldr	s14, [pc, #76]	; 800351c <GetStepWidth+0x20c>
 80034d2:	ee77 7a87 	vadd.f32	s15, s15, s14
 80034d6:	eefc 7ae7 	vcvt.u32.f32	s15, s15
 80034da:	ee17 3a90 	vmov	r3, s15
 80034de:	617b      	str	r3, [r7, #20]
 80034e0:	697b      	ldr	r3, [r7, #20]
 80034e2:	4618      	mov	r0, r3
 80034e4:	371c      	adds	r7, #28
 80034e6:	46bd      	mov	sp, r7
 80034e8:	f85d 7b04 	ldr.w	r7, [sp], #4
 80034ec:	4770      	bx	lr
 80034ee:	bf00      	nop
 80034f0:	20000948 	.word	0x20000948
 80034f4:	057619f1 	.word	0x057619f1
 80034f8:	20000828 	.word	0x20000828
 80034fc:	20000250 	.word	0x20000250
 8003500:	457ff000 	.word	0x457ff000
 8003504:	42e00000 	.word	0x42e00000
 8003508:	448c0000 	.word	0x448c0000
 800350c:	42a00000 	.word	0x42a00000
 8003510:	462f0000 	.word	0x462f0000
 8003514:	44480000 	.word	0x44480000
 8003518:	47dac000 	.word	0x47dac000
 800351c:	45fa0000 	.word	0x45fa0000

08003520 <GetStepVoltage>:
 8003520:	b480      	push	{r7}
 8003522:	b087      	sub	sp, #28
 8003524:	af00      	add	r7, sp, #0
 8003526:	4603      	mov	r3, r0
 8003528:	460a      	mov	r2, r1
 800352a:	71fb      	strb	r3, [r7, #7]
 800352c:	4613      	mov	r3, r2
 800352e:	71bb      	strb	r3, [r7, #6]
 8003530:	2300      	movs	r3, #0
 8003532:	617b      	str	r3, [r7, #20]
 8003534:	2300      	movs	r3, #0
 8003536:	613b      	str	r3, [r7, #16]
 8003538:	2300      	movs	r3, #0
 800353a:	73fb      	strb	r3, [r7, #15]
 800353c:	79fa      	ldrb	r2, [r7, #7]
 800353e:	79bb      	ldrb	r3, [r7, #6]
 8003540:	491f      	ldr	r1, [pc, #124]	; (80035c0 <GetStepVoltage+0xa0>)
 8003542:	0152      	lsls	r2, r2, #5
 8003544:	4413      	add	r3, r2
 8003546:	f851 3033 	ldr.w	r3, [r1, r3, lsl #3]
 800354a:	f3c3 63c0 	ubfx	r3, r3, #27, #1
 800354e:	b2db      	uxtb	r3, r3
 8003550:	2b00      	cmp	r3, #0
 8003552:	d03f      	beq.n	80035d4 <GetStepVoltage+0xb4>
 8003554:	79fa      	ldrb	r2, [r7, #7]
 8003556:	79bb      	ldrb	r3, [r7, #6]
 8003558:	4919      	ldr	r1, [pc, #100]	; (80035c0 <GetStepVoltage+0xa0>)
 800355a:	0152      	lsls	r2, r2, #5
 800355c:	4413      	add	r3, r2
 800355e:	f851 3033 	ldr.w	r3, [r1, r3, lsl #3]
 8003562:	f3c3 030b 	ubfx	r3, r3, #0, #12
 8003566:	b29b      	uxth	r3, r3
 8003568:	f503 737a 	add.w	r3, r3, #1000	; 0x3e8
 800356c:	4a15      	ldr	r2, [pc, #84]	; (80035c4 <GetStepVoltage+0xa4>)
 800356e:	fb82 1203 	smull	r1, r2, r2, r3
 8003572:	1152      	asrs	r2, r2, #5
 8003574:	17db      	asrs	r3, r3, #31
 8003576:	1ad3      	subs	r3, r2, r3
 8003578:	73fb      	strb	r3, [r7, #15]
 800357a:	7bfb      	ldrb	r3, [r7, #15]
 800357c:	2b03      	cmp	r3, #3
 800357e:	d901      	bls.n	8003584 <GetStepVoltage+0x64>
 8003580:	2303      	movs	r3, #3
 8003582:	73fb      	strb	r3, [r7, #15]
 8003584:	7bfb      	ldrb	r3, [r7, #15]
 8003586:	4a10      	ldr	r2, [pc, #64]	; (80035c8 <GetStepVoltage+0xa8>)
 8003588:	f832 3013 	ldrh.w	r3, [r2, r3, lsl #1]
 800358c:	b29b      	uxth	r3, r3
 800358e:	ee07 3a90 	vmov	s15, r3
 8003592:	eeb8 7ae7 	vcvt.f32.s32	s14, s15
 8003596:	7bfb      	ldrb	r3, [r7, #15]
 8003598:	4a0c      	ldr	r2, [pc, #48]	; (80035cc <GetStepVoltage+0xac>)
 800359a:	f852 3023 	ldr.w	r3, [r2, r3, lsl #2]
 800359e:	ee07 3a90 	vmov	s15, r3
 80035a2:	eef8 6a67 	vcvt.f32.u32	s13, s15
 80035a6:	ed9f 6a0a 	vldr	s12, [pc, #40]	; 80035d0 <GetStepVoltage+0xb0>
 80035aa:	eec6 7a26 	vdiv.f32	s15, s12, s13
 80035ae:	ee67 7a27 	vmul.f32	s15, s14, s15
 80035b2:	eefc 7ae7 	vcvt.u32.f32	s15, s15
 80035b6:	ee17 3a90 	vmov	r3, s15
 80035ba:	613b      	str	r3, [r7, #16]
 80035bc:	e015      	b.n	80035ea <GetStepVoltage+0xca>
 80035be:	bf00      	nop
 80035c0:	20000948 	.word	0x20000948
 80035c4:	057619f1 	.word	0x057619f1
 80035c8:	20000828 	.word	0x20000828
 80035cc:	20000250 	.word	0x20000250
 80035d0:	457ff000 	.word	0x457ff000
 80035d4:	79fa      	ldrb	r2, [r7, #7]
 80035d6:	79bb      	ldrb	r3, [r7, #6]
 80035d8:	49b8      	ldr	r1, [pc, #736]	; (80038bc <GetStepVoltage+0x39c>)
 80035da:	0152      	lsls	r2, r2, #5
 80035dc:	4413      	add	r3, r2
 80035de:	f851 3033 	ldr.w	r3, [r1, r3, lsl #3]
 80035e2:	f3c3 030b 	ubfx	r3, r3, #0, #12
 80035e6:	b29b      	uxth	r3, r3
 80035e8:	613b      	str	r3, [r7, #16]
 80035ea:	693b      	ldr	r3, [r7, #16]
 80035ec:	f5b3 5f80 	cmp.w	r3, #4096	; 0x1000
 80035f0:	d302      	bcc.n	80035f8 <GetStepVoltage+0xd8>
 80035f2:	f640 73ff 	movw	r3, #4095	; 0xfff
 80035f6:	613b      	str	r3, [r7, #16]
 80035f8:	79fa      	ldrb	r2, [r7, #7]
 80035fa:	79bb      	ldrb	r3, [r7, #6]
 80035fc:	49af      	ldr	r1, [pc, #700]	; (80038bc <GetStepVoltage+0x39c>)
 80035fe:	0152      	lsls	r2, r2, #5
 8003600:	4413      	add	r3, r2
 8003602:	f851 3033 	ldr.w	r3, [r1, r3, lsl #3]
 8003606:	f3c3 6380 	ubfx	r3, r3, #26, #1
 800360a:	b2db      	uxtb	r3, r3
 800360c:	2b00      	cmp	r3, #0
 800360e:	d033      	beq.n	8003678 <GetStepVoltage+0x158>
 8003610:	693b      	ldr	r3, [r7, #16]
 8003612:	617b      	str	r3, [r7, #20]
 8003614:	79fa      	ldrb	r2, [r7, #7]
 8003616:	79bb      	ldrb	r3, [r7, #6]
 8003618:	49a8      	ldr	r1, [pc, #672]	; (80038bc <GetStepVoltage+0x39c>)
 800361a:	0152      	lsls	r2, r2, #5
 800361c:	4413      	add	r3, r2
 800361e:	f851 3033 	ldr.w	r3, [r1, r3, lsl #3]
 8003622:	f3c3 6300 	ubfx	r3, r3, #24, #1
 8003626:	b2db      	uxtb	r3, r3
 8003628:	2b00      	cmp	r3, #0
 800362a:	d025      	beq.n	8003678 <GetStepVoltage+0x158>
 800362c:	697b      	ldr	r3, [r7, #20]
 800362e:	ee07 3a90 	vmov	s15, r3
 8003632:	eef8 6a67 	vcvt.f32.u32	s13, s15
 8003636:	4ba2      	ldr	r3, [pc, #648]	; (80038c0 <GetStepVoltage+0x3a0>)
 8003638:	edd3 7a00 	vldr	s15, [r3]
 800363c:	eeb2 7a08 	vmov.f32	s14, #40	; 0x41400000  12.0
 8003640:	ee27 7a87 	vmul.f32	s14, s15, s14
 8003644:	eec6 7a87 	vdiv.f32	s15, s13, s14
 8003648:	eefc 7ae7 	vcvt.u32.f32	s15, s15
 800364c:	ee17 3a90 	vmov	r3, s15
 8003650:	617b      	str	r3, [r7, #20]
 8003652:	697b      	ldr	r3, [r7, #20]
 8003654:	ee07 3a90 	vmov	s15, r3
 8003658:	eeb8 7a67 	vcvt.f32.u32	s14, s15
 800365c:	4b98      	ldr	r3, [pc, #608]	; (80038c0 <GetStepVoltage+0x3a0>)
 800365e:	edd3 7a00 	vldr	s15, [r3]
 8003662:	eef2 6a08 	vmov.f32	s13, #40	; 0x41400000  12.0
 8003666:	ee67 7aa6 	vmul.f32	s15, s15, s13
 800366a:	ee67 7a27 	vmul.f32	s15, s14, s15
 800366e:	eefc 7ae7 	vcvt.u32.f32	s15, s15
 8003672:	ee17 3a90 	vmov	r3, s15
 8003676:	617b      	str	r3, [r7, #20]
 8003678:	79fa      	ldrb	r2, [r7, #7]
 800367a:	79bb      	ldrb	r3, [r7, #6]
 800367c:	498f      	ldr	r1, [pc, #572]	; (80038bc <GetStepVoltage+0x39c>)
 800367e:	0152      	lsls	r2, r2, #5
 8003680:	4413      	add	r3, r2
 8003682:	f851 3033 	ldr.w	r3, [r1, r3, lsl #3]
 8003686:	f3c3 7300 	ubfx	r3, r3, #28, #1
 800368a:	b2db      	uxtb	r3, r3
 800368c:	2b00      	cmp	r3, #0
 800368e:	d02e      	beq.n	80036ee <GetStepVoltage+0x1ce>
 8003690:	693b      	ldr	r3, [r7, #16]
 8003692:	ee07 3a90 	vmov	s15, r3
 8003696:	eef8 6a67 	vcvt.f32.u32	s13, s15
 800369a:	4b89      	ldr	r3, [pc, #548]	; (80038c0 <GetStepVoltage+0x3a0>)
 800369c:	ed93 7a00 	vldr	s14, [r3]
 80036a0:	eec6 7a87 	vdiv.f32	s15, s13, s14
 80036a4:	eefc 7ae7 	vcvt.u32.f32	s15, s15
 80036a8:	ee17 3a90 	vmov	r3, s15
 80036ac:	617b      	str	r3, [r7, #20]
 80036ae:	79fa      	ldrb	r2, [r7, #7]
 80036b0:	79bb      	ldrb	r3, [r7, #6]
 80036b2:	4982      	ldr	r1, [pc, #520]	; (80038bc <GetStepVoltage+0x39c>)
 80036b4:	0152      	lsls	r2, r2, #5
 80036b6:	4413      	add	r3, r2
 80036b8:	f851 3033 	ldr.w	r3, [r1, r3, lsl #3]
 80036bc:	f3c3 6300 	ubfx	r3, r3, #24, #1
 80036c0:	b2db      	uxtb	r3, r3
 80036c2:	2b00      	cmp	r3, #0
 80036c4:	d013      	beq.n	80036ee <GetStepVoltage+0x1ce>
 80036c6:	4b7f      	ldr	r3, [pc, #508]	; (80038c4 <GetStepVoltage+0x3a4>)
 80036c8:	681b      	ldr	r3, [r3, #0]
 80036ca:	4a7f      	ldr	r2, [pc, #508]	; (80038c8 <GetStepVoltage+0x3a8>)
 80036cc:	fba2 2303 	umull	r2, r3, r2, r3
 80036d0:	08db      	lsrs	r3, r3, #3
 80036d2:	697a      	ldr	r2, [r7, #20]
 80036d4:	fbb2 f3f3 	udiv	r3, r2, r3
 80036d8:	617b      	str	r3, [r7, #20]
 80036da:	4b7a      	ldr	r3, [pc, #488]	; (80038c4 <GetStepVoltage+0x3a4>)
 80036dc:	681b      	ldr	r3, [r3, #0]
 80036de:	4a7a      	ldr	r2, [pc, #488]	; (80038c8 <GetStepVoltage+0x3a8>)
 80036e0:	fba2 2303 	umull	r2, r3, r2, r3
 80036e4:	08da      	lsrs	r2, r3, #3
 80036e6:	697b      	ldr	r3, [r7, #20]
 80036e8:	fb02 f303 	mul.w	r3, r2, r3
 80036ec:	617b      	str	r3, [r7, #20]
 80036ee:	79fa      	ldrb	r2, [r7, #7]
 80036f0:	79bb      	ldrb	r3, [r7, #6]
 80036f2:	4972      	ldr	r1, [pc, #456]	; (80038bc <GetStepVoltage+0x39c>)
 80036f4:	0152      	lsls	r2, r2, #5
 80036f6:	4413      	add	r3, r2
 80036f8:	f851 3033 	ldr.w	r3, [r1, r3, lsl #3]
 80036fc:	f3c3 7340 	ubfx	r3, r3, #29, #1
 8003700:	b2db      	uxtb	r3, r3
 8003702:	2b00      	cmp	r3, #0
 8003704:	d033      	beq.n	800376e <GetStepVoltage+0x24e>
 8003706:	693b      	ldr	r3, [r7, #16]
 8003708:	ee07 3a90 	vmov	s15, r3
 800370c:	eef8 6a67 	vcvt.f32.u32	s13, s15
 8003710:	4b6b      	ldr	r3, [pc, #428]	; (80038c0 <GetStepVoltage+0x3a0>)
 8003712:	ed93 7a00 	vldr	s14, [r3]
 8003716:	eec6 7a87 	vdiv.f32	s15, s13, s14
 800371a:	eefc 7ae7 	vcvt.u32.f32	s15, s15
 800371e:	ee17 3a90 	vmov	r3, s15
 8003722:	617b      	str	r3, [r7, #20]
 8003724:	79fa      	ldrb	r2, [r7, #7]
 8003726:	79bb      	ldrb	r3, [r7, #6]
 8003728:	4964      	ldr	r1, [pc, #400]	; (80038bc <GetStepVoltage+0x39c>)
 800372a:	0152      	lsls	r2, r2, #5
 800372c:	4413      	add	r3, r2
 800372e:	f851 3033 	ldr.w	r3, [r1, r3, lsl #3]
 8003732:	f3c3 6300 	ubfx	r3, r3, #24, #1
 8003736:	b2db      	uxtb	r3, r3
 8003738:	2b00      	cmp	r3, #0
 800373a:	d013      	beq.n	8003764 <GetStepVoltage+0x244>
 800373c:	4b61      	ldr	r3, [pc, #388]	; (80038c4 <GetStepVoltage+0x3a4>)
 800373e:	681b      	ldr	r3, [r3, #0]
 8003740:	4a61      	ldr	r2, [pc, #388]	; (80038c8 <GetStepVoltage+0x3a8>)
 8003742:	fba2 2303 	umull	r2, r3, r2, r3
 8003746:	08db      	lsrs	r3, r3, #3
 8003748:	697a      	ldr	r2, [r7, #20]
 800374a:	fbb2 f3f3 	udiv	r3, r2, r3
 800374e:	617b      	str	r3, [r7, #20]
 8003750:	4b5c      	ldr	r3, [pc, #368]	; (80038c4 <GetStepVoltage+0x3a4>)
 8003752:	681b      	ldr	r3, [r3, #0]
 8003754:	4a5c      	ldr	r2, [pc, #368]	; (80038c8 <GetStepVoltage+0x3a8>)
 8003756:	fba2 2303 	umull	r2, r3, r2, r3
 800375a:	08da      	lsrs	r2, r3, #3
 800375c:	697b      	ldr	r3, [r7, #20]
 800375e:	fb02 f303 	mul.w	r3, r2, r3
 8003762:	617b      	str	r3, [r7, #20]
 8003764:	4b57      	ldr	r3, [pc, #348]	; (80038c4 <GetStepVoltage+0x3a4>)
 8003766:	681b      	ldr	r3, [r3, #0]
 8003768:	697a      	ldr	r2, [r7, #20]
 800376a:	4413      	add	r3, r2
 800376c:	617b      	str	r3, [r7, #20]
 800376e:	79fa      	ldrb	r2, [r7, #7]
 8003770:	79bb      	ldrb	r3, [r7, #6]
 8003772:	4952      	ldr	r1, [pc, #328]	; (80038bc <GetStepVoltage+0x39c>)
 8003774:	0152      	lsls	r2, r2, #5
 8003776:	4413      	add	r3, r2
 8003778:	f851 3033 	ldr.w	r3, [r1, r3, lsl #3]
 800377c:	f3c3 7380 	ubfx	r3, r3, #30, #1
 8003780:	b2db      	uxtb	r3, r3
 8003782:	2b00      	cmp	r3, #0
 8003784:	d034      	beq.n	80037f0 <GetStepVoltage+0x2d0>
 8003786:	693b      	ldr	r3, [r7, #16]
 8003788:	ee07 3a90 	vmov	s15, r3
 800378c:	eef8 6a67 	vcvt.f32.u32	s13, s15
 8003790:	4b4b      	ldr	r3, [pc, #300]	; (80038c0 <GetStepVoltage+0x3a0>)
 8003792:	ed93 7a00 	vldr	s14, [r3]
 8003796:	eec6 7a87 	vdiv.f32	s15, s13, s14
 800379a:	eefc 7ae7 	vcvt.u32.f32	s15, s15
 800379e:	ee17 3a90 	vmov	r3, s15
 80037a2:	617b      	str	r3, [r7, #20]
 80037a4:	79fa      	ldrb	r2, [r7, #7]
 80037a6:	79bb      	ldrb	r3, [r7, #6]
 80037a8:	4944      	ldr	r1, [pc, #272]	; (80038bc <GetStepVoltage+0x39c>)
 80037aa:	0152      	lsls	r2, r2, #5
 80037ac:	4413      	add	r3, r2
 80037ae:	f851 3033 	ldr.w	r3, [r1, r3, lsl #3]
 80037b2:	f3c3 6300 	ubfx	r3, r3, #24, #1
 80037b6:	b2db      	uxtb	r3, r3
 80037b8:	2b00      	cmp	r3, #0
 80037ba:	d013      	beq.n	80037e4 <GetStepVoltage+0x2c4>
 80037bc:	4b41      	ldr	r3, [pc, #260]	; (80038c4 <GetStepVoltage+0x3a4>)
 80037be:	681b      	ldr	r3, [r3, #0]
 80037c0:	4a41      	ldr	r2, [pc, #260]	; (80038c8 <GetStepVoltage+0x3a8>)
 80037c2:	fba2 2303 	umull	r2, r3, r2, r3
 80037c6:	08db      	lsrs	r3, r3, #3
 80037c8:	697a      	ldr	r2, [r7, #20]
 80037ca:	fbb2 f3f3 	udiv	r3, r2, r3
 80037ce:	617b      	str	r3, [r7, #20]
 80037d0:	4b3c      	ldr	r3, [pc, #240]	; (80038c4 <GetStepVoltage+0x3a4>)
 80037d2:	681b      	ldr	r3, [r3, #0]
 80037d4:	4a3c      	ldr	r2, [pc, #240]	; (80038c8 <GetStepVoltage+0x3a8>)
 80037d6:	fba2 2303 	umull	r2, r3, r2, r3
 80037da:	08da      	lsrs	r2, r3, #3
 80037dc:	697b      	ldr	r3, [r7, #20]
 80037de:	fb02 f303 	mul.w	r3, r2, r3
 80037e2:	617b      	str	r3, [r7, #20]
 80037e4:	4b37      	ldr	r3, [pc, #220]	; (80038c4 <GetStepVoltage+0x3a4>)
 80037e6:	681b      	ldr	r3, [r3, #0]
 80037e8:	005b      	lsls	r3, r3, #1
 80037ea:	697a      	ldr	r2, [r7, #20]
 80037ec:	4413      	add	r3, r2
 80037ee:	617b      	str	r3, [r7, #20]
 80037f0:	79fa      	ldrb	r2, [r7, #7]
 80037f2:	79bb      	ldrb	r3, [r7, #6]
 80037f4:	4931      	ldr	r1, [pc, #196]	; (80038bc <GetStepVoltage+0x39c>)
 80037f6:	0152      	lsls	r2, r2, #5
 80037f8:	4413      	add	r3, r2
 80037fa:	f851 3033 	ldr.w	r3, [r1, r3, lsl #3]
 80037fe:	f3c3 73c0 	ubfx	r3, r3, #31, #1
 8003802:	b2db      	uxtb	r3, r3
 8003804:	2b00      	cmp	r3, #0
 8003806:	d036      	beq.n	8003876 <GetStepVoltage+0x356>
 8003808:	693b      	ldr	r3, [r7, #16]
 800380a:	ee07 3a90 	vmov	s15, r3
 800380e:	eef8 6a67 	vcvt.f32.u32	s13, s15
 8003812:	4b2b      	ldr	r3, [pc, #172]	; (80038c0 <GetStepVoltage+0x3a0>)
 8003814:	ed93 7a00 	vldr	s14, [r3]
 8003818:	eec6 7a87 	vdiv.f32	s15, s13, s14
 800381c:	eefc 7ae7 	vcvt.u32.f32	s15, s15
 8003820:	ee17 3a90 	vmov	r3, s15
 8003824:	617b      	str	r3, [r7, #20]
 8003826:	79fa      	ldrb	r2, [r7, #7]
 8003828:	79bb      	ldrb	r3, [r7, #6]
 800382a:	4924      	ldr	r1, [pc, #144]	; (80038bc <GetStepVoltage+0x39c>)
 800382c:	0152      	lsls	r2, r2, #5
 800382e:	4413      	add	r3, r2
 8003830:	f851 3033 	ldr.w	r3, [r1, r3, lsl #3]
 8003834:	f3c3 6300 	ubfx	r3, r3, #24, #1
 8003838:	b2db      	uxtb	r3, r3
 800383a:	2b00      	cmp	r3, #0
 800383c:	d013      	beq.n	8003866 <GetStepVoltage+0x346>
 800383e:	4b21      	ldr	r3, [pc, #132]	; (80038c4 <GetStepVoltage+0x3a4>)
 8003840:	681b      	ldr	r3, [r3, #0]
 8003842:	4a21      	ldr	r2, [pc, #132]	; (80038c8 <GetStepVoltage+0x3a8>)
 8003844:	fba2 2303 	umull	r2, r3, r2, r3
 8003848:	08db      	lsrs	r3, r3, #3
 800384a:	697a      	ldr	r2, [r7, #20]
 800384c:	fbb2 f3f3 	udiv	r3, r2, r3
 8003850:	617b      	str	r3, [r7, #20]
 8003852:	4b1c      	ldr	r3, [pc, #112]	; (80038c4 <GetStepVoltage+0x3a4>)
 8003854:	681b      	ldr	r3, [r3, #0]
 8003856:	4a1c      	ldr	r2, [pc, #112]	; (80038c8 <GetStepVoltage+0x3a8>)
 8003858:	fba2 2303 	umull	r2, r3, r2, r3
 800385c:	08da      	lsrs	r2, r3, #3
 800385e:	697b      	ldr	r3, [r7, #20]
 8003860:	fb02 f303 	mul.w	r3, r2, r3
 8003864:	617b      	str	r3, [r7, #20]
 8003866:	4b17      	ldr	r3, [pc, #92]	; (80038c4 <GetStepVoltage+0x3a4>)
 8003868:	681a      	ldr	r2, [r3, #0]
 800386a:	4613      	mov	r3, r2
 800386c:	005b      	lsls	r3, r3, #1
 800386e:	4413      	add	r3, r2
 8003870:	697a      	ldr	r2, [r7, #20]
 8003872:	4413      	add	r3, r2
 8003874:	617b      	str	r3, [r7, #20]
 8003876:	79fa      	ldrb	r2, [r7, #7]
 8003878:	79bb      	ldrb	r3, [r7, #6]
 800387a:	4910      	ldr	r1, [pc, #64]	; (80038bc <GetStepVoltage+0x39c>)
 800387c:	0152      	lsls	r2, r2, #5
 800387e:	4413      	add	r3, r2
 8003880:	00db      	lsls	r3, r3, #3
 8003882:	440b      	add	r3, r1
 8003884:	685b      	ldr	r3, [r3, #4]
 8003886:	f3c3 0300 	ubfx	r3, r3, #0, #1
 800388a:	b2db      	uxtb	r3, r3
 800388c:	2b00      	cmp	r3, #0
 800388e:	d03e      	beq.n	800390e <GetStepVoltage+0x3ee>
 8003890:	693b      	ldr	r3, [r7, #16]
 8003892:	ee07 3a90 	vmov	s15, r3
 8003896:	eef8 6a67 	vcvt.f32.u32	s13, s15
 800389a:	4b09      	ldr	r3, [pc, #36]	; (80038c0 <GetStepVoltage+0x3a0>)
 800389c:	ed93 7a00 	vldr	s14, [r3]
 80038a0:	eec6 7a87 	vdiv.f32	s15, s13, s14
 80038a4:	eefc 7ae7 	vcvt.u32.f32	s15, s15
 80038a8:	ee17 3a90 	vmov	r3, s15
 80038ac:	617b      	str	r3, [r7, #20]
 80038ae:	79fa      	ldrb	r2, [r7, #7]
 80038b0:	79bb      	ldrb	r3, [r7, #6]
 80038b2:	4902      	ldr	r1, [pc, #8]	; (80038bc <GetStepVoltage+0x39c>)
 80038b4:	0152      	lsls	r2, r2, #5
 80038b6:	4413      	add	r3, r2
 80038b8:	e008      	b.n	80038cc <GetStepVoltage+0x3ac>
 80038ba:	bf00      	nop
 80038bc:	20000948 	.word	0x20000948
 80038c0:	200008bc 	.word	0x200008bc
 80038c4:	20000944 	.word	0x20000944
 80038c8:	aaaaaaab 	.word	0xaaaaaaab
 80038cc:	f851 3033 	ldr.w	r3, [r1, r3, lsl #3]
 80038d0:	f3c3 6300 	ubfx	r3, r3, #24, #1
 80038d4:	b2db      	uxtb	r3, r3
 80038d6:	2b00      	cmp	r3, #0
 80038d8:	d013      	beq.n	8003902 <GetStepVoltage+0x3e2>
 80038da:	4b10      	ldr	r3, [pc, #64]	; (800391c <GetStepVoltage+0x3fc>)
 80038dc:	681b      	ldr	r3, [r3, #0]
 80038de:	4a10      	ldr	r2, [pc, #64]	; (8003920 <GetStepVoltage+0x400>)
 80038e0:	fba2 2303 	umull	r2, r3, r2, r3
 80038e4:	08db      	lsrs	r3, r3, #3
 80038e6:	697a      	ldr	r2, [r7, #20]
 80038e8:	fbb2 f3f3 	udiv	r3, r2, r3
 80038ec:	617b      	str	r3, [r7, #20]
 80038ee:	4b0b      	ldr	r3, [pc, #44]	; (800391c <GetStepVoltage+0x3fc>)
 80038f0:	681b      	ldr	r3, [r3, #0]
 80038f2:	4a0b      	ldr	r2, [pc, #44]	; (8003920 <GetStepVoltage+0x400>)
 80038f4:	fba2 2303 	umull	r2, r3, r2, r3
 80038f8:	08da      	lsrs	r2, r3, #3
 80038fa:	697b      	ldr	r3, [r7, #20]
 80038fc:	fb02 f303 	mul.w	r3, r2, r3
 8003900:	617b      	str	r3, [r7, #20]
 8003902:	4b06      	ldr	r3, [pc, #24]	; (800391c <GetStepVoltage+0x3fc>)
 8003904:	681b      	ldr	r3, [r3, #0]
 8003906:	009b      	lsls	r3, r3, #2
 8003908:	697a      	ldr	r2, [r7, #20]
 800390a:	4413      	add	r3, r2
 800390c:	617b      	str	r3, [r7, #20]
 800390e:	697b      	ldr	r3, [r7, #20]
 8003910:	4618      	mov	r0, r3
 8003912:	371c      	adds	r7, #28
 8003914:	46bd      	mov	sp, r7
 8003916:	f85d 7b04 	ldr.w	r7, [sp], #4
 800391a:	4770      	bx	lr
 800391c:	20000944 	.word	0x20000944
 8003920:	aaaaaaab 	.word	0xaaaaaaab

08003924 <GetNextStep>:
 8003924:	b580      	push	{r7, lr}
 8003926:	b084      	sub	sp, #16
 8003928:	af00      	add	r7, sp, #0
 800392a:	4603      	mov	r3, r0
 800392c:	460a      	mov	r2, r1
 800392e:	71fb      	strb	r3, [r7, #7]
 8003930:	4613      	mov	r3, r2
 8003932:	71bb      	strb	r3, [r7, #6]
 8003934:	2300      	movs	r3, #0
 8003936:	73fb      	strb	r3, [r7, #15]
 8003938:	2300      	movs	r3, #0
 800393a:	73bb      	strb	r3, [r7, #14]
 800393c:	2300      	movs	r3, #0
 800393e:	737b      	strb	r3, [r7, #13]
 8003940:	f7fe fa59 	bl	8001df6 <Is_Expander_Present>
 8003944:	4603      	mov	r3, r0
 8003946:	2b00      	cmp	r3, #0
 8003948:	d002      	beq.n	8003950 <GetNextStep+0x2c>
 800394a:	231f      	movs	r3, #31
 800394c:	733b      	strb	r3, [r7, #12]
 800394e:	e006      	b.n	800395e <GetNextStep+0x3a>
 8003950:	230f      	movs	r3, #15
 8003952:	733b      	strb	r3, [r7, #12]
 8003954:	79bb      	ldrb	r3, [r7, #6]
 8003956:	2b0f      	cmp	r3, #15
 8003958:	d901      	bls.n	800395e <GetNextStep+0x3a>
 800395a:	2300      	movs	r3, #0
 800395c:	e05d      	b.n	8003a1a <GetNextStep+0xf6>
 800395e:	79fa      	ldrb	r2, [r7, #7]
 8003960:	79bb      	ldrb	r3, [r7, #6]
 8003962:	4930      	ldr	r1, [pc, #192]	; (8003a24 <GetNextStep+0x100>)
 8003964:	0152      	lsls	r2, r2, #5
 8003966:	4413      	add	r3, r2
 8003968:	00db      	lsls	r3, r3, #3
 800396a:	440b      	add	r3, r1
 800396c:	685b      	ldr	r3, [r3, #4]
 800396e:	f3c3 1340 	ubfx	r3, r3, #5, #1
 8003972:	b2db      	uxtb	r3, r3
 8003974:	73bb      	strb	r3, [r7, #14]
 8003976:	7bbb      	ldrb	r3, [r7, #14]
 8003978:	2b00      	cmp	r3, #0
 800397a:	d040      	beq.n	80039fe <GetNextStep+0xda>
 800397c:	2300      	movs	r3, #0
 800397e:	737b      	strb	r3, [r7, #13]
 8003980:	e039      	b.n	80039f6 <GetNextStep+0xd2>
 8003982:	7b7a      	ldrb	r2, [r7, #13]
 8003984:	79bb      	ldrb	r3, [r7, #6]
 8003986:	429a      	cmp	r2, r3
 8003988:	d813      	bhi.n	80039b2 <GetNextStep+0x8e>
 800398a:	79fa      	ldrb	r2, [r7, #7]
 800398c:	79b9      	ldrb	r1, [r7, #6]
 800398e:	7b7b      	ldrb	r3, [r7, #13]
 8003990:	1acb      	subs	r3, r1, r3
 8003992:	4924      	ldr	r1, [pc, #144]	; (8003a24 <GetNextStep+0x100>)
 8003994:	0152      	lsls	r2, r2, #5
 8003996:	4413      	add	r3, r2
 8003998:	00db      	lsls	r3, r3, #3
 800399a:	440b      	add	r3, r1
 800399c:	685b      	ldr	r3, [r3, #4]
 800399e:	f3c3 1300 	ubfx	r3, r3, #4, #1
 80039a2:	b2db      	uxtb	r3, r3
 80039a4:	2b00      	cmp	r3, #0
 80039a6:	d01d      	beq.n	80039e4 <GetNextStep+0xc0>
 80039a8:	79ba      	ldrb	r2, [r7, #6]
 80039aa:	7b7b      	ldrb	r3, [r7, #13]
 80039ac:	1ad3      	subs	r3, r2, r3
 80039ae:	73fb      	strb	r3, [r7, #15]
 80039b0:	e025      	b.n	80039fe <GetNextStep+0xda>
 80039b2:	79fa      	ldrb	r2, [r7, #7]
 80039b4:	7b39      	ldrb	r1, [r7, #12]
 80039b6:	7b78      	ldrb	r0, [r7, #13]
 80039b8:	79bb      	ldrb	r3, [r7, #6]
 80039ba:	1ac3      	subs	r3, r0, r3
 80039bc:	1acb      	subs	r3, r1, r3
 80039be:	4919      	ldr	r1, [pc, #100]	; (8003a24 <GetNextStep+0x100>)
 80039c0:	0152      	lsls	r2, r2, #5
 80039c2:	4413      	add	r3, r2
 80039c4:	00db      	lsls	r3, r3, #3
 80039c6:	440b      	add	r3, r1
 80039c8:	685b      	ldr	r3, [r3, #4]
 80039ca:	f3c3 1300 	ubfx	r3, r3, #4, #1
 80039ce:	b2db      	uxtb	r3, r3
 80039d0:	2b00      	cmp	r3, #0
 80039d2:	d007      	beq.n	80039e4 <GetNextStep+0xc0>
 80039d4:	79ba      	ldrb	r2, [r7, #6]
 80039d6:	7b7b      	ldrb	r3, [r7, #13]
 80039d8:	1ad3      	subs	r3, r2, r3
 80039da:	b2da      	uxtb	r2, r3
 80039dc:	7b3b      	ldrb	r3, [r7, #12]
 80039de:	4413      	add	r3, r2
 80039e0:	73fb      	strb	r3, [r7, #15]
 80039e2:	e00c      	b.n	80039fe <GetNextStep+0xda>
 80039e4:	7b7a      	ldrb	r2, [r7, #13]
 80039e6:	7b3b      	ldrb	r3, [r7, #12]
 80039e8:	429a      	cmp	r2, r3
 80039ea:	d101      	bne.n	80039f0 <GetNextStep+0xcc>
 80039ec:	2300      	movs	r3, #0
 80039ee:	73bb      	strb	r3, [r7, #14]
 80039f0:	7b7b      	ldrb	r3, [r7, #13]
 80039f2:	3301      	adds	r3, #1
 80039f4:	737b      	strb	r3, [r7, #13]
 80039f6:	7b7a      	ldrb	r2, [r7, #13]
 80039f8:	7b3b      	ldrb	r3, [r7, #12]
 80039fa:	429a      	cmp	r2, r3
 80039fc:	d9c1      	bls.n	8003982 <GetNextStep+0x5e>
 80039fe:	7bbb      	ldrb	r3, [r7, #14]
 8003a00:	2b00      	cmp	r3, #0
 8003a02:	d109      	bne.n	8003a18 <GetNextStep+0xf4>
 8003a04:	79ba      	ldrb	r2, [r7, #6]
 8003a06:	7b3b      	ldrb	r3, [r7, #12]
 8003a08:	429a      	cmp	r2, r3
 8003a0a:	d302      	bcc.n	8003a12 <GetNextStep+0xee>
 8003a0c:	2300      	movs	r3, #0
 8003a0e:	73fb      	strb	r3, [r7, #15]
 8003a10:	e002      	b.n	8003a18 <GetNextStep+0xf4>
 8003a12:	79bb      	ldrb	r3, [r7, #6]
 8003a14:	3301      	adds	r3, #1
 8003a16:	73fb      	strb	r3, [r7, #15]
 8003a18:	7bfb      	ldrb	r3, [r7, #15]
 8003a1a:	4618      	mov	r0, r3
 8003a1c:	3710      	adds	r7, #16
 8003a1e:	46bd      	mov	sp, r7
 8003a20:	bd80      	pop	{r7, pc}
 8003a22:	bf00      	nop
 8003a24:	20000948 	.word	0x20000948

08003a28 <TIM4_IRQHandler>:
 8003a28:	b5b0      	push	{r4, r5, r7, lr}
 8003a2a:	b084      	sub	sp, #16
 8003a2c:	af00      	add	r7, sp, #0
 8003a2e:	2300      	movs	r3, #0
 8003a30:	60fb      	str	r3, [r7, #12]
 8003a32:	4b5c      	ldr	r3, [pc, #368]	; (8003ba4 <TIM4_IRQHandler+0x17c>)
 8003a34:	f64f 72fe 	movw	r2, #65534	; 0xfffe
 8003a38:	821a      	strh	r2, [r3, #16]
 8003a3a:	4b5b      	ldr	r3, [pc, #364]	; (8003ba8 <TIM4_IRQHandler+0x180>)
 8003a3c:	781b      	ldrb	r3, [r3, #0]
 8003a3e:	b2db      	uxtb	r3, r3
 8003a40:	4619      	mov	r1, r3
 8003a42:	2000      	movs	r0, #0
 8003a44:	f7ff fc64 	bl	8003310 <GetStepWidth>
 8003a48:	60f8      	str	r0, [r7, #12]
 8003a4a:	4b58      	ldr	r3, [pc, #352]	; (8003bac <TIM4_IRQHandler+0x184>)
 8003a4c:	891b      	ldrh	r3, [r3, #8]
 8003a4e:	b29b      	uxth	r3, r3
 8003a50:	ee07 3a90 	vmov	s15, r3
 8003a54:	eef8 7a67 	vcvt.f32.u32	s15, s15
 8003a58:	eeb0 7a0c 	vmov.f32	s14, #12	; 0x40600000  3.5
 8003a5c:	ee67 6a87 	vmul.f32	s13, s15, s14
 8003a60:	4b53      	ldr	r3, [pc, #332]	; (8003bb0 <TIM4_IRQHandler+0x188>)
 8003a62:	691b      	ldr	r3, [r3, #16]
 8003a64:	ee07 3a90 	vmov	s15, r3
 8003a68:	eeb8 7a67 	vcvt.f32.u32	s14, s15
 8003a6c:	eec6 7a87 	vdiv.f32	s15, s13, s14
 8003a70:	eeb6 7a00 	vmov.f32	s14, #96	; 0x3f000000  0.5
 8003a74:	ee77 7a87 	vadd.f32	s15, s15, s14
 8003a78:	ed9f 7a4e 	vldr	s14, [pc, #312]	; 8003bb4 <TIM4_IRQHandler+0x18c>
 8003a7c:	ee67 7a87 	vmul.f32	s15, s15, s14
 8003a80:	4b48      	ldr	r3, [pc, #288]	; (8003ba4 <TIM4_IRQHandler+0x17c>)
 8003a82:	eefc 7ae7 	vcvt.u32.f32	s15, s15
 8003a86:	ee17 2a90 	vmov	r2, s15
 8003a8a:	b292      	uxth	r2, r2
 8003a8c:	851a      	strh	r2, [r3, #40]	; 0x28
 8003a8e:	4b46      	ldr	r3, [pc, #280]	; (8003ba8 <TIM4_IRQHandler+0x180>)
 8003a90:	781b      	ldrb	r3, [r3, #0]
 8003a92:	b2db      	uxtb	r3, r3
 8003a94:	461a      	mov	r2, r3
 8003a96:	4b48      	ldr	r3, [pc, #288]	; (8003bb8 <TIM4_IRQHandler+0x190>)
 8003a98:	f853 3032 	ldr.w	r3, [r3, r2, lsl #3]
 8003a9c:	f3c3 6340 	ubfx	r3, r3, #25, #1
 8003aa0:	b2db      	uxtb	r3, r3
 8003aa2:	2b00      	cmp	r3, #0
 8003aa4:	f000 8090 	beq.w	8003bc8 <TIM4_IRQHandler+0x1a0>
 8003aa8:	4b3f      	ldr	r3, [pc, #252]	; (8003ba8 <TIM4_IRQHandler+0x180>)
 8003aaa:	781b      	ldrb	r3, [r3, #0]
 8003aac:	b2db      	uxtb	r3, r3
 8003aae:	4619      	mov	r1, r3
 8003ab0:	2000      	movs	r0, #0
 8003ab2:	f7ff fd35 	bl	8003520 <GetStepVoltage>
 8003ab6:	60b8      	str	r0, [r7, #8]
 8003ab8:	4b40      	ldr	r3, [pc, #256]	; (8003bbc <TIM4_IRQHandler+0x194>)
 8003aba:	781b      	ldrb	r3, [r3, #0]
 8003abc:	b2db      	uxtb	r3, r3
 8003abe:	2b00      	cmp	r3, #0
 8003ac0:	d004      	beq.n	8003acc <TIM4_IRQHandler+0xa4>
 8003ac2:	4b3e      	ldr	r3, [pc, #248]	; (8003bbc <TIM4_IRQHandler+0x194>)
 8003ac4:	781b      	ldrb	r3, [r3, #0]
 8003ac6:	b2db      	uxtb	r3, r3
 8003ac8:	2b06      	cmp	r3, #6
 8003aca:	d15c      	bne.n	8003b86 <TIM4_IRQHandler+0x15e>
 8003acc:	4b3c      	ldr	r3, [pc, #240]	; (8003bc0 <TIM4_IRQHandler+0x198>)
 8003ace:	681b      	ldr	r3, [r3, #0]
 8003ad0:	68ba      	ldr	r2, [r7, #8]
 8003ad2:	429a      	cmp	r2, r3
 8003ad4:	d228      	bcs.n	8003b28 <TIM4_IRQHandler+0x100>
 8003ad6:	4b3a      	ldr	r3, [pc, #232]	; (8003bc0 <TIM4_IRQHandler+0x198>)
 8003ad8:	681a      	ldr	r2, [r3, #0]
 8003ada:	68bb      	ldr	r3, [r7, #8]
 8003adc:	1ad3      	subs	r3, r2, r3
 8003ade:	ee07 3a90 	vmov	s15, r3
 8003ae2:	eef8 6a67 	vcvt.f32.u32	s13, s15
 8003ae6:	68fb      	ldr	r3, [r7, #12]
 8003ae8:	ee07 3a90 	vmov	s15, r3
 8003aec:	eeb8 7a67 	vcvt.f32.u32	s14, s15
 8003af0:	eec6 7a87 	vdiv.f32	s15, s13, s14
 8003af4:	edc7 7a01 	vstr	s15, [r7, #4]
 8003af8:	4b31      	ldr	r3, [pc, #196]	; (8003bc0 <TIM4_IRQHandler+0x198>)
 8003afa:	681b      	ldr	r3, [r3, #0]
 8003afc:	b29a      	uxth	r2, r3
 8003afe:	4b31      	ldr	r3, [pc, #196]	; (8003bc4 <TIM4_IRQHandler+0x19c>)
 8003b00:	681b      	ldr	r3, [r3, #0]
 8003b02:	ee07 3a90 	vmov	s15, r3
 8003b06:	eeb8 7a67 	vcvt.f32.u32	s14, s15
 8003b0a:	edd7 7a01 	vldr	s15, [r7, #4]
 8003b0e:	ee67 7a27 	vmul.f32	s15, s14, s15
 8003b12:	eefc 7ae7 	vcvt.u32.f32	s15, s15
 8003b16:	ee17 3a90 	vmov	r3, s15
 8003b1a:	b29b      	uxth	r3, r3
 8003b1c:	1ad3      	subs	r3, r2, r3
 8003b1e:	b29b      	uxth	r3, r3
 8003b20:	4619      	mov	r1, r3
 8003b22:	2000      	movs	r0, #0
 8003b24:	f7fd fa0a 	bl	8000f3c <DAC_SetChannel1Data>
 8003b28:	4b25      	ldr	r3, [pc, #148]	; (8003bc0 <TIM4_IRQHandler+0x198>)
 8003b2a:	681b      	ldr	r3, [r3, #0]
 8003b2c:	68ba      	ldr	r2, [r7, #8]
 8003b2e:	429a      	cmp	r2, r3
 8003b30:	d957      	bls.n	8003be2 <TIM4_IRQHandler+0x1ba>
 8003b32:	4b23      	ldr	r3, [pc, #140]	; (8003bc0 <TIM4_IRQHandler+0x198>)
 8003b34:	681b      	ldr	r3, [r3, #0]
 8003b36:	68ba      	ldr	r2, [r7, #8]
 8003b38:	1ad3      	subs	r3, r2, r3
 8003b3a:	ee07 3a90 	vmov	s15, r3
 8003b3e:	eef8 6a67 	vcvt.f32.u32	s13, s15
 8003b42:	68fb      	ldr	r3, [r7, #12]
 8003b44:	ee07 3a90 	vmov	s15, r3
 8003b48:	eeb8 7a67 	vcvt.f32.u32	s14, s15
 8003b4c:	eec6 7a87 	vdiv.f32	s15, s13, s14
 8003b50:	edc7 7a01 	vstr	s15, [r7, #4]
 8003b54:	4b1b      	ldr	r3, [pc, #108]	; (8003bc4 <TIM4_IRQHandler+0x19c>)
 8003b56:	681b      	ldr	r3, [r3, #0]
 8003b58:	ee07 3a90 	vmov	s15, r3
 8003b5c:	eeb8 7a67 	vcvt.f32.u32	s14, s15
 8003b60:	edd7 7a01 	vldr	s15, [r7, #4]
 8003b64:	ee67 7a27 	vmul.f32	s15, s14, s15
 8003b68:	eefc 7ae7 	vcvt.u32.f32	s15, s15
 8003b6c:	ee17 3a90 	vmov	r3, s15
 8003b70:	b29a      	uxth	r2, r3
 8003b72:	4b13      	ldr	r3, [pc, #76]	; (8003bc0 <TIM4_IRQHandler+0x198>)
 8003b74:	681b      	ldr	r3, [r3, #0]
 8003b76:	b29b      	uxth	r3, r3
 8003b78:	4413      	add	r3, r2
 8003b7a:	b29b      	uxth	r3, r3
 8003b7c:	4619      	mov	r1, r3
 8003b7e:	2000      	movs	r0, #0
 8003b80:	f7fd f9dc 	bl	8000f3c <DAC_SetChannel1Data>
 8003b84:	e02d      	b.n	8003be2 <TIM4_IRQHandler+0x1ba>
 8003b86:	4b08      	ldr	r3, [pc, #32]	; (8003ba8 <TIM4_IRQHandler+0x180>)
 8003b88:	781b      	ldrb	r3, [r3, #0]
 8003b8a:	b2db      	uxtb	r3, r3
 8003b8c:	4619      	mov	r1, r3
 8003b8e:	2000      	movs	r0, #0
 8003b90:	f7ff fcc6 	bl	8003520 <GetStepVoltage>
 8003b94:	4603      	mov	r3, r0
 8003b96:	b29b      	uxth	r3, r3
 8003b98:	4619      	mov	r1, r3
 8003b9a:	2000      	movs	r0, #0
 8003b9c:	f7fd f9ce 	bl	8000f3c <DAC_SetChannel1Data>
 8003ba0:	e01f      	b.n	8003be2 <TIM4_IRQHandler+0x1ba>
 8003ba2:	bf00      	nop
 8003ba4:	40000800 	.word	0x40000800
 8003ba8:	20000297 	.word	0x20000297
 8003bac:	20000828 	.word	0x20000828
 8003bb0:	20000250 	.word	0x20000250
 8003bb4:	46241000 	.word	0x46241000
 8003bb8:	20000948 	.word	0x20000948
 8003bbc:	200002ad 	.word	0x200002ad
 8003bc0:	200002b4 	.word	0x200002b4
 8003bc4:	200002a4 	.word	0x200002a4
 8003bc8:	4bb7      	ldr	r3, [pc, #732]	; (8003ea8 <TIM4_IRQHandler+0x480>)
 8003bca:	781b      	ldrb	r3, [r3, #0]
 8003bcc:	b2db      	uxtb	r3, r3
 8003bce:	4619      	mov	r1, r3
 8003bd0:	2000      	movs	r0, #0
 8003bd2:	f7ff fca5 	bl	8003520 <GetStepVoltage>
 8003bd6:	4603      	mov	r3, r0
 8003bd8:	b29b      	uxth	r3, r3
 8003bda:	4619      	mov	r1, r3
 8003bdc:	2000      	movs	r0, #0
 8003bde:	f7fd f9ad 	bl	8000f3c <DAC_SetChannel1Data>
 8003be2:	4bb1      	ldr	r3, [pc, #708]	; (8003ea8 <TIM4_IRQHandler+0x480>)
 8003be4:	781b      	ldrb	r3, [r3, #0]
 8003be6:	b2db      	uxtb	r3, r3
 8003be8:	461a      	mov	r2, r3
 8003bea:	4bb0      	ldr	r3, [pc, #704]	; (8003eac <TIM4_IRQHandler+0x484>)
 8003bec:	f853 3032 	ldr.w	r3, [r3, r2, lsl #3]
 8003bf0:	f3c3 330b 	ubfx	r3, r3, #12, #12
 8003bf4:	b29b      	uxth	r3, r3
 8003bf6:	109b      	asrs	r3, r3, #2
 8003bf8:	4619      	mov	r1, r3
 8003bfa:	2000      	movs	r0, #0
 8003bfc:	f7fd ff6a 	bl	8001ad4 <MAX5135_DAC_send>
 8003c00:	68f8      	ldr	r0, [r7, #12]
 8003c02:	f7fc fc2b 	bl	800045c <__aeabi_ui2d>
 8003c06:	4603      	mov	r3, r0
 8003c08:	460c      	mov	r4, r1
 8003c0a:	461a      	mov	r2, r3
 8003c0c:	4623      	mov	r3, r4
 8003c0e:	a1a4      	add	r1, pc, #656	; (adr r1, 8003ea0 <TIM4_IRQHandler+0x478>)
 8003c10:	e9d1 0100 	ldrd	r0, r1, [r1]
 8003c14:	f7fc fdc6 	bl	80007a4 <__aeabi_ddiv>
 8003c18:	4603      	mov	r3, r0
 8003c1a:	460c      	mov	r4, r1
 8003c1c:	4625      	mov	r5, r4
 8003c1e:	461c      	mov	r4, r3
 8003c20:	4ba3      	ldr	r3, [pc, #652]	; (8003eb0 <TIM4_IRQHandler+0x488>)
 8003c22:	681b      	ldr	r3, [r3, #0]
 8003c24:	4618      	mov	r0, r3
 8003c26:	f7fc fc19 	bl	800045c <__aeabi_ui2d>
 8003c2a:	4602      	mov	r2, r0
 8003c2c:	460b      	mov	r3, r1
 8003c2e:	4620      	mov	r0, r4
 8003c30:	4629      	mov	r1, r5
 8003c32:	f7fc fc8d 	bl	8000550 <__aeabi_dmul>
 8003c36:	4603      	mov	r3, r0
 8003c38:	460c      	mov	r4, r1
 8003c3a:	4618      	mov	r0, r3
 8003c3c:	4621      	mov	r1, r4
 8003c3e:	f7fc fe99 	bl	8000974 <__aeabi_d2uiz>
 8003c42:	4603      	mov	r3, r0
 8003c44:	f5c3 737f 	rsb	r3, r3, #1020	; 0x3fc
 8003c48:	3303      	adds	r3, #3
 8003c4a:	4619      	mov	r1, r3
 8003c4c:	2001      	movs	r0, #1
 8003c4e:	f7fd ff41 	bl	8001ad4 <MAX5135_DAC_send>
 8003c52:	4b98      	ldr	r3, [pc, #608]	; (8003eb4 <TIM4_IRQHandler+0x48c>)
 8003c54:	781b      	ldrb	r3, [r3, #0]
 8003c56:	b2db      	uxtb	r3, r3
 8003c58:	2b00      	cmp	r3, #0
 8003c5a:	d004      	beq.n	8003c66 <TIM4_IRQHandler+0x23e>
 8003c5c:	4b95      	ldr	r3, [pc, #596]	; (8003eb4 <TIM4_IRQHandler+0x48c>)
 8003c5e:	781b      	ldrb	r3, [r3, #0]
 8003c60:	b2db      	uxtb	r3, r3
 8003c62:	2b06      	cmp	r3, #6
 8003c64:	d104      	bne.n	8003c70 <TIM4_IRQHandler+0x248>
 8003c66:	4b92      	ldr	r3, [pc, #584]	; (8003eb0 <TIM4_IRQHandler+0x488>)
 8003c68:	681b      	ldr	r3, [r3, #0]
 8003c6a:	3301      	adds	r3, #1
 8003c6c:	4a90      	ldr	r2, [pc, #576]	; (8003eb0 <TIM4_IRQHandler+0x488>)
 8003c6e:	6013      	str	r3, [r2, #0]
 8003c70:	4b8f      	ldr	r3, [pc, #572]	; (8003eb0 <TIM4_IRQHandler+0x488>)
 8003c72:	681b      	ldr	r3, [r3, #0]
 8003c74:	68fa      	ldr	r2, [r7, #12]
 8003c76:	429a      	cmp	r2, r3
 8003c78:	f200 8153 	bhi.w	8003f22 <TIM4_IRQHandler+0x4fa>
 8003c7c:	4b8a      	ldr	r3, [pc, #552]	; (8003ea8 <TIM4_IRQHandler+0x480>)
 8003c7e:	781b      	ldrb	r3, [r3, #0]
 8003c80:	b2db      	uxtb	r3, r3
 8003c82:	4619      	mov	r1, r3
 8003c84:	2000      	movs	r0, #0
 8003c86:	f7ff fc4b 	bl	8003520 <GetStepVoltage>
 8003c8a:	4602      	mov	r2, r0
 8003c8c:	4b8a      	ldr	r3, [pc, #552]	; (8003eb8 <TIM4_IRQHandler+0x490>)
 8003c8e:	601a      	str	r2, [r3, #0]
 8003c90:	4b88      	ldr	r3, [pc, #544]	; (8003eb4 <TIM4_IRQHandler+0x48c>)
 8003c92:	781b      	ldrb	r3, [r3, #0]
 8003c94:	b2db      	uxtb	r3, r3
 8003c96:	2b06      	cmp	r3, #6
 8003c98:	d102      	bne.n	8003ca0 <TIM4_IRQHandler+0x278>
 8003c9a:	4b86      	ldr	r3, [pc, #536]	; (8003eb4 <TIM4_IRQHandler+0x48c>)
 8003c9c:	2202      	movs	r2, #2
 8003c9e:	701a      	strb	r2, [r3, #0]
 8003ca0:	4b81      	ldr	r3, [pc, #516]	; (8003ea8 <TIM4_IRQHandler+0x480>)
 8003ca2:	781b      	ldrb	r3, [r3, #0]
 8003ca4:	b2db      	uxtb	r3, r3
 8003ca6:	4a81      	ldr	r2, [pc, #516]	; (8003eac <TIM4_IRQHandler+0x484>)
 8003ca8:	00db      	lsls	r3, r3, #3
 8003caa:	4413      	add	r3, r2
 8003cac:	685b      	ldr	r3, [r3, #4]
 8003cae:	f3c3 0340 	ubfx	r3, r3, #1, #1
 8003cb2:	b2db      	uxtb	r3, r3
 8003cb4:	2b00      	cmp	r3, #0
 8003cb6:	d007      	beq.n	8003cc8 <TIM4_IRQHandler+0x2a0>
 8003cb8:	4b7e      	ldr	r3, [pc, #504]	; (8003eb4 <TIM4_IRQHandler+0x48c>)
 8003cba:	781b      	ldrb	r3, [r3, #0]
 8003cbc:	b2da      	uxtb	r2, r3
 8003cbe:	4b7f      	ldr	r3, [pc, #508]	; (8003ebc <TIM4_IRQHandler+0x494>)
 8003cc0:	701a      	strb	r2, [r3, #0]
 8003cc2:	4b7c      	ldr	r3, [pc, #496]	; (8003eb4 <TIM4_IRQHandler+0x48c>)
 8003cc4:	2202      	movs	r2, #2
 8003cc6:	701a      	strb	r2, [r3, #0]
 8003cc8:	4b77      	ldr	r3, [pc, #476]	; (8003ea8 <TIM4_IRQHandler+0x480>)
 8003cca:	781b      	ldrb	r3, [r3, #0]
 8003ccc:	b2db      	uxtb	r3, r3
 8003cce:	4a77      	ldr	r2, [pc, #476]	; (8003eac <TIM4_IRQHandler+0x484>)
 8003cd0:	00db      	lsls	r3, r3, #3
 8003cd2:	4413      	add	r3, r2
 8003cd4:	685b      	ldr	r3, [r3, #4]
 8003cd6:	f3c3 03c0 	ubfx	r3, r3, #3, #1
 8003cda:	b2db      	uxtb	r3, r3
 8003cdc:	2b00      	cmp	r3, #0
 8003cde:	d014      	beq.n	8003d0a <TIM4_IRQHandler+0x2e2>
 8003ce0:	f44f 7180 	mov.w	r1, #256	; 0x100
 8003ce4:	4876      	ldr	r0, [pc, #472]	; (8003ec0 <TIM4_IRQHandler+0x498>)
 8003ce6:	f7fd f9e8 	bl	80010ba <GPIO_ReadInputDataBit>
 8003cea:	4603      	mov	r3, r0
 8003cec:	2b00      	cmp	r3, #0
 8003cee:	d10c      	bne.n	8003d0a <TIM4_IRQHandler+0x2e2>
 8003cf0:	4b70      	ldr	r3, [pc, #448]	; (8003eb4 <TIM4_IRQHandler+0x48c>)
 8003cf2:	781b      	ldrb	r3, [r3, #0]
 8003cf4:	b2db      	uxtb	r3, r3
 8003cf6:	2b04      	cmp	r3, #4
 8003cf8:	d007      	beq.n	8003d0a <TIM4_IRQHandler+0x2e2>
 8003cfa:	4b6e      	ldr	r3, [pc, #440]	; (8003eb4 <TIM4_IRQHandler+0x48c>)
 8003cfc:	781b      	ldrb	r3, [r3, #0]
 8003cfe:	b2da      	uxtb	r2, r3
 8003d00:	4b6e      	ldr	r3, [pc, #440]	; (8003ebc <TIM4_IRQHandler+0x494>)
 8003d02:	701a      	strb	r2, [r3, #0]
 8003d04:	4b6b      	ldr	r3, [pc, #428]	; (8003eb4 <TIM4_IRQHandler+0x48c>)
 8003d06:	2204      	movs	r2, #4
 8003d08:	701a      	strb	r2, [r3, #0]
 8003d0a:	4b67      	ldr	r3, [pc, #412]	; (8003ea8 <TIM4_IRQHandler+0x480>)
 8003d0c:	781b      	ldrb	r3, [r3, #0]
 8003d0e:	b2db      	uxtb	r3, r3
 8003d10:	4a66      	ldr	r2, [pc, #408]	; (8003eac <TIM4_IRQHandler+0x484>)
 8003d12:	00db      	lsls	r3, r3, #3
 8003d14:	4413      	add	r3, r2
 8003d16:	685b      	ldr	r3, [r3, #4]
 8003d18:	f3c3 0380 	ubfx	r3, r3, #2, #1
 8003d1c:	b2db      	uxtb	r3, r3
 8003d1e:	2b00      	cmp	r3, #0
 8003d20:	d00f      	beq.n	8003d42 <TIM4_IRQHandler+0x31a>
 8003d22:	f44f 7180 	mov.w	r1, #256	; 0x100
 8003d26:	4866      	ldr	r0, [pc, #408]	; (8003ec0 <TIM4_IRQHandler+0x498>)
 8003d28:	f7fd f9c7 	bl	80010ba <GPIO_ReadInputDataBit>
 8003d2c:	4603      	mov	r3, r0
 8003d2e:	2b01      	cmp	r3, #1
 8003d30:	d107      	bne.n	8003d42 <TIM4_IRQHandler+0x31a>
 8003d32:	4b60      	ldr	r3, [pc, #384]	; (8003eb4 <TIM4_IRQHandler+0x48c>)
 8003d34:	781b      	ldrb	r3, [r3, #0]
 8003d36:	b2da      	uxtb	r2, r3
 8003d38:	4b60      	ldr	r3, [pc, #384]	; (8003ebc <TIM4_IRQHandler+0x494>)
 8003d3a:	701a      	strb	r2, [r3, #0]
 8003d3c:	4b5d      	ldr	r3, [pc, #372]	; (8003eb4 <TIM4_IRQHandler+0x48c>)
 8003d3e:	2205      	movs	r2, #5
 8003d40:	701a      	strb	r2, [r3, #0]
 8003d42:	4b59      	ldr	r3, [pc, #356]	; (8003ea8 <TIM4_IRQHandler+0x480>)
 8003d44:	781b      	ldrb	r3, [r3, #0]
 8003d46:	b2db      	uxtb	r3, r3
 8003d48:	4a58      	ldr	r2, [pc, #352]	; (8003eac <TIM4_IRQHandler+0x484>)
 8003d4a:	00db      	lsls	r3, r3, #3
 8003d4c:	4413      	add	r3, r2
 8003d4e:	685b      	ldr	r3, [r3, #4]
 8003d50:	f3c3 0340 	ubfx	r3, r3, #1, #1
 8003d54:	b2db      	uxtb	r3, r3
 8003d56:	2b00      	cmp	r3, #0
 8003d58:	d114      	bne.n	8003d84 <TIM4_IRQHandler+0x35c>
 8003d5a:	4b53      	ldr	r3, [pc, #332]	; (8003ea8 <TIM4_IRQHandler+0x480>)
 8003d5c:	781b      	ldrb	r3, [r3, #0]
 8003d5e:	b2db      	uxtb	r3, r3
 8003d60:	4a52      	ldr	r2, [pc, #328]	; (8003eac <TIM4_IRQHandler+0x484>)
 8003d62:	00db      	lsls	r3, r3, #3
 8003d64:	4413      	add	r3, r2
 8003d66:	685b      	ldr	r3, [r3, #4]
 8003d68:	f3c3 03c0 	ubfx	r3, r3, #3, #1
 8003d6c:	b2db      	uxtb	r3, r3
 8003d6e:	2b00      	cmp	r3, #0
 8003d70:	d108      	bne.n	8003d84 <TIM4_IRQHandler+0x35c>
 8003d72:	4b4d      	ldr	r3, [pc, #308]	; (8003ea8 <TIM4_IRQHandler+0x480>)
 8003d74:	781b      	ldrb	r3, [r3, #0]
 8003d76:	b2db      	uxtb	r3, r3
 8003d78:	4a4c      	ldr	r2, [pc, #304]	; (8003eac <TIM4_IRQHandler+0x484>)
 8003d7a:	00db      	lsls	r3, r3, #3
 8003d7c:	4413      	add	r3, r2
 8003d7e:	685b      	ldr	r3, [r3, #4]
 8003d80:	f3c3 0380 	ubfx	r3, r3, #2, #1
 8003d84:	4b4a      	ldr	r3, [pc, #296]	; (8003eb0 <TIM4_IRQHandler+0x488>)
 8003d86:	2200      	movs	r2, #0
 8003d88:	601a      	str	r2, [r3, #0]
 8003d8a:	4b4a      	ldr	r3, [pc, #296]	; (8003eb4 <TIM4_IRQHandler+0x48c>)
 8003d8c:	781b      	ldrb	r3, [r3, #0]
 8003d8e:	b2db      	uxtb	r3, r3
 8003d90:	2b00      	cmp	r3, #0
 8003d92:	d139      	bne.n	8003e08 <TIM4_IRQHandler+0x3e0>
 8003d94:	4b44      	ldr	r3, [pc, #272]	; (8003ea8 <TIM4_IRQHandler+0x480>)
 8003d96:	781b      	ldrb	r3, [r3, #0]
 8003d98:	b2db      	uxtb	r3, r3
 8003d9a:	4619      	mov	r1, r3
 8003d9c:	2000      	movs	r0, #0
 8003d9e:	f7ff fdc1 	bl	8003924 <GetNextStep>
 8003da2:	4603      	mov	r3, r0
 8003da4:	461a      	mov	r2, r3
 8003da6:	4b40      	ldr	r3, [pc, #256]	; (8003ea8 <TIM4_IRQHandler+0x480>)
 8003da8:	701a      	strb	r2, [r3, #0]
 8003daa:	f44f 7100 	mov.w	r1, #512	; 0x200
 8003dae:	4844      	ldr	r0, [pc, #272]	; (8003ec0 <TIM4_IRQHandler+0x498>)
 8003db0:	f7fd f98b 	bl	80010ca <GPIO_ResetBits>
 8003db4:	4b3c      	ldr	r3, [pc, #240]	; (8003ea8 <TIM4_IRQHandler+0x480>)
 8003db6:	781b      	ldrb	r3, [r3, #0]
 8003db8:	b2db      	uxtb	r3, r3
 8003dba:	4a3c      	ldr	r2, [pc, #240]	; (8003eac <TIM4_IRQHandler+0x484>)
 8003dbc:	00db      	lsls	r3, r3, #3
 8003dbe:	4413      	add	r3, r2
 8003dc0:	685b      	ldr	r3, [r3, #4]
 8003dc2:	f3c3 23c0 	ubfx	r3, r3, #11, #1
 8003dc6:	b2db      	uxtb	r3, r3
 8003dc8:	2b00      	cmp	r3, #0
 8003dca:	d004      	beq.n	8003dd6 <TIM4_IRQHandler+0x3ae>
 8003dcc:	f44f 6100 	mov.w	r1, #2048	; 0x800
 8003dd0:	483b      	ldr	r0, [pc, #236]	; (8003ec0 <TIM4_IRQHandler+0x498>)
 8003dd2:	f7fd f97a 	bl	80010ca <GPIO_ResetBits>
 8003dd6:	4b34      	ldr	r3, [pc, #208]	; (8003ea8 <TIM4_IRQHandler+0x480>)
 8003dd8:	781b      	ldrb	r3, [r3, #0]
 8003dda:	b2db      	uxtb	r3, r3
 8003ddc:	4a33      	ldr	r2, [pc, #204]	; (8003eac <TIM4_IRQHandler+0x484>)
 8003dde:	00db      	lsls	r3, r3, #3
 8003de0:	4413      	add	r3, r2
 8003de2:	685b      	ldr	r3, [r3, #4]
 8003de4:	f3c3 3300 	ubfx	r3, r3, #12, #1
 8003de8:	b2db      	uxtb	r3, r3
 8003dea:	2b00      	cmp	r3, #0
 8003dec:	d004      	beq.n	8003df8 <TIM4_IRQHandler+0x3d0>
 8003dee:	f44f 6180 	mov.w	r1, #1024	; 0x400
 8003df2:	4833      	ldr	r0, [pc, #204]	; (8003ec0 <TIM4_IRQHandler+0x498>)
 8003df4:	f7fd f969 	bl	80010ca <GPIO_ResetBits>
 8003df8:	2101      	movs	r1, #1
 8003dfa:	4832      	ldr	r0, [pc, #200]	; (8003ec4 <TIM4_IRQHandler+0x49c>)
 8003dfc:	f7fd fb0b 	bl	8001416 <TIM_Cmd>
 8003e00:	2100      	movs	r1, #0
 8003e02:	4830      	ldr	r0, [pc, #192]	; (8003ec4 <TIM4_IRQHandler+0x49c>)
 8003e04:	f7fd fafa 	bl	80013fc <TIM_SetCounter>
 8003e08:	4b2a      	ldr	r3, [pc, #168]	; (8003eb4 <TIM4_IRQHandler+0x48c>)
 8003e0a:	781b      	ldrb	r3, [r3, #0]
 8003e0c:	b2db      	uxtb	r3, r3
 8003e0e:	2b02      	cmp	r3, #2
 8003e10:	d133      	bne.n	8003e7a <TIM4_IRQHandler+0x452>
 8003e12:	4b2a      	ldr	r3, [pc, #168]	; (8003ebc <TIM4_IRQHandler+0x494>)
 8003e14:	781b      	ldrb	r3, [r3, #0]
 8003e16:	b2db      	uxtb	r3, r3
 8003e18:	2b00      	cmp	r3, #0
 8003e1a:	d02e      	beq.n	8003e7a <TIM4_IRQHandler+0x452>
 8003e1c:	f44f 7100 	mov.w	r1, #512	; 0x200
 8003e20:	4827      	ldr	r0, [pc, #156]	; (8003ec0 <TIM4_IRQHandler+0x498>)
 8003e22:	f7fd f952 	bl	80010ca <GPIO_ResetBits>
 8003e26:	4b20      	ldr	r3, [pc, #128]	; (8003ea8 <TIM4_IRQHandler+0x480>)
 8003e28:	781b      	ldrb	r3, [r3, #0]
 8003e2a:	b2db      	uxtb	r3, r3
 8003e2c:	4a1f      	ldr	r2, [pc, #124]	; (8003eac <TIM4_IRQHandler+0x484>)
 8003e2e:	00db      	lsls	r3, r3, #3
 8003e30:	4413      	add	r3, r2
 8003e32:	685b      	ldr	r3, [r3, #4]
 8003e34:	f3c3 23c0 	ubfx	r3, r3, #11, #1
 8003e38:	b2db      	uxtb	r3, r3
 8003e3a:	2b00      	cmp	r3, #0
 8003e3c:	d004      	beq.n	8003e48 <TIM4_IRQHandler+0x420>
 8003e3e:	f44f 6100 	mov.w	r1, #2048	; 0x800
 8003e42:	481f      	ldr	r0, [pc, #124]	; (8003ec0 <TIM4_IRQHandler+0x498>)
 8003e44:	f7fd f941 	bl	80010ca <GPIO_ResetBits>
 8003e48:	4b17      	ldr	r3, [pc, #92]	; (8003ea8 <TIM4_IRQHandler+0x480>)
 8003e4a:	781b      	ldrb	r3, [r3, #0]
 8003e4c:	b2db      	uxtb	r3, r3
 8003e4e:	4a17      	ldr	r2, [pc, #92]	; (8003eac <TIM4_IRQHandler+0x484>)
 8003e50:	00db      	lsls	r3, r3, #3
 8003e52:	4413      	add	r3, r2
 8003e54:	685b      	ldr	r3, [r3, #4]
 8003e56:	f3c3 3300 	ubfx	r3, r3, #12, #1
 8003e5a:	b2db      	uxtb	r3, r3
 8003e5c:	2b00      	cmp	r3, #0
 8003e5e:	d004      	beq.n	8003e6a <TIM4_IRQHandler+0x442>
 8003e60:	f44f 6180 	mov.w	r1, #1024	; 0x400
 8003e64:	4816      	ldr	r0, [pc, #88]	; (8003ec0 <TIM4_IRQHandler+0x498>)
 8003e66:	f7fd f930 	bl	80010ca <GPIO_ResetBits>
 8003e6a:	2101      	movs	r1, #1
 8003e6c:	4815      	ldr	r0, [pc, #84]	; (8003ec4 <TIM4_IRQHandler+0x49c>)
 8003e6e:	f7fd fad2 	bl	8001416 <TIM_Cmd>
 8003e72:	2100      	movs	r1, #0
 8003e74:	4813      	ldr	r0, [pc, #76]	; (8003ec4 <TIM4_IRQHandler+0x49c>)
 8003e76:	f7fd fac1 	bl	80013fc <TIM_SetCounter>
 8003e7a:	4b0e      	ldr	r3, [pc, #56]	; (8003eb4 <TIM4_IRQHandler+0x48c>)
 8003e7c:	781b      	ldrb	r3, [r3, #0]
 8003e7e:	b2db      	uxtb	r3, r3
 8003e80:	2b06      	cmp	r3, #6
 8003e82:	d14e      	bne.n	8003f22 <TIM4_IRQHandler+0x4fa>
 8003e84:	4b08      	ldr	r3, [pc, #32]	; (8003ea8 <TIM4_IRQHandler+0x480>)
 8003e86:	781b      	ldrb	r3, [r3, #0]
 8003e88:	b2db      	uxtb	r3, r3
 8003e8a:	4619      	mov	r1, r3
 8003e8c:	2000      	movs	r0, #0
 8003e8e:	f7ff fd49 	bl	8003924 <GetNextStep>
 8003e92:	4603      	mov	r3, r0
 8003e94:	461a      	mov	r2, r3
 8003e96:	4b04      	ldr	r3, [pc, #16]	; (8003ea8 <TIM4_IRQHandler+0x480>)
 8003e98:	701a      	strb	r2, [r3, #0]
 8003e9a:	f44f 7100 	mov.w	r1, #512	; 0x200
 8003e9e:	e013      	b.n	8003ec8 <TIM4_IRQHandler+0x4a0>
 8003ea0:	00000000 	.word	0x00000000
 8003ea4:	408ff800 	.word	0x408ff800
 8003ea8:	20000297 	.word	0x20000297
 8003eac:	20000948 	.word	0x20000948
 8003eb0:	200002a4 	.word	0x200002a4
 8003eb4:	200002ad 	.word	0x200002ad
 8003eb8:	200002b4 	.word	0x200002b4
 8003ebc:	200002af 	.word	0x200002af
 8003ec0:	40020400 	.word	0x40020400
 8003ec4:	40002000 	.word	0x40002000
 8003ec8:	4858      	ldr	r0, [pc, #352]	; (800402c <TIM4_IRQHandler+0x604>)
 8003eca:	f7fd f8fe 	bl	80010ca <GPIO_ResetBits>
 8003ece:	4b58      	ldr	r3, [pc, #352]	; (8004030 <TIM4_IRQHandler+0x608>)
 8003ed0:	781b      	ldrb	r3, [r3, #0]
 8003ed2:	b2db      	uxtb	r3, r3
 8003ed4:	4a57      	ldr	r2, [pc, #348]	; (8004034 <TIM4_IRQHandler+0x60c>)
 8003ed6:	00db      	lsls	r3, r3, #3
 8003ed8:	4413      	add	r3, r2
 8003eda:	685b      	ldr	r3, [r3, #4]
 8003edc:	f3c3 23c0 	ubfx	r3, r3, #11, #1
 8003ee0:	b2db      	uxtb	r3, r3
 8003ee2:	2b00      	cmp	r3, #0
 8003ee4:	d004      	beq.n	8003ef0 <TIM4_IRQHandler+0x4c8>
 8003ee6:	f44f 6100 	mov.w	r1, #2048	; 0x800
 8003eea:	4850      	ldr	r0, [pc, #320]	; (800402c <TIM4_IRQHandler+0x604>)
 8003eec:	f7fd f8ed 	bl	80010ca <GPIO_ResetBits>
 8003ef0:	4b4f      	ldr	r3, [pc, #316]	; (8004030 <TIM4_IRQHandler+0x608>)
 8003ef2:	781b      	ldrb	r3, [r3, #0]
 8003ef4:	b2db      	uxtb	r3, r3
 8003ef6:	4a4f      	ldr	r2, [pc, #316]	; (8004034 <TIM4_IRQHandler+0x60c>)
 8003ef8:	00db      	lsls	r3, r3, #3
 8003efa:	4413      	add	r3, r2
 8003efc:	685b      	ldr	r3, [r3, #4]
 8003efe:	f3c3 3300 	ubfx	r3, r3, #12, #1
 8003f02:	b2db      	uxtb	r3, r3
 8003f04:	2b00      	cmp	r3, #0
 8003f06:	d004      	beq.n	8003f12 <TIM4_IRQHandler+0x4ea>
 8003f08:	f44f 6180 	mov.w	r1, #1024	; 0x400
 8003f0c:	4847      	ldr	r0, [pc, #284]	; (800402c <TIM4_IRQHandler+0x604>)
 8003f0e:	f7fd f8dc 	bl	80010ca <GPIO_ResetBits>
 8003f12:	2101      	movs	r1, #1
 8003f14:	4848      	ldr	r0, [pc, #288]	; (8004038 <TIM4_IRQHandler+0x610>)
 8003f16:	f7fd fa7e 	bl	8001416 <TIM_Cmd>
 8003f1a:	2100      	movs	r1, #0
 8003f1c:	4846      	ldr	r0, [pc, #280]	; (8004038 <TIM4_IRQHandler+0x610>)
 8003f1e:	f7fd fa6d 	bl	80013fc <TIM_SetCounter>
 8003f22:	4b46      	ldr	r3, [pc, #280]	; (800403c <TIM4_IRQHandler+0x614>)
 8003f24:	781b      	ldrb	r3, [r3, #0]
 8003f26:	b2db      	uxtb	r3, r3
 8003f28:	2b01      	cmp	r3, #1
 8003f2a:	d14c      	bne.n	8003fc6 <TIM4_IRQHandler+0x59e>
 8003f2c:	4b40      	ldr	r3, [pc, #256]	; (8004030 <TIM4_IRQHandler+0x608>)
 8003f2e:	781b      	ldrb	r3, [r3, #0]
 8003f30:	b2db      	uxtb	r3, r3
 8003f32:	461a      	mov	r2, r3
 8003f34:	4b42      	ldr	r3, [pc, #264]	; (8004040 <TIM4_IRQHandler+0x618>)
 8003f36:	781b      	ldrb	r3, [r3, #0]
 8003f38:	b2db      	uxtb	r3, r3
 8003f3a:	3b01      	subs	r3, #1
 8003f3c:	429a      	cmp	r2, r3
 8003f3e:	d042      	beq.n	8003fc6 <TIM4_IRQHandler+0x59e>
 8003f40:	4b3f      	ldr	r3, [pc, #252]	; (8004040 <TIM4_IRQHandler+0x618>)
 8003f42:	781b      	ldrb	r3, [r3, #0]
 8003f44:	b2db      	uxtb	r3, r3
 8003f46:	3b01      	subs	r3, #1
 8003f48:	b2da      	uxtb	r2, r3
 8003f4a:	4b39      	ldr	r3, [pc, #228]	; (8004030 <TIM4_IRQHandler+0x608>)
 8003f4c:	701a      	strb	r2, [r3, #0]
 8003f4e:	4b38      	ldr	r3, [pc, #224]	; (8004030 <TIM4_IRQHandler+0x608>)
 8003f50:	781b      	ldrb	r3, [r3, #0]
 8003f52:	b2db      	uxtb	r3, r3
 8003f54:	4619      	mov	r1, r3
 8003f56:	2000      	movs	r0, #0
 8003f58:	f7ff fae2 	bl	8003520 <GetStepVoltage>
 8003f5c:	4603      	mov	r3, r0
 8003f5e:	b29b      	uxth	r3, r3
 8003f60:	4619      	mov	r1, r3
 8003f62:	2000      	movs	r0, #0
 8003f64:	f7fc ffea 	bl	8000f3c <DAC_SetChannel1Data>
 8003f68:	f44f 7100 	mov.w	r1, #512	; 0x200
 8003f6c:	482f      	ldr	r0, [pc, #188]	; (800402c <TIM4_IRQHandler+0x604>)
 8003f6e:	f7fd f8ac 	bl	80010ca <GPIO_ResetBits>
 8003f72:	4b2f      	ldr	r3, [pc, #188]	; (8004030 <TIM4_IRQHandler+0x608>)
 8003f74:	781b      	ldrb	r3, [r3, #0]
 8003f76:	b2db      	uxtb	r3, r3
 8003f78:	4a2e      	ldr	r2, [pc, #184]	; (8004034 <TIM4_IRQHandler+0x60c>)
 8003f7a:	00db      	lsls	r3, r3, #3
 8003f7c:	4413      	add	r3, r2
 8003f7e:	685b      	ldr	r3, [r3, #4]
 8003f80:	f3c3 23c0 	ubfx	r3, r3, #11, #1
 8003f84:	b2db      	uxtb	r3, r3
 8003f86:	2b00      	cmp	r3, #0
 8003f88:	d004      	beq.n	8003f94 <TIM4_IRQHandler+0x56c>
 8003f8a:	f44f 6100 	mov.w	r1, #2048	; 0x800
 8003f8e:	4827      	ldr	r0, [pc, #156]	; (800402c <TIM4_IRQHandler+0x604>)
 8003f90:	f7fd f89b 	bl	80010ca <GPIO_ResetBits>
 8003f94:	4b26      	ldr	r3, [pc, #152]	; (8004030 <TIM4_IRQHandler+0x608>)
 8003f96:	781b      	ldrb	r3, [r3, #0]
 8003f98:	b2db      	uxtb	r3, r3
 8003f9a:	4a26      	ldr	r2, [pc, #152]	; (8004034 <TIM4_IRQHandler+0x60c>)
 8003f9c:	00db      	lsls	r3, r3, #3
 8003f9e:	4413      	add	r3, r2
 8003fa0:	685b      	ldr	r3, [r3, #4]
 8003fa2:	f3c3 3300 	ubfx	r3, r3, #12, #1
 8003fa6:	b2db      	uxtb	r3, r3
 8003fa8:	2b00      	cmp	r3, #0
 8003faa:	d004      	beq.n	8003fb6 <TIM4_IRQHandler+0x58e>
 8003fac:	f44f 6180 	mov.w	r1, #1024	; 0x400
 8003fb0:	481e      	ldr	r0, [pc, #120]	; (800402c <TIM4_IRQHandler+0x604>)
 8003fb2:	f7fd f88a 	bl	80010ca <GPIO_ResetBits>
 8003fb6:	2101      	movs	r1, #1
 8003fb8:	481f      	ldr	r0, [pc, #124]	; (8004038 <TIM4_IRQHandler+0x610>)
 8003fba:	f7fd fa2c 	bl	8001416 <TIM_Cmd>
 8003fbe:	2100      	movs	r1, #0
 8003fc0:	481d      	ldr	r0, [pc, #116]	; (8004038 <TIM4_IRQHandler+0x610>)
 8003fc2:	f7fd fa1b 	bl	80013fc <TIM_SetCounter>
 8003fc6:	4b1d      	ldr	r3, [pc, #116]	; (800403c <TIM4_IRQHandler+0x614>)
 8003fc8:	781b      	ldrb	r3, [r3, #0]
 8003fca:	b2db      	uxtb	r3, r3
 8003fcc:	2b03      	cmp	r3, #3
 8003fce:	d118      	bne.n	8004002 <TIM4_IRQHandler+0x5da>
 8003fd0:	4b1b      	ldr	r3, [pc, #108]	; (8004040 <TIM4_IRQHandler+0x618>)
 8003fd2:	781b      	ldrb	r3, [r3, #0]
 8003fd4:	b2db      	uxtb	r3, r3
 8003fd6:	3b01      	subs	r3, #1
 8003fd8:	b2da      	uxtb	r2, r3
 8003fda:	4b15      	ldr	r3, [pc, #84]	; (8004030 <TIM4_IRQHandler+0x608>)
 8003fdc:	701a      	strb	r2, [r3, #0]
 8003fde:	4b14      	ldr	r3, [pc, #80]	; (8004030 <TIM4_IRQHandler+0x608>)
 8003fe0:	781b      	ldrb	r3, [r3, #0]
 8003fe2:	b2db      	uxtb	r3, r3
 8003fe4:	4619      	mov	r1, r3
 8003fe6:	2000      	movs	r0, #0
 8003fe8:	f7ff fa9a 	bl	8003520 <GetStepVoltage>
 8003fec:	4603      	mov	r3, r0
 8003fee:	b29b      	uxth	r3, r3
 8003ff0:	4619      	mov	r1, r3
 8003ff2:	2000      	movs	r0, #0
 8003ff4:	f7fc ffa2 	bl	8000f3c <DAC_SetChannel1Data>
 8003ff8:	4b12      	ldr	r3, [pc, #72]	; (8004044 <TIM4_IRQHandler+0x61c>)
 8003ffa:	781b      	ldrb	r3, [r3, #0]
 8003ffc:	b2da      	uxtb	r2, r3
 8003ffe:	4b0f      	ldr	r3, [pc, #60]	; (800403c <TIM4_IRQHandler+0x614>)
 8004000:	701a      	strb	r2, [r3, #0]
 8004002:	4b11      	ldr	r3, [pc, #68]	; (8004048 <TIM4_IRQHandler+0x620>)
 8004004:	781b      	ldrb	r3, [r3, #0]
 8004006:	b2db      	uxtb	r3, r3
 8004008:	2b00      	cmp	r3, #0
 800400a:	d10a      	bne.n	8004022 <TIM4_IRQHandler+0x5fa>
 800400c:	4a0f      	ldr	r2, [pc, #60]	; (800404c <TIM4_IRQHandler+0x624>)
 800400e:	7813      	ldrb	r3, [r2, #0]
 8004010:	f043 0301 	orr.w	r3, r3, #1
 8004014:	7013      	strb	r3, [r2, #0]
 8004016:	4a0d      	ldr	r2, [pc, #52]	; (800404c <TIM4_IRQHandler+0x624>)
 8004018:	7813      	ldrb	r3, [r2, #0]
 800401a:	f043 0302 	orr.w	r3, r3, #2
 800401e:	7013      	strb	r3, [r2, #0]
 8004020:	bf00      	nop
 8004022:	bf00      	nop
 8004024:	3710      	adds	r7, #16
 8004026:	46bd      	mov	sp, r7
 8004028:	bdb0      	pop	{r4, r5, r7, pc}
 800402a:	bf00      	nop
 800402c:	40020400 	.word	0x40020400
 8004030:	20000297 	.word	0x20000297
 8004034:	20000948 	.word	0x20000948
 8004038:	40002000 	.word	0x40002000
 800403c:	200002ad 	.word	0x200002ad
 8004040:	20000270 	.word	0x20000270
 8004044:	200002af 	.word	0x200002af
 8004048:	20000296 	.word	0x20000296
 800404c:	200002e0 	.word	0x200002e0

08004050 <TIM5_IRQHandler>:
 8004050:	b5b0      	push	{r4, r5, r7, lr}
 8004052:	b084      	sub	sp, #16
 8004054:	af00      	add	r7, sp, #0
 8004056:	2300      	movs	r3, #0
 8004058:	60fb      	str	r3, [r7, #12]
 800405a:	4b69      	ldr	r3, [pc, #420]	; (8004200 <TIM5_IRQHandler+0x1b0>)
 800405c:	f64f 72fe 	movw	r2, #65534	; 0xfffe
 8004060:	821a      	strh	r2, [r3, #16]
 8004062:	4b68      	ldr	r3, [pc, #416]	; (8004204 <TIM5_IRQHandler+0x1b4>)
 8004064:	781b      	ldrb	r3, [r3, #0]
 8004066:	b2db      	uxtb	r3, r3
 8004068:	4619      	mov	r1, r3
 800406a:	2001      	movs	r0, #1
 800406c:	f7ff f950 	bl	8003310 <GetStepWidth>
 8004070:	60f8      	str	r0, [r7, #12]
 8004072:	4b65      	ldr	r3, [pc, #404]	; (8004208 <TIM5_IRQHandler+0x1b8>)
 8004074:	895b      	ldrh	r3, [r3, #10]
 8004076:	b29b      	uxth	r3, r3
 8004078:	4618      	mov	r0, r3
 800407a:	f7fc f9ff 	bl	800047c <__aeabi_i2d>
 800407e:	f04f 0200 	mov.w	r2, #0
 8004082:	4b62      	ldr	r3, [pc, #392]	; (800420c <TIM5_IRQHandler+0x1bc>)
 8004084:	f7fc fa64 	bl	8000550 <__aeabi_dmul>
 8004088:	4603      	mov	r3, r0
 800408a:	460c      	mov	r4, r1
 800408c:	4625      	mov	r5, r4
 800408e:	461c      	mov	r4, r3
 8004090:	4b5f      	ldr	r3, [pc, #380]	; (8004210 <TIM5_IRQHandler+0x1c0>)
 8004092:	695b      	ldr	r3, [r3, #20]
 8004094:	4618      	mov	r0, r3
 8004096:	f7fc f9e1 	bl	800045c <__aeabi_ui2d>
 800409a:	4602      	mov	r2, r0
 800409c:	460b      	mov	r3, r1
 800409e:	4620      	mov	r0, r4
 80040a0:	4629      	mov	r1, r5
 80040a2:	f7fc fb7f 	bl	80007a4 <__aeabi_ddiv>
 80040a6:	4603      	mov	r3, r0
 80040a8:	460c      	mov	r4, r1
 80040aa:	4618      	mov	r0, r3
 80040ac:	4621      	mov	r1, r4
 80040ae:	f04f 0200 	mov.w	r2, #0
 80040b2:	4b58      	ldr	r3, [pc, #352]	; (8004214 <TIM5_IRQHandler+0x1c4>)
 80040b4:	f7fc f896 	bl	80001e4 <__adddf3>
 80040b8:	4603      	mov	r3, r0
 80040ba:	460c      	mov	r4, r1
 80040bc:	4618      	mov	r0, r3
 80040be:	4621      	mov	r1, r4
 80040c0:	a34d      	add	r3, pc, #308	; (adr r3, 80041f8 <TIM5_IRQHandler+0x1a8>)
 80040c2:	e9d3 2300 	ldrd	r2, r3, [r3]
 80040c6:	f7fc fa43 	bl	8000550 <__aeabi_dmul>
 80040ca:	4603      	mov	r3, r0
 80040cc:	460c      	mov	r4, r1
 80040ce:	461a      	mov	r2, r3
 80040d0:	4623      	mov	r3, r4
 80040d2:	4c4b      	ldr	r4, [pc, #300]	; (8004200 <TIM5_IRQHandler+0x1b0>)
 80040d4:	4610      	mov	r0, r2
 80040d6:	4619      	mov	r1, r3
 80040d8:	f7fc fc4c 	bl	8000974 <__aeabi_d2uiz>
 80040dc:	4603      	mov	r3, r0
 80040de:	b29b      	uxth	r3, r3
 80040e0:	8523      	strh	r3, [r4, #40]	; 0x28
 80040e2:	4b48      	ldr	r3, [pc, #288]	; (8004204 <TIM5_IRQHandler+0x1b4>)
 80040e4:	781b      	ldrb	r3, [r3, #0]
 80040e6:	b2db      	uxtb	r3, r3
 80040e8:	4a4b      	ldr	r2, [pc, #300]	; (8004218 <TIM5_IRQHandler+0x1c8>)
 80040ea:	3320      	adds	r3, #32
 80040ec:	f852 3033 	ldr.w	r3, [r2, r3, lsl #3]
 80040f0:	f3c3 6340 	ubfx	r3, r3, #25, #1
 80040f4:	b2db      	uxtb	r3, r3
 80040f6:	2b00      	cmp	r3, #0
 80040f8:	f000 8096 	beq.w	8004228 <TIM5_IRQHandler+0x1d8>
 80040fc:	4b41      	ldr	r3, [pc, #260]	; (8004204 <TIM5_IRQHandler+0x1b4>)
 80040fe:	781b      	ldrb	r3, [r3, #0]
 8004100:	b2db      	uxtb	r3, r3
 8004102:	4619      	mov	r1, r3
 8004104:	2001      	movs	r0, #1
 8004106:	f7ff fa0b 	bl	8003520 <GetStepVoltage>
 800410a:	60b8      	str	r0, [r7, #8]
 800410c:	4b43      	ldr	r3, [pc, #268]	; (800421c <TIM5_IRQHandler+0x1cc>)
 800410e:	781b      	ldrb	r3, [r3, #0]
 8004110:	b2db      	uxtb	r3, r3
 8004112:	2b00      	cmp	r3, #0
 8004114:	d004      	beq.n	8004120 <TIM5_IRQHandler+0xd0>
 8004116:	4b41      	ldr	r3, [pc, #260]	; (800421c <TIM5_IRQHandler+0x1cc>)
 8004118:	781b      	ldrb	r3, [r3, #0]
 800411a:	b2db      	uxtb	r3, r3
 800411c:	2b06      	cmp	r3, #6
 800411e:	d15c      	bne.n	80041da <TIM5_IRQHandler+0x18a>
 8004120:	4b3f      	ldr	r3, [pc, #252]	; (8004220 <TIM5_IRQHandler+0x1d0>)
 8004122:	681b      	ldr	r3, [r3, #0]
 8004124:	68ba      	ldr	r2, [r7, #8]
 8004126:	429a      	cmp	r2, r3
 8004128:	d228      	bcs.n	800417c <TIM5_IRQHandler+0x12c>
 800412a:	4b3d      	ldr	r3, [pc, #244]	; (8004220 <TIM5_IRQHandler+0x1d0>)
 800412c:	681a      	ldr	r2, [r3, #0]
 800412e:	68bb      	ldr	r3, [r7, #8]
 8004130:	1ad3      	subs	r3, r2, r3
 8004132:	ee07 3a90 	vmov	s15, r3
 8004136:	eef8 6a67 	vcvt.f32.u32	s13, s15
 800413a:	68fb      	ldr	r3, [r7, #12]
 800413c:	ee07 3a90 	vmov	s15, r3
 8004140:	eeb8 7a67 	vcvt.f32.u32	s14, s15
 8004144:	eec6 7a87 	vdiv.f32	s15, s13, s14
 8004148:	edc7 7a01 	vstr	s15, [r7, #4]
 800414c:	4b34      	ldr	r3, [pc, #208]	; (8004220 <TIM5_IRQHandler+0x1d0>)
 800414e:	681b      	ldr	r3, [r3, #0]
 8004150:	b29a      	uxth	r2, r3
 8004152:	4b34      	ldr	r3, [pc, #208]	; (8004224 <TIM5_IRQHandler+0x1d4>)
 8004154:	681b      	ldr	r3, [r3, #0]
 8004156:	ee07 3a90 	vmov	s15, r3
 800415a:	eeb8 7a67 	vcvt.f32.u32	s14, s15
 800415e:	edd7 7a01 	vldr	s15, [r7, #4]
 8004162:	ee67 7a27 	vmul.f32	s15, s14, s15
 8004166:	eefc 7ae7 	vcvt.u32.f32	s15, s15
 800416a:	ee17 3a90 	vmov	r3, s15
 800416e:	b29b      	uxth	r3, r3
 8004170:	1ad3      	subs	r3, r2, r3
 8004172:	b29b      	uxth	r3, r3
 8004174:	4619      	mov	r1, r3
 8004176:	2000      	movs	r0, #0
 8004178:	f7fc fef0 	bl	8000f5c <DAC_SetChannel2Data>
 800417c:	4b28      	ldr	r3, [pc, #160]	; (8004220 <TIM5_IRQHandler+0x1d0>)
 800417e:	681b      	ldr	r3, [r3, #0]
 8004180:	68ba      	ldr	r2, [r7, #8]
 8004182:	429a      	cmp	r2, r3
 8004184:	d95d      	bls.n	8004242 <TIM5_IRQHandler+0x1f2>
 8004186:	4b26      	ldr	r3, [pc, #152]	; (8004220 <TIM5_IRQHandler+0x1d0>)
 8004188:	681b      	ldr	r3, [r3, #0]
 800418a:	68ba      	ldr	r2, [r7, #8]
 800418c:	1ad3      	subs	r3, r2, r3
 800418e:	ee07 3a90 	vmov	s15, r3
 8004192:	eef8 6a67 	vcvt.f32.u32	s13, s15
 8004196:	68fb      	ldr	r3, [r7, #12]
 8004198:	ee07 3a90 	vmov	s15, r3
 800419c:	eeb8 7a67 	vcvt.f32.u32	s14, s15
 80041a0:	eec6 7a87 	vdiv.f32	s15, s13, s14
 80041a4:	edc7 7a01 	vstr	s15, [r7, #4]
 80041a8:	4b1e      	ldr	r3, [pc, #120]	; (8004224 <TIM5_IRQHandler+0x1d4>)
 80041aa:	681b      	ldr	r3, [r3, #0]
 80041ac:	ee07 3a90 	vmov	s15, r3
 80041b0:	eeb8 7a67 	vcvt.f32.u32	s14, s15
 80041b4:	edd7 7a01 	vldr	s15, [r7, #4]
 80041b8:	ee67 7a27 	vmul.f32	s15, s14, s15
 80041bc:	eefc 7ae7 	vcvt.u32.f32	s15, s15
 80041c0:	ee17 3a90 	vmov	r3, s15
 80041c4:	b29a      	uxth	r2, r3
 80041c6:	4b16      	ldr	r3, [pc, #88]	; (8004220 <TIM5_IRQHandler+0x1d0>)
 80041c8:	681b      	ldr	r3, [r3, #0]
 80041ca:	b29b      	uxth	r3, r3
 80041cc:	4413      	add	r3, r2
 80041ce:	b29b      	uxth	r3, r3
 80041d0:	4619      	mov	r1, r3
 80041d2:	2000      	movs	r0, #0
 80041d4:	f7fc fec2 	bl	8000f5c <DAC_SetChannel2Data>
 80041d8:	e033      	b.n	8004242 <TIM5_IRQHandler+0x1f2>
 80041da:	4b0a      	ldr	r3, [pc, #40]	; (8004204 <TIM5_IRQHandler+0x1b4>)
 80041dc:	781b      	ldrb	r3, [r3, #0]
 80041de:	b2db      	uxtb	r3, r3
 80041e0:	4619      	mov	r1, r3
 80041e2:	2001      	movs	r0, #1
 80041e4:	f7ff f99c 	bl	8003520 <GetStepVoltage>
 80041e8:	4603      	mov	r3, r0
 80041ea:	b29b      	uxth	r3, r3
 80041ec:	4619      	mov	r1, r3
 80041ee:	2000      	movs	r0, #0
 80041f0:	f7fc feb4 	bl	8000f5c <DAC_SetChannel2Data>
 80041f4:	e025      	b.n	8004242 <TIM5_IRQHandler+0x1f2>
 80041f6:	bf00      	nop
 80041f8:	00000000 	.word	0x00000000
 80041fc:	40c48200 	.word	0x40c48200
 8004200:	40000c00 	.word	0x40000c00
 8004204:	20000298 	.word	0x20000298
 8004208:	20000828 	.word	0x20000828
 800420c:	400c0000 	.word	0x400c0000
 8004210:	20000250 	.word	0x20000250
 8004214:	3fe00000 	.word	0x3fe00000
 8004218:	20000948 	.word	0x20000948
 800421c:	200002ae 	.word	0x200002ae
 8004220:	200002b8 	.word	0x200002b8
 8004224:	200002a8 	.word	0x200002a8
 8004228:	4bb7      	ldr	r3, [pc, #732]	; (8004508 <TIM5_IRQHandler+0x4b8>)
 800422a:	781b      	ldrb	r3, [r3, #0]
 800422c:	b2db      	uxtb	r3, r3
 800422e:	4619      	mov	r1, r3
 8004230:	2001      	movs	r0, #1
 8004232:	f7ff f975 	bl	8003520 <GetStepVoltage>
 8004236:	4603      	mov	r3, r0
 8004238:	b29b      	uxth	r3, r3
 800423a:	4619      	mov	r1, r3
 800423c:	2000      	movs	r0, #0
 800423e:	f7fc fe8d 	bl	8000f5c <DAC_SetChannel2Data>
 8004242:	4bb1      	ldr	r3, [pc, #708]	; (8004508 <TIM5_IRQHandler+0x4b8>)
 8004244:	781b      	ldrb	r3, [r3, #0]
 8004246:	b2db      	uxtb	r3, r3
 8004248:	4ab0      	ldr	r2, [pc, #704]	; (800450c <TIM5_IRQHandler+0x4bc>)
 800424a:	3320      	adds	r3, #32
 800424c:	f852 3033 	ldr.w	r3, [r2, r3, lsl #3]
 8004250:	f3c3 330b 	ubfx	r3, r3, #12, #12
 8004254:	b29b      	uxth	r3, r3
 8004256:	109b      	asrs	r3, r3, #2
 8004258:	4619      	mov	r1, r3
 800425a:	2002      	movs	r0, #2
 800425c:	f7fd fc3a 	bl	8001ad4 <MAX5135_DAC_send>
 8004260:	68f8      	ldr	r0, [r7, #12]
 8004262:	f7fc f8fb 	bl	800045c <__aeabi_ui2d>
 8004266:	4603      	mov	r3, r0
 8004268:	460c      	mov	r4, r1
 800426a:	461a      	mov	r2, r3
 800426c:	4623      	mov	r3, r4
 800426e:	a1a4      	add	r1, pc, #656	; (adr r1, 8004500 <TIM5_IRQHandler+0x4b0>)
 8004270:	e9d1 0100 	ldrd	r0, r1, [r1]
 8004274:	f7fc fa96 	bl	80007a4 <__aeabi_ddiv>
 8004278:	4603      	mov	r3, r0
 800427a:	460c      	mov	r4, r1
 800427c:	4625      	mov	r5, r4
 800427e:	461c      	mov	r4, r3
 8004280:	4ba3      	ldr	r3, [pc, #652]	; (8004510 <TIM5_IRQHandler+0x4c0>)
 8004282:	681b      	ldr	r3, [r3, #0]
 8004284:	4618      	mov	r0, r3
 8004286:	f7fc f8e9 	bl	800045c <__aeabi_ui2d>
 800428a:	4602      	mov	r2, r0
 800428c:	460b      	mov	r3, r1
 800428e:	4620      	mov	r0, r4
 8004290:	4629      	mov	r1, r5
 8004292:	f7fc f95d 	bl	8000550 <__aeabi_dmul>
 8004296:	4603      	mov	r3, r0
 8004298:	460c      	mov	r4, r1
 800429a:	4618      	mov	r0, r3
 800429c:	4621      	mov	r1, r4
 800429e:	f7fc fb69 	bl	8000974 <__aeabi_d2uiz>
 80042a2:	4603      	mov	r3, r0
 80042a4:	f5c3 737f 	rsb	r3, r3, #1020	; 0x3fc
 80042a8:	3303      	adds	r3, #3
 80042aa:	4619      	mov	r1, r3
 80042ac:	2003      	movs	r0, #3
 80042ae:	f7fd fc11 	bl	8001ad4 <MAX5135_DAC_send>
 80042b2:	4b98      	ldr	r3, [pc, #608]	; (8004514 <TIM5_IRQHandler+0x4c4>)
 80042b4:	781b      	ldrb	r3, [r3, #0]
 80042b6:	b2db      	uxtb	r3, r3
 80042b8:	2b00      	cmp	r3, #0
 80042ba:	d004      	beq.n	80042c6 <TIM5_IRQHandler+0x276>
 80042bc:	4b95      	ldr	r3, [pc, #596]	; (8004514 <TIM5_IRQHandler+0x4c4>)
 80042be:	781b      	ldrb	r3, [r3, #0]
 80042c0:	b2db      	uxtb	r3, r3
 80042c2:	2b06      	cmp	r3, #6
 80042c4:	d104      	bne.n	80042d0 <TIM5_IRQHandler+0x280>
 80042c6:	4b92      	ldr	r3, [pc, #584]	; (8004510 <TIM5_IRQHandler+0x4c0>)
 80042c8:	681b      	ldr	r3, [r3, #0]
 80042ca:	3301      	adds	r3, #1
 80042cc:	4a90      	ldr	r2, [pc, #576]	; (8004510 <TIM5_IRQHandler+0x4c0>)
 80042ce:	6013      	str	r3, [r2, #0]
 80042d0:	4b8f      	ldr	r3, [pc, #572]	; (8004510 <TIM5_IRQHandler+0x4c0>)
 80042d2:	681b      	ldr	r3, [r3, #0]
 80042d4:	68fa      	ldr	r2, [r7, #12]
 80042d6:	429a      	cmp	r2, r3
 80042d8:	f200 810a 	bhi.w	80044f0 <TIM5_IRQHandler+0x4a0>
 80042dc:	4b8a      	ldr	r3, [pc, #552]	; (8004508 <TIM5_IRQHandler+0x4b8>)
 80042de:	781b      	ldrb	r3, [r3, #0]
 80042e0:	b2db      	uxtb	r3, r3
 80042e2:	4619      	mov	r1, r3
 80042e4:	2001      	movs	r0, #1
 80042e6:	f7ff f91b 	bl	8003520 <GetStepVoltage>
 80042ea:	4602      	mov	r2, r0
 80042ec:	4b8a      	ldr	r3, [pc, #552]	; (8004518 <TIM5_IRQHandler+0x4c8>)
 80042ee:	601a      	str	r2, [r3, #0]
 80042f0:	4b88      	ldr	r3, [pc, #544]	; (8004514 <TIM5_IRQHandler+0x4c4>)
 80042f2:	781b      	ldrb	r3, [r3, #0]
 80042f4:	b2db      	uxtb	r3, r3
 80042f6:	2b06      	cmp	r3, #6
 80042f8:	d102      	bne.n	8004300 <TIM5_IRQHandler+0x2b0>
 80042fa:	4b86      	ldr	r3, [pc, #536]	; (8004514 <TIM5_IRQHandler+0x4c4>)
 80042fc:	2202      	movs	r2, #2
 80042fe:	701a      	strb	r2, [r3, #0]
 8004300:	4b81      	ldr	r3, [pc, #516]	; (8004508 <TIM5_IRQHandler+0x4b8>)
 8004302:	781b      	ldrb	r3, [r3, #0]
 8004304:	b2db      	uxtb	r3, r3
 8004306:	4a81      	ldr	r2, [pc, #516]	; (800450c <TIM5_IRQHandler+0x4bc>)
 8004308:	3320      	adds	r3, #32
 800430a:	00db      	lsls	r3, r3, #3
 800430c:	4413      	add	r3, r2
 800430e:	685b      	ldr	r3, [r3, #4]
 8004310:	f3c3 0340 	ubfx	r3, r3, #1, #1
 8004314:	b2db      	uxtb	r3, r3
 8004316:	2b00      	cmp	r3, #0
 8004318:	d007      	beq.n	800432a <TIM5_IRQHandler+0x2da>
 800431a:	4b7e      	ldr	r3, [pc, #504]	; (8004514 <TIM5_IRQHandler+0x4c4>)
 800431c:	781b      	ldrb	r3, [r3, #0]
 800431e:	b2da      	uxtb	r2, r3
 8004320:	4b7e      	ldr	r3, [pc, #504]	; (800451c <TIM5_IRQHandler+0x4cc>)
 8004322:	701a      	strb	r2, [r3, #0]
 8004324:	4b7b      	ldr	r3, [pc, #492]	; (8004514 <TIM5_IRQHandler+0x4c4>)
 8004326:	2202      	movs	r2, #2
 8004328:	701a      	strb	r2, [r3, #0]
 800432a:	4b77      	ldr	r3, [pc, #476]	; (8004508 <TIM5_IRQHandler+0x4b8>)
 800432c:	781b      	ldrb	r3, [r3, #0]
 800432e:	b2db      	uxtb	r3, r3
 8004330:	4a76      	ldr	r2, [pc, #472]	; (800450c <TIM5_IRQHandler+0x4bc>)
 8004332:	3320      	adds	r3, #32
 8004334:	00db      	lsls	r3, r3, #3
 8004336:	4413      	add	r3, r2
 8004338:	685b      	ldr	r3, [r3, #4]
 800433a:	f3c3 03c0 	ubfx	r3, r3, #3, #1
 800433e:	b2db      	uxtb	r3, r3
 8004340:	2b00      	cmp	r3, #0
 8004342:	d013      	beq.n	800436c <TIM5_IRQHandler+0x31c>
 8004344:	2140      	movs	r1, #64	; 0x40
 8004346:	4876      	ldr	r0, [pc, #472]	; (8004520 <TIM5_IRQHandler+0x4d0>)
 8004348:	f7fc feb7 	bl	80010ba <GPIO_ReadInputDataBit>
 800434c:	4603      	mov	r3, r0
 800434e:	2b00      	cmp	r3, #0
 8004350:	d10c      	bne.n	800436c <TIM5_IRQHandler+0x31c>
 8004352:	4b70      	ldr	r3, [pc, #448]	; (8004514 <TIM5_IRQHandler+0x4c4>)
 8004354:	781b      	ldrb	r3, [r3, #0]
 8004356:	b2db      	uxtb	r3, r3
 8004358:	2b04      	cmp	r3, #4
 800435a:	d007      	beq.n	800436c <TIM5_IRQHandler+0x31c>
 800435c:	4b6d      	ldr	r3, [pc, #436]	; (8004514 <TIM5_IRQHandler+0x4c4>)
 800435e:	781b      	ldrb	r3, [r3, #0]
 8004360:	b2da      	uxtb	r2, r3
 8004362:	4b6e      	ldr	r3, [pc, #440]	; (800451c <TIM5_IRQHandler+0x4cc>)
 8004364:	701a      	strb	r2, [r3, #0]
 8004366:	4b6b      	ldr	r3, [pc, #428]	; (8004514 <TIM5_IRQHandler+0x4c4>)
 8004368:	2204      	movs	r2, #4
 800436a:	701a      	strb	r2, [r3, #0]
 800436c:	4b66      	ldr	r3, [pc, #408]	; (8004508 <TIM5_IRQHandler+0x4b8>)
 800436e:	781b      	ldrb	r3, [r3, #0]
 8004370:	b2db      	uxtb	r3, r3
 8004372:	4a66      	ldr	r2, [pc, #408]	; (800450c <TIM5_IRQHandler+0x4bc>)
 8004374:	3320      	adds	r3, #32
 8004376:	00db      	lsls	r3, r3, #3
 8004378:	4413      	add	r3, r2
 800437a:	685b      	ldr	r3, [r3, #4]
 800437c:	f3c3 0380 	ubfx	r3, r3, #2, #1
 8004380:	b2db      	uxtb	r3, r3
 8004382:	2b00      	cmp	r3, #0
 8004384:	d015      	beq.n	80043b2 <TIM5_IRQHandler+0x362>
 8004386:	2140      	movs	r1, #64	; 0x40
 8004388:	4865      	ldr	r0, [pc, #404]	; (8004520 <TIM5_IRQHandler+0x4d0>)
 800438a:	f7fc fe96 	bl	80010ba <GPIO_ReadInputDataBit>
 800438e:	4603      	mov	r3, r0
 8004390:	2b01      	cmp	r3, #1
 8004392:	d10e      	bne.n	80043b2 <TIM5_IRQHandler+0x362>
 8004394:	4b5f      	ldr	r3, [pc, #380]	; (8004514 <TIM5_IRQHandler+0x4c4>)
 8004396:	781b      	ldrb	r3, [r3, #0]
 8004398:	b2db      	uxtb	r3, r3
 800439a:	2b05      	cmp	r3, #5
 800439c:	d009      	beq.n	80043b2 <TIM5_IRQHandler+0x362>
 800439e:	4b5d      	ldr	r3, [pc, #372]	; (8004514 <TIM5_IRQHandler+0x4c4>)
 80043a0:	781b      	ldrb	r3, [r3, #0]
 80043a2:	b2da      	uxtb	r2, r3
 80043a4:	4b5d      	ldr	r3, [pc, #372]	; (800451c <TIM5_IRQHandler+0x4cc>)
 80043a6:	701a      	strb	r2, [r3, #0]
 80043a8:	4b5a      	ldr	r3, [pc, #360]	; (8004514 <TIM5_IRQHandler+0x4c4>)
 80043aa:	2205      	movs	r2, #5
 80043ac:	701a      	strb	r2, [r3, #0]
 80043ae:	f7fe fb8f 	bl	8002ad0 <InitStart_2_SignalTimer>
 80043b2:	4b55      	ldr	r3, [pc, #340]	; (8004508 <TIM5_IRQHandler+0x4b8>)
 80043b4:	781b      	ldrb	r3, [r3, #0]
 80043b6:	b2db      	uxtb	r3, r3
 80043b8:	4a54      	ldr	r2, [pc, #336]	; (800450c <TIM5_IRQHandler+0x4bc>)
 80043ba:	3320      	adds	r3, #32
 80043bc:	00db      	lsls	r3, r3, #3
 80043be:	4413      	add	r3, r2
 80043c0:	685b      	ldr	r3, [r3, #4]
 80043c2:	f3c3 0340 	ubfx	r3, r3, #1, #1
 80043c6:	b2db      	uxtb	r3, r3
 80043c8:	2b00      	cmp	r3, #0
 80043ca:	d116      	bne.n	80043fa <TIM5_IRQHandler+0x3aa>
 80043cc:	4b4e      	ldr	r3, [pc, #312]	; (8004508 <TIM5_IRQHandler+0x4b8>)
 80043ce:	781b      	ldrb	r3, [r3, #0]
 80043d0:	b2db      	uxtb	r3, r3
 80043d2:	4a4e      	ldr	r2, [pc, #312]	; (800450c <TIM5_IRQHandler+0x4bc>)
 80043d4:	3320      	adds	r3, #32
 80043d6:	00db      	lsls	r3, r3, #3
 80043d8:	4413      	add	r3, r2
 80043da:	685b      	ldr	r3, [r3, #4]
 80043dc:	f3c3 03c0 	ubfx	r3, r3, #3, #1
 80043e0:	b2db      	uxtb	r3, r3
 80043e2:	2b00      	cmp	r3, #0
 80043e4:	d109      	bne.n	80043fa <TIM5_IRQHandler+0x3aa>
 80043e6:	4b48      	ldr	r3, [pc, #288]	; (8004508 <TIM5_IRQHandler+0x4b8>)
 80043e8:	781b      	ldrb	r3, [r3, #0]
 80043ea:	b2db      	uxtb	r3, r3
 80043ec:	4a47      	ldr	r2, [pc, #284]	; (800450c <TIM5_IRQHandler+0x4bc>)
 80043ee:	3320      	adds	r3, #32
 80043f0:	00db      	lsls	r3, r3, #3
 80043f2:	4413      	add	r3, r2
 80043f4:	685b      	ldr	r3, [r3, #4]
 80043f6:	f3c3 0380 	ubfx	r3, r3, #2, #1
 80043fa:	4b45      	ldr	r3, [pc, #276]	; (8004510 <TIM5_IRQHandler+0x4c0>)
 80043fc:	2200      	movs	r2, #0
 80043fe:	601a      	str	r2, [r3, #0]
 8004400:	4b44      	ldr	r3, [pc, #272]	; (8004514 <TIM5_IRQHandler+0x4c4>)
 8004402:	781b      	ldrb	r3, [r3, #0]
 8004404:	b2db      	uxtb	r3, r3
 8004406:	2b00      	cmp	r3, #0
 8004408:	d139      	bne.n	800447e <TIM5_IRQHandler+0x42e>
 800440a:	4b3f      	ldr	r3, [pc, #252]	; (8004508 <TIM5_IRQHandler+0x4b8>)
 800440c:	781b      	ldrb	r3, [r3, #0]
 800440e:	b2db      	uxtb	r3, r3
 8004410:	4619      	mov	r1, r3
 8004412:	2001      	movs	r0, #1
 8004414:	f7ff fa86 	bl	8003924 <GetNextStep>
 8004418:	4603      	mov	r3, r0
 800441a:	461a      	mov	r2, r3
 800441c:	4b3a      	ldr	r3, [pc, #232]	; (8004508 <TIM5_IRQHandler+0x4b8>)
 800441e:	701a      	strb	r2, [r3, #0]
 8004420:	2104      	movs	r1, #4
 8004422:	4840      	ldr	r0, [pc, #256]	; (8004524 <TIM5_IRQHandler+0x4d4>)
 8004424:	f7fc fe51 	bl	80010ca <GPIO_ResetBits>
 8004428:	4b37      	ldr	r3, [pc, #220]	; (8004508 <TIM5_IRQHandler+0x4b8>)
 800442a:	781b      	ldrb	r3, [r3, #0]
 800442c:	b2db      	uxtb	r3, r3
 800442e:	4a37      	ldr	r2, [pc, #220]	; (800450c <TIM5_IRQHandler+0x4bc>)
 8004430:	3320      	adds	r3, #32
 8004432:	00db      	lsls	r3, r3, #3
 8004434:	4413      	add	r3, r2
 8004436:	685b      	ldr	r3, [r3, #4]
 8004438:	f3c3 23c0 	ubfx	r3, r3, #11, #1
 800443c:	b2db      	uxtb	r3, r3
 800443e:	2b00      	cmp	r3, #0
 8004440:	d003      	beq.n	800444a <TIM5_IRQHandler+0x3fa>
 8004442:	2108      	movs	r1, #8
 8004444:	4837      	ldr	r0, [pc, #220]	; (8004524 <TIM5_IRQHandler+0x4d4>)
 8004446:	f7fc fe40 	bl	80010ca <GPIO_ResetBits>
 800444a:	4b2f      	ldr	r3, [pc, #188]	; (8004508 <TIM5_IRQHandler+0x4b8>)
 800444c:	781b      	ldrb	r3, [r3, #0]
 800444e:	b2db      	uxtb	r3, r3
 8004450:	4a2e      	ldr	r2, [pc, #184]	; (800450c <TIM5_IRQHandler+0x4bc>)
 8004452:	3320      	adds	r3, #32
 8004454:	00db      	lsls	r3, r3, #3
 8004456:	4413      	add	r3, r2
 8004458:	685b      	ldr	r3, [r3, #4]
 800445a:	f3c3 3300 	ubfx	r3, r3, #12, #1
 800445e:	b2db      	uxtb	r3, r3
 8004460:	2b00      	cmp	r3, #0
 8004462:	d004      	beq.n	800446e <TIM5_IRQHandler+0x41e>
 8004464:	f44f 5180 	mov.w	r1, #4096	; 0x1000
 8004468:	482e      	ldr	r0, [pc, #184]	; (8004524 <TIM5_IRQHandler+0x4d4>)
 800446a:	f7fc fe2e 	bl	80010ca <GPIO_ResetBits>
 800446e:	2101      	movs	r1, #1
 8004470:	482d      	ldr	r0, [pc, #180]	; (8004528 <TIM5_IRQHandler+0x4d8>)
 8004472:	f7fc ffd0 	bl	8001416 <TIM_Cmd>
 8004476:	2100      	movs	r1, #0
 8004478:	482b      	ldr	r0, [pc, #172]	; (8004528 <TIM5_IRQHandler+0x4d8>)
 800447a:	f7fc ffbf 	bl	80013fc <TIM_SetCounter>
 800447e:	4b25      	ldr	r3, [pc, #148]	; (8004514 <TIM5_IRQHandler+0x4c4>)
 8004480:	781b      	ldrb	r3, [r3, #0]
 8004482:	b2db      	uxtb	r3, r3
 8004484:	2b02      	cmp	r3, #2
 8004486:	d133      	bne.n	80044f0 <TIM5_IRQHandler+0x4a0>
 8004488:	4b24      	ldr	r3, [pc, #144]	; (800451c <TIM5_IRQHandler+0x4cc>)
 800448a:	781b      	ldrb	r3, [r3, #0]
 800448c:	b2db      	uxtb	r3, r3
 800448e:	2b00      	cmp	r3, #0
 8004490:	d02e      	beq.n	80044f0 <TIM5_IRQHandler+0x4a0>
 8004492:	2104      	movs	r1, #4
 8004494:	4823      	ldr	r0, [pc, #140]	; (8004524 <TIM5_IRQHandler+0x4d4>)
 8004496:	f7fc fe18 	bl	80010ca <GPIO_ResetBits>
 800449a:	4b1b      	ldr	r3, [pc, #108]	; (8004508 <TIM5_IRQHandler+0x4b8>)
 800449c:	781b      	ldrb	r3, [r3, #0]
 800449e:	b2db      	uxtb	r3, r3
 80044a0:	4a1a      	ldr	r2, [pc, #104]	; (800450c <TIM5_IRQHandler+0x4bc>)
 80044a2:	3320      	adds	r3, #32
 80044a4:	00db      	lsls	r3, r3, #3
 80044a6:	4413      	add	r3, r2
 80044a8:	685b      	ldr	r3, [r3, #4]
 80044aa:	f3c3 23c0 	ubfx	r3, r3, #11, #1
 80044ae:	b2db      	uxtb	r3, r3
 80044b0:	2b00      	cmp	r3, #0
 80044b2:	d003      	beq.n	80044bc <TIM5_IRQHandler+0x46c>
 80044b4:	2108      	movs	r1, #8
 80044b6:	481b      	ldr	r0, [pc, #108]	; (8004524 <TIM5_IRQHandler+0x4d4>)
 80044b8:	f7fc fe07 	bl	80010ca <GPIO_ResetBits>
 80044bc:	4b12      	ldr	r3, [pc, #72]	; (8004508 <TIM5_IRQHandler+0x4b8>)
 80044be:	781b      	ldrb	r3, [r3, #0]
 80044c0:	b2db      	uxtb	r3, r3
 80044c2:	4a12      	ldr	r2, [pc, #72]	; (800450c <TIM5_IRQHandler+0x4bc>)
 80044c4:	3320      	adds	r3, #32
 80044c6:	00db      	lsls	r3, r3, #3
 80044c8:	4413      	add	r3, r2
 80044ca:	685b      	ldr	r3, [r3, #4]
 80044cc:	f3c3 3300 	ubfx	r3, r3, #12, #1
 80044d0:	b2db      	uxtb	r3, r3
 80044d2:	2b00      	cmp	r3, #0
 80044d4:	d004      	beq.n	80044e0 <TIM5_IRQHandler+0x490>
 80044d6:	f44f 5180 	mov.w	r1, #4096	; 0x1000
 80044da:	4812      	ldr	r0, [pc, #72]	; (8004524 <TIM5_IRQHandler+0x4d4>)
 80044dc:	f7fc fdf5 	bl	80010ca <GPIO_ResetBits>
 80044e0:	2101      	movs	r1, #1
 80044e2:	4811      	ldr	r0, [pc, #68]	; (8004528 <TIM5_IRQHandler+0x4d8>)
 80044e4:	f7fc ff97 	bl	8001416 <TIM_Cmd>
 80044e8:	2100      	movs	r1, #0
 80044ea:	480f      	ldr	r0, [pc, #60]	; (8004528 <TIM5_IRQHandler+0x4d8>)
 80044ec:	f7fc ff86 	bl	80013fc <TIM_SetCounter>
 80044f0:	4b08      	ldr	r3, [pc, #32]	; (8004514 <TIM5_IRQHandler+0x4c4>)
 80044f2:	781b      	ldrb	r3, [r3, #0]
 80044f4:	b2db      	uxtb	r3, r3
 80044f6:	2b01      	cmp	r3, #1
 80044f8:	d165      	bne.n	80045c6 <TIM5_IRQHandler+0x576>
 80044fa:	e017      	b.n	800452c <TIM5_IRQHandler+0x4dc>
 80044fc:	f3af 8000 	nop.w
 8004500:	00000000 	.word	0x00000000
 8004504:	408ff800 	.word	0x408ff800
 8004508:	20000298 	.word	0x20000298
 800450c:	20000948 	.word	0x20000948
 8004510:	200002a8 	.word	0x200002a8
 8004514:	200002ae 	.word	0x200002ae
 8004518:	200002b8 	.word	0x200002b8
 800451c:	200002b0 	.word	0x200002b0
 8004520:	40020400 	.word	0x40020400
 8004524:	40020000 	.word	0x40020000
 8004528:	40010400 	.word	0x40010400
 800452c:	4b3f      	ldr	r3, [pc, #252]	; (800462c <TIM5_IRQHandler+0x5dc>)
 800452e:	781b      	ldrb	r3, [r3, #0]
 8004530:	b2db      	uxtb	r3, r3
 8004532:	461a      	mov	r2, r3
 8004534:	4b3e      	ldr	r3, [pc, #248]	; (8004630 <TIM5_IRQHandler+0x5e0>)
 8004536:	785b      	ldrb	r3, [r3, #1]
 8004538:	b2db      	uxtb	r3, r3
 800453a:	3b01      	subs	r3, #1
 800453c:	429a      	cmp	r2, r3
 800453e:	d042      	beq.n	80045c6 <TIM5_IRQHandler+0x576>
 8004540:	4b3b      	ldr	r3, [pc, #236]	; (8004630 <TIM5_IRQHandler+0x5e0>)
 8004542:	785b      	ldrb	r3, [r3, #1]
 8004544:	b2db      	uxtb	r3, r3
 8004546:	3b01      	subs	r3, #1
 8004548:	b2da      	uxtb	r2, r3
 800454a:	4b38      	ldr	r3, [pc, #224]	; (800462c <TIM5_IRQHandler+0x5dc>)
 800454c:	701a      	strb	r2, [r3, #0]
 800454e:	4b37      	ldr	r3, [pc, #220]	; (800462c <TIM5_IRQHandler+0x5dc>)
 8004550:	781b      	ldrb	r3, [r3, #0]
 8004552:	b2db      	uxtb	r3, r3
 8004554:	4619      	mov	r1, r3
 8004556:	2001      	movs	r0, #1
 8004558:	f7fe ffe2 	bl	8003520 <GetStepVoltage>
 800455c:	4603      	mov	r3, r0
 800455e:	b29b      	uxth	r3, r3
 8004560:	4619      	mov	r1, r3
 8004562:	2000      	movs	r0, #0
 8004564:	f7fc fcfa 	bl	8000f5c <DAC_SetChannel2Data>
 8004568:	2104      	movs	r1, #4
 800456a:	4832      	ldr	r0, [pc, #200]	; (8004634 <TIM5_IRQHandler+0x5e4>)
 800456c:	f7fc fdad 	bl	80010ca <GPIO_ResetBits>
 8004570:	4b2e      	ldr	r3, [pc, #184]	; (800462c <TIM5_IRQHandler+0x5dc>)
 8004572:	781b      	ldrb	r3, [r3, #0]
 8004574:	b2db      	uxtb	r3, r3
 8004576:	4a30      	ldr	r2, [pc, #192]	; (8004638 <TIM5_IRQHandler+0x5e8>)
 8004578:	3320      	adds	r3, #32
 800457a:	00db      	lsls	r3, r3, #3
 800457c:	4413      	add	r3, r2
 800457e:	685b      	ldr	r3, [r3, #4]
 8004580:	f3c3 23c0 	ubfx	r3, r3, #11, #1
 8004584:	b2db      	uxtb	r3, r3
 8004586:	2b00      	cmp	r3, #0
 8004588:	d003      	beq.n	8004592 <TIM5_IRQHandler+0x542>
 800458a:	2108      	movs	r1, #8
 800458c:	4829      	ldr	r0, [pc, #164]	; (8004634 <TIM5_IRQHandler+0x5e4>)
 800458e:	f7fc fd9c 	bl	80010ca <GPIO_ResetBits>
 8004592:	4b26      	ldr	r3, [pc, #152]	; (800462c <TIM5_IRQHandler+0x5dc>)
 8004594:	781b      	ldrb	r3, [r3, #0]
 8004596:	b2db      	uxtb	r3, r3
 8004598:	4a27      	ldr	r2, [pc, #156]	; (8004638 <TIM5_IRQHandler+0x5e8>)
 800459a:	3320      	adds	r3, #32
 800459c:	00db      	lsls	r3, r3, #3
 800459e:	4413      	add	r3, r2
 80045a0:	685b      	ldr	r3, [r3, #4]
 80045a2:	f3c3 3300 	ubfx	r3, r3, #12, #1
 80045a6:	b2db      	uxtb	r3, r3
 80045a8:	2b00      	cmp	r3, #0
 80045aa:	d004      	beq.n	80045b6 <TIM5_IRQHandler+0x566>
 80045ac:	f44f 5180 	mov.w	r1, #4096	; 0x1000
 80045b0:	4820      	ldr	r0, [pc, #128]	; (8004634 <TIM5_IRQHandler+0x5e4>)
 80045b2:	f7fc fd8a 	bl	80010ca <GPIO_ResetBits>
 80045b6:	2101      	movs	r1, #1
 80045b8:	4820      	ldr	r0, [pc, #128]	; (800463c <TIM5_IRQHandler+0x5ec>)
 80045ba:	f7fc ff2c 	bl	8001416 <TIM_Cmd>
 80045be:	2100      	movs	r1, #0
 80045c0:	481e      	ldr	r0, [pc, #120]	; (800463c <TIM5_IRQHandler+0x5ec>)
 80045c2:	f7fc ff1b 	bl	80013fc <TIM_SetCounter>
 80045c6:	4b1e      	ldr	r3, [pc, #120]	; (8004640 <TIM5_IRQHandler+0x5f0>)
 80045c8:	781b      	ldrb	r3, [r3, #0]
 80045ca:	b2db      	uxtb	r3, r3
 80045cc:	2b03      	cmp	r3, #3
 80045ce:	d118      	bne.n	8004602 <TIM5_IRQHandler+0x5b2>
 80045d0:	4b17      	ldr	r3, [pc, #92]	; (8004630 <TIM5_IRQHandler+0x5e0>)
 80045d2:	785b      	ldrb	r3, [r3, #1]
 80045d4:	b2db      	uxtb	r3, r3
 80045d6:	3b01      	subs	r3, #1
 80045d8:	b2da      	uxtb	r2, r3
 80045da:	4b14      	ldr	r3, [pc, #80]	; (800462c <TIM5_IRQHandler+0x5dc>)
 80045dc:	701a      	strb	r2, [r3, #0]
 80045de:	4b13      	ldr	r3, [pc, #76]	; (800462c <TIM5_IRQHandler+0x5dc>)
 80045e0:	781b      	ldrb	r3, [r3, #0]
 80045e2:	b2db      	uxtb	r3, r3
 80045e4:	4619      	mov	r1, r3
 80045e6:	2001      	movs	r0, #1
 80045e8:	f7fe ff9a 	bl	8003520 <GetStepVoltage>
 80045ec:	4603      	mov	r3, r0
 80045ee:	b29b      	uxth	r3, r3
 80045f0:	4619      	mov	r1, r3
 80045f2:	2000      	movs	r0, #0
 80045f4:	f7fc fcb2 	bl	8000f5c <DAC_SetChannel2Data>
 80045f8:	4b12      	ldr	r3, [pc, #72]	; (8004644 <TIM5_IRQHandler+0x5f4>)
 80045fa:	781b      	ldrb	r3, [r3, #0]
 80045fc:	b2da      	uxtb	r2, r3
 80045fe:	4b10      	ldr	r3, [pc, #64]	; (8004640 <TIM5_IRQHandler+0x5f0>)
 8004600:	701a      	strb	r2, [r3, #0]
 8004602:	4b11      	ldr	r3, [pc, #68]	; (8004648 <TIM5_IRQHandler+0x5f8>)
 8004604:	781b      	ldrb	r3, [r3, #0]
 8004606:	b2db      	uxtb	r3, r3
 8004608:	2b01      	cmp	r3, #1
 800460a:	d10a      	bne.n	8004622 <TIM5_IRQHandler+0x5d2>
 800460c:	4a0f      	ldr	r2, [pc, #60]	; (800464c <TIM5_IRQHandler+0x5fc>)
 800460e:	7813      	ldrb	r3, [r2, #0]
 8004610:	f043 0301 	orr.w	r3, r3, #1
 8004614:	7013      	strb	r3, [r2, #0]
 8004616:	4a0d      	ldr	r2, [pc, #52]	; (800464c <TIM5_IRQHandler+0x5fc>)
 8004618:	7813      	ldrb	r3, [r2, #0]
 800461a:	f043 0302 	orr.w	r3, r3, #2
 800461e:	7013      	strb	r3, [r2, #0]
 8004620:	bf00      	nop
 8004622:	bf00      	nop
 8004624:	3710      	adds	r7, #16
 8004626:	46bd      	mov	sp, r7
 8004628:	bdb0      	pop	{r4, r5, r7, pc}
 800462a:	bf00      	nop
 800462c:	20000298 	.word	0x20000298
 8004630:	20000270 	.word	0x20000270
 8004634:	40020000 	.word	0x40020000
 8004638:	20000948 	.word	0x20000948
 800463c:	40010400 	.word	0x40010400
 8004640:	200002ae 	.word	0x200002ae
 8004644:	200002b0 	.word	0x200002b0
 8004648:	20000296 	.word	0x20000296
 800464c:	200002e0 	.word	0x200002e0

08004650 <mTimersInit>:
 8004650:	b580      	push	{r7, lr}
 8004652:	b084      	sub	sp, #16
 8004654:	af00      	add	r7, sp, #0
 8004656:	2101      	movs	r1, #1
 8004658:	2004      	movs	r0, #4
 800465a:	f7fc fd9b 	bl	8001194 <RCC_APB1PeriphClockCmd>
 800465e:	1d3b      	adds	r3, r7, #4
 8004660:	4618      	mov	r0, r3
 8004662:	f7fc fec3 	bl	80013ec <TIM_TimeBaseStructInit>
 8004666:	f642 1304 	movw	r3, #10500	; 0x2904
 800466a:	80bb      	strh	r3, [r7, #4]
 800466c:	2301      	movs	r3, #1
 800466e:	60bb      	str	r3, [r7, #8]
 8004670:	2300      	movs	r3, #0
 8004672:	81bb      	strh	r3, [r7, #12]
 8004674:	2300      	movs	r3, #0
 8004676:	80fb      	strh	r3, [r7, #6]
 8004678:	1d3b      	adds	r3, r7, #4
 800467a:	4619      	mov	r1, r3
 800467c:	484e      	ldr	r0, [pc, #312]	; (80047b8 <mTimersInit+0x168>)
 800467e:	f7fc fe77 	bl	8001370 <TIM_TimeBaseInit>
 8004682:	2101      	movs	r1, #1
 8004684:	484c      	ldr	r0, [pc, #304]	; (80047b8 <mTimersInit+0x168>)
 8004686:	f7fc febb 	bl	8001400 <TIM_ARRPreloadConfig>
 800468a:	2101      	movs	r1, #1
 800468c:	484a      	ldr	r0, [pc, #296]	; (80047b8 <mTimersInit+0x168>)
 800468e:	f7fc fec2 	bl	8001416 <TIM_Cmd>
 8004692:	2101      	movs	r1, #1
 8004694:	2008      	movs	r0, #8
 8004696:	f7fc fd7d 	bl	8001194 <RCC_APB1PeriphClockCmd>
 800469a:	1d3b      	adds	r3, r7, #4
 800469c:	4619      	mov	r1, r3
 800469e:	4847      	ldr	r0, [pc, #284]	; (80047bc <mTimersInit+0x16c>)
 80046a0:	f7fc fe66 	bl	8001370 <TIM_TimeBaseInit>
 80046a4:	2101      	movs	r1, #1
 80046a6:	4845      	ldr	r0, [pc, #276]	; (80047bc <mTimersInit+0x16c>)
 80046a8:	f7fc feaa 	bl	8001400 <TIM_ARRPreloadConfig>
 80046ac:	2101      	movs	r1, #1
 80046ae:	4843      	ldr	r0, [pc, #268]	; (80047bc <mTimersInit+0x16c>)
 80046b0:	f7fc feb1 	bl	8001416 <TIM_Cmd>
 80046b4:	2201      	movs	r2, #1
 80046b6:	2101      	movs	r1, #1
 80046b8:	483f      	ldr	r0, [pc, #252]	; (80047b8 <mTimersInit+0x168>)
 80046ba:	f7fc fec7 	bl	800144c <TIM_ITConfig>
 80046be:	2201      	movs	r2, #1
 80046c0:	2101      	movs	r1, #1
 80046c2:	483e      	ldr	r0, [pc, #248]	; (80047bc <mTimersInit+0x16c>)
 80046c4:	f7fc fec2 	bl	800144c <TIM_ITConfig>
 80046c8:	231e      	movs	r3, #30
 80046ca:	703b      	strb	r3, [r7, #0]
 80046cc:	2300      	movs	r3, #0
 80046ce:	707b      	strb	r3, [r7, #1]
 80046d0:	2300      	movs	r3, #0
 80046d2:	70bb      	strb	r3, [r7, #2]
 80046d4:	2301      	movs	r3, #1
 80046d6:	70fb      	strb	r3, [r7, #3]
 80046d8:	463b      	mov	r3, r7
 80046da:	4618      	mov	r0, r3
 80046dc:	f7fc fb22 	bl	8000d24 <NVIC_Init>
 80046e0:	2332      	movs	r3, #50	; 0x32
 80046e2:	703b      	strb	r3, [r7, #0]
 80046e4:	2300      	movs	r3, #0
 80046e6:	707b      	strb	r3, [r7, #1]
 80046e8:	2300      	movs	r3, #0
 80046ea:	70bb      	strb	r3, [r7, #2]
 80046ec:	2301      	movs	r3, #1
 80046ee:	70fb      	strb	r3, [r7, #3]
 80046f0:	463b      	mov	r3, r7
 80046f2:	4618      	mov	r0, r3
 80046f4:	f7fc fb16 	bl	8000d24 <NVIC_Init>
 80046f8:	2100      	movs	r1, #0
 80046fa:	201e      	movs	r0, #30
 80046fc:	f7fd fcde 	bl	80020bc <NVIC_SetPriority>
 8004700:	2100      	movs	r1, #0
 8004702:	2032      	movs	r0, #50	; 0x32
 8004704:	f7fd fcda 	bl	80020bc <NVIC_SetPriority>
 8004708:	4b2d      	ldr	r3, [pc, #180]	; (80047c0 <mTimersInit+0x170>)
 800470a:	4a2e      	ldr	r2, [pc, #184]	; (80047c4 <mTimersInit+0x174>)
 800470c:	60da      	str	r2, [r3, #12]
 800470e:	4b2e      	ldr	r3, [pc, #184]	; (80047c8 <mTimersInit+0x178>)
 8004710:	2208      	movs	r2, #8
 8004712:	601a      	str	r2, [r3, #0]
 8004714:	4b2d      	ldr	r3, [pc, #180]	; (80047cc <mTimersInit+0x17c>)
 8004716:	2208      	movs	r2, #8
 8004718:	601a      	str	r2, [r3, #0]
 800471a:	4b2d      	ldr	r3, [pc, #180]	; (80047d0 <mTimersInit+0x180>)
 800471c:	2208      	movs	r2, #8
 800471e:	601a      	str	r2, [r3, #0]
 8004720:	4b2c      	ldr	r3, [pc, #176]	; (80047d4 <mTimersInit+0x184>)
 8004722:	2208      	movs	r2, #8
 8004724:	601a      	str	r2, [r3, #0]
 8004726:	2101      	movs	r1, #1
 8004728:	f44f 7080 	mov.w	r0, #256	; 0x100
 800472c:	f7fc fd32 	bl	8001194 <RCC_APB1PeriphClockCmd>
 8004730:	1d3b      	adds	r3, r7, #4
 8004732:	4618      	mov	r0, r3
 8004734:	f7fc fe5a 	bl	80013ec <TIM_TimeBaseStructInit>
 8004738:	23d2      	movs	r3, #210	; 0xd2
 800473a:	80bb      	strh	r3, [r7, #4]
 800473c:	f44f 73a0 	mov.w	r3, #320	; 0x140
 8004740:	60bb      	str	r3, [r7, #8]
 8004742:	2300      	movs	r3, #0
 8004744:	81bb      	strh	r3, [r7, #12]
 8004746:	2300      	movs	r3, #0
 8004748:	80fb      	strh	r3, [r7, #6]
 800474a:	1d3b      	adds	r3, r7, #4
 800474c:	4619      	mov	r1, r3
 800474e:	4822      	ldr	r0, [pc, #136]	; (80047d8 <mTimersInit+0x188>)
 8004750:	f7fc fe0e 	bl	8001370 <TIM_TimeBaseInit>
 8004754:	2100      	movs	r1, #0
 8004756:	4820      	ldr	r0, [pc, #128]	; (80047d8 <mTimersInit+0x188>)
 8004758:	f7fc fe5d 	bl	8001416 <TIM_Cmd>
 800475c:	2201      	movs	r2, #1
 800475e:	2101      	movs	r1, #1
 8004760:	481d      	ldr	r0, [pc, #116]	; (80047d8 <mTimersInit+0x188>)
 8004762:	f7fc fe73 	bl	800144c <TIM_ITConfig>
 8004766:	202d      	movs	r0, #45	; 0x2d
 8004768:	f7fd fc74 	bl	8002054 <NVIC_EnableIRQ>
 800476c:	2101      	movs	r1, #1
 800476e:	2002      	movs	r0, #2
 8004770:	f7fc fd1c 	bl	80011ac <RCC_APB2PeriphClockCmd>
 8004774:	1d3b      	adds	r3, r7, #4
 8004776:	4618      	mov	r0, r3
 8004778:	f7fc fe38 	bl	80013ec <TIM_TimeBaseStructInit>
 800477c:	23d2      	movs	r3, #210	; 0xd2
 800477e:	80bb      	strh	r3, [r7, #4]
 8004780:	f44f 7320 	mov.w	r3, #640	; 0x280
 8004784:	60bb      	str	r3, [r7, #8]
 8004786:	2300      	movs	r3, #0
 8004788:	81bb      	strh	r3, [r7, #12]
 800478a:	2300      	movs	r3, #0
 800478c:	80fb      	strh	r3, [r7, #6]
 800478e:	1d3b      	adds	r3, r7, #4
 8004790:	4619      	mov	r1, r3
 8004792:	4812      	ldr	r0, [pc, #72]	; (80047dc <mTimersInit+0x18c>)
 8004794:	f7fc fdec 	bl	8001370 <TIM_TimeBaseInit>
 8004798:	2100      	movs	r1, #0
 800479a:	4810      	ldr	r0, [pc, #64]	; (80047dc <mTimersInit+0x18c>)
 800479c:	f7fc fe3b 	bl	8001416 <TIM_Cmd>
 80047a0:	2201      	movs	r2, #1
 80047a2:	2101      	movs	r1, #1
 80047a4:	480d      	ldr	r0, [pc, #52]	; (80047dc <mTimersInit+0x18c>)
 80047a6:	f7fc fe51 	bl	800144c <TIM_ITConfig>
 80047aa:	202c      	movs	r0, #44	; 0x2c
 80047ac:	f7fd fc52 	bl	8002054 <NVIC_EnableIRQ>
 80047b0:	bf00      	nop
 80047b2:	3710      	adds	r7, #16
 80047b4:	46bd      	mov	sp, r7
 80047b6:	bd80      	pop	{r7, pc}
 80047b8:	40000800 	.word	0x40000800
 80047bc:	40000c00 	.word	0x40000c00
 80047c0:	e000ed00 	.word	0xe000ed00
 80047c4:	05fa0700 	.word	0x05fa0700
 80047c8:	200002a4 	.word	0x200002a4
 80047cc:	200002a8 	.word	0x200002a8
 80047d0:	2000029c 	.word	0x2000029c
 80047d4:	200002a0 	.word	0x200002a0
 80047d8:	40002000 	.word	0x40002000
 80047dc:	40010400 	.word	0x40010400

080047e0 <TIM8_UP_TIM13_IRQHandler>:
 80047e0:	b580      	push	{r7, lr}
 80047e2:	af00      	add	r7, sp, #0
 80047e4:	2101      	movs	r1, #1
 80047e6:	480e      	ldr	r0, [pc, #56]	; (8004820 <TIM8_UP_TIM13_IRQHandler+0x40>)
 80047e8:	f7fc fe38 	bl	800145c <TIM_GetITStatus>
 80047ec:	4603      	mov	r3, r0
 80047ee:	2b00      	cmp	r3, #0
 80047f0:	d014      	beq.n	800481c <TIM8_UP_TIM13_IRQHandler+0x3c>
 80047f2:	2100      	movs	r1, #0
 80047f4:	480a      	ldr	r0, [pc, #40]	; (8004820 <TIM8_UP_TIM13_IRQHandler+0x40>)
 80047f6:	f7fc fe0e 	bl	8001416 <TIM_Cmd>
 80047fa:	2104      	movs	r1, #4
 80047fc:	4809      	ldr	r0, [pc, #36]	; (8004824 <TIM8_UP_TIM13_IRQHandler+0x44>)
 80047fe:	f7fc fc62 	bl	80010c6 <GPIO_SetBits>
 8004802:	2108      	movs	r1, #8
 8004804:	4807      	ldr	r0, [pc, #28]	; (8004824 <TIM8_UP_TIM13_IRQHandler+0x44>)
 8004806:	f7fc fc5e 	bl	80010c6 <GPIO_SetBits>
 800480a:	f44f 5180 	mov.w	r1, #4096	; 0x1000
 800480e:	4805      	ldr	r0, [pc, #20]	; (8004824 <TIM8_UP_TIM13_IRQHandler+0x44>)
 8004810:	f7fc fc59 	bl	80010c6 <GPIO_SetBits>
 8004814:	2101      	movs	r1, #1
 8004816:	4802      	ldr	r0, [pc, #8]	; (8004820 <TIM8_UP_TIM13_IRQHandler+0x40>)
 8004818:	f7fc fe2b 	bl	8001472 <TIM_ClearITPendingBit>
 800481c:	bf00      	nop
 800481e:	bd80      	pop	{r7, pc}
 8004820:	40010400 	.word	0x40010400
 8004824:	40020000 	.word	0x40020000

08004828 <TIM8_TRG_COM_TIM14_IRQHandler>:
 8004828:	b580      	push	{r7, lr}
 800482a:	af00      	add	r7, sp, #0
 800482c:	2101      	movs	r1, #1
 800482e:	480f      	ldr	r0, [pc, #60]	; (800486c <TIM8_TRG_COM_TIM14_IRQHandler+0x44>)
 8004830:	f7fc fe14 	bl	800145c <TIM_GetITStatus>
 8004834:	4603      	mov	r3, r0
 8004836:	2b00      	cmp	r3, #0
 8004838:	d016      	beq.n	8004868 <TIM8_TRG_COM_TIM14_IRQHandler+0x40>
 800483a:	2100      	movs	r1, #0
 800483c:	480b      	ldr	r0, [pc, #44]	; (800486c <TIM8_TRG_COM_TIM14_IRQHandler+0x44>)
 800483e:	f7fc fdea 	bl	8001416 <TIM_Cmd>
 8004842:	f44f 7100 	mov.w	r1, #512	; 0x200
 8004846:	480a      	ldr	r0, [pc, #40]	; (8004870 <TIM8_TRG_COM_TIM14_IRQHandler+0x48>)
 8004848:	f7fc fc3d 	bl	80010c6 <GPIO_SetBits>
 800484c:	f44f 6100 	mov.w	r1, #2048	; 0x800
 8004850:	4807      	ldr	r0, [pc, #28]	; (8004870 <TIM8_TRG_COM_TIM14_IRQHandler+0x48>)
 8004852:	f7fc fc38 	bl	80010c6 <GPIO_SetBits>
 8004856:	f44f 6180 	mov.w	r1, #1024	; 0x400
 800485a:	4805      	ldr	r0, [pc, #20]	; (8004870 <TIM8_TRG_COM_TIM14_IRQHandler+0x48>)
 800485c:	f7fc fc33 	bl	80010c6 <GPIO_SetBits>
 8004860:	2101      	movs	r1, #1
 8004862:	4802      	ldr	r0, [pc, #8]	; (800486c <TIM8_TRG_COM_TIM14_IRQHandler+0x44>)
 8004864:	f7fc fe05 	bl	8001472 <TIM_ClearITPendingBit>
 8004868:	bf00      	nop
 800486a:	bd80      	pop	{r7, pc}
 800486c:	40002000 	.word	0x40002000
 8004870:	40020400 	.word	0x40020400

08004874 <TIM3_IRQHandler>:
 8004874:	b580      	push	{r7, lr}
 8004876:	af00      	add	r7, sp, #0
 8004878:	4b4a      	ldr	r3, [pc, #296]	; (80049a4 <TIM3_IRQHandler+0x130>)
 800487a:	f64f 72fe 	movw	r2, #65534	; 0xfffe
 800487e:	821a      	strh	r2, [r3, #16]
 8004880:	4b49      	ldr	r3, [pc, #292]	; (80049a8 <TIM3_IRQHandler+0x134>)
 8004882:	781b      	ldrb	r3, [r3, #0]
 8004884:	b2db      	uxtb	r3, r3
 8004886:	2b04      	cmp	r3, #4
 8004888:	d107      	bne.n	800489a <TIM3_IRQHandler+0x26>
 800488a:	f44f 7180 	mov.w	r1, #256	; 0x100
 800488e:	4847      	ldr	r0, [pc, #284]	; (80049ac <TIM3_IRQHandler+0x138>)
 8004890:	f7fc fc13 	bl	80010ba <GPIO_ReadInputDataBit>
 8004894:	4603      	mov	r3, r0
 8004896:	2b00      	cmp	r3, #0
 8004898:	d022      	beq.n	80048e0 <TIM3_IRQHandler+0x6c>
 800489a:	4b43      	ldr	r3, [pc, #268]	; (80049a8 <TIM3_IRQHandler+0x134>)
 800489c:	781b      	ldrb	r3, [r3, #0]
 800489e:	b2db      	uxtb	r3, r3
 80048a0:	2b04      	cmp	r3, #4
 80048a2:	d11d      	bne.n	80048e0 <TIM3_IRQHandler+0x6c>
 80048a4:	f44f 7180 	mov.w	r1, #256	; 0x100
 80048a8:	4840      	ldr	r0, [pc, #256]	; (80049ac <TIM3_IRQHandler+0x138>)
 80048aa:	f7fc fc06 	bl	80010ba <GPIO_ReadInputDataBit>
 80048ae:	4603      	mov	r3, r0
 80048b0:	2b01      	cmp	r3, #1
 80048b2:	d115      	bne.n	80048e0 <TIM3_IRQHandler+0x6c>
 80048b4:	4b3c      	ldr	r3, [pc, #240]	; (80049a8 <TIM3_IRQHandler+0x134>)
 80048b6:	2200      	movs	r2, #0
 80048b8:	701a      	strb	r2, [r3, #0]
 80048ba:	4b3d      	ldr	r3, [pc, #244]	; (80049b0 <TIM3_IRQHandler+0x13c>)
 80048bc:	781b      	ldrb	r3, [r3, #0]
 80048be:	b2db      	uxtb	r3, r3
 80048c0:	4619      	mov	r1, r3
 80048c2:	2000      	movs	r0, #0
 80048c4:	f7ff f82e 	bl	8003924 <GetNextStep>
 80048c8:	4603      	mov	r3, r0
 80048ca:	461a      	mov	r2, r3
 80048cc:	4b38      	ldr	r3, [pc, #224]	; (80049b0 <TIM3_IRQHandler+0x13c>)
 80048ce:	701a      	strb	r2, [r3, #0]
 80048d0:	4b34      	ldr	r3, [pc, #208]	; (80049a4 <TIM3_IRQHandler+0x130>)
 80048d2:	881b      	ldrh	r3, [r3, #0]
 80048d4:	b29b      	uxth	r3, r3
 80048d6:	4a33      	ldr	r2, [pc, #204]	; (80049a4 <TIM3_IRQHandler+0x130>)
 80048d8:	f023 0301 	bic.w	r3, r3, #1
 80048dc:	b29b      	uxth	r3, r3
 80048de:	8013      	strh	r3, [r2, #0]
 80048e0:	4b31      	ldr	r3, [pc, #196]	; (80049a8 <TIM3_IRQHandler+0x134>)
 80048e2:	781b      	ldrb	r3, [r3, #0]
 80048e4:	b2db      	uxtb	r3, r3
 80048e6:	2b05      	cmp	r3, #5
 80048e8:	d107      	bne.n	80048fa <TIM3_IRQHandler+0x86>
 80048ea:	f44f 7180 	mov.w	r1, #256	; 0x100
 80048ee:	482f      	ldr	r0, [pc, #188]	; (80049ac <TIM3_IRQHandler+0x138>)
 80048f0:	f7fc fbe3 	bl	80010ba <GPIO_ReadInputDataBit>
 80048f4:	4603      	mov	r3, r0
 80048f6:	2b01      	cmp	r3, #1
 80048f8:	d052      	beq.n	80049a0 <TIM3_IRQHandler+0x12c>
 80048fa:	4b2b      	ldr	r3, [pc, #172]	; (80049a8 <TIM3_IRQHandler+0x134>)
 80048fc:	781b      	ldrb	r3, [r3, #0]
 80048fe:	b2db      	uxtb	r3, r3
 8004900:	2b05      	cmp	r3, #5
 8004902:	d14d      	bne.n	80049a0 <TIM3_IRQHandler+0x12c>
 8004904:	f44f 7180 	mov.w	r1, #256	; 0x100
 8004908:	4828      	ldr	r0, [pc, #160]	; (80049ac <TIM3_IRQHandler+0x138>)
 800490a:	f7fc fbd6 	bl	80010ba <GPIO_ReadInputDataBit>
 800490e:	4603      	mov	r3, r0
 8004910:	2b00      	cmp	r3, #0
 8004912:	d145      	bne.n	80049a0 <TIM3_IRQHandler+0x12c>
 8004914:	4b24      	ldr	r3, [pc, #144]	; (80049a8 <TIM3_IRQHandler+0x134>)
 8004916:	2200      	movs	r2, #0
 8004918:	701a      	strb	r2, [r3, #0]
 800491a:	4b25      	ldr	r3, [pc, #148]	; (80049b0 <TIM3_IRQHandler+0x13c>)
 800491c:	781b      	ldrb	r3, [r3, #0]
 800491e:	b2db      	uxtb	r3, r3
 8004920:	4619      	mov	r1, r3
 8004922:	2000      	movs	r0, #0
 8004924:	f7fe fffe 	bl	8003924 <GetNextStep>
 8004928:	4603      	mov	r3, r0
 800492a:	461a      	mov	r2, r3
 800492c:	4b20      	ldr	r3, [pc, #128]	; (80049b0 <TIM3_IRQHandler+0x13c>)
 800492e:	701a      	strb	r2, [r3, #0]
 8004930:	4b1c      	ldr	r3, [pc, #112]	; (80049a4 <TIM3_IRQHandler+0x130>)
 8004932:	881b      	ldrh	r3, [r3, #0]
 8004934:	b29b      	uxth	r3, r3
 8004936:	4a1b      	ldr	r2, [pc, #108]	; (80049a4 <TIM3_IRQHandler+0x130>)
 8004938:	f023 0301 	bic.w	r3, r3, #1
 800493c:	b29b      	uxth	r3, r3
 800493e:	8013      	strh	r3, [r2, #0]
 8004940:	f44f 7100 	mov.w	r1, #512	; 0x200
 8004944:	4819      	ldr	r0, [pc, #100]	; (80049ac <TIM3_IRQHandler+0x138>)
 8004946:	f7fc fbc0 	bl	80010ca <GPIO_ResetBits>
 800494a:	4b19      	ldr	r3, [pc, #100]	; (80049b0 <TIM3_IRQHandler+0x13c>)
 800494c:	781b      	ldrb	r3, [r3, #0]
 800494e:	b2db      	uxtb	r3, r3
 8004950:	4a18      	ldr	r2, [pc, #96]	; (80049b4 <TIM3_IRQHandler+0x140>)
 8004952:	00db      	lsls	r3, r3, #3
 8004954:	4413      	add	r3, r2
 8004956:	685b      	ldr	r3, [r3, #4]
 8004958:	f3c3 23c0 	ubfx	r3, r3, #11, #1
 800495c:	b2db      	uxtb	r3, r3
 800495e:	2b00      	cmp	r3, #0
 8004960:	d004      	beq.n	800496c <TIM3_IRQHandler+0xf8>
 8004962:	f44f 6100 	mov.w	r1, #2048	; 0x800
 8004966:	4811      	ldr	r0, [pc, #68]	; (80049ac <TIM3_IRQHandler+0x138>)
 8004968:	f7fc fbaf 	bl	80010ca <GPIO_ResetBits>
 800496c:	4b10      	ldr	r3, [pc, #64]	; (80049b0 <TIM3_IRQHandler+0x13c>)
 800496e:	781b      	ldrb	r3, [r3, #0]
 8004970:	b2db      	uxtb	r3, r3
 8004972:	4a10      	ldr	r2, [pc, #64]	; (80049b4 <TIM3_IRQHandler+0x140>)
 8004974:	00db      	lsls	r3, r3, #3
 8004976:	4413      	add	r3, r2
 8004978:	685b      	ldr	r3, [r3, #4]
 800497a:	f3c3 3300 	ubfx	r3, r3, #12, #1
 800497e:	b2db      	uxtb	r3, r3
 8004980:	2b00      	cmp	r3, #0
 8004982:	d004      	beq.n	800498e <TIM3_IRQHandler+0x11a>
 8004984:	f44f 6180 	mov.w	r1, #1024	; 0x400
 8004988:	4808      	ldr	r0, [pc, #32]	; (80049ac <TIM3_IRQHandler+0x138>)
 800498a:	f7fc fb9e 	bl	80010ca <GPIO_ResetBits>
 800498e:	2101      	movs	r1, #1
 8004990:	4809      	ldr	r0, [pc, #36]	; (80049b8 <TIM3_IRQHandler+0x144>)
 8004992:	f7fc fd40 	bl	8001416 <TIM_Cmd>
 8004996:	2100      	movs	r1, #0
 8004998:	4807      	ldr	r0, [pc, #28]	; (80049b8 <TIM3_IRQHandler+0x144>)
 800499a:	f7fc fd2f 	bl	80013fc <TIM_SetCounter>
 800499e:	e7ff      	b.n	80049a0 <TIM3_IRQHandler+0x12c>
 80049a0:	bf00      	nop
 80049a2:	bd80      	pop	{r7, pc}
 80049a4:	40000400 	.word	0x40000400
 80049a8:	200002ad 	.word	0x200002ad
 80049ac:	40020400 	.word	0x40020400
 80049b0:	20000297 	.word	0x20000297
 80049b4:	20000948 	.word	0x20000948
 80049b8:	40002000 	.word	0x40002000

080049bc <TIM7_IRQHandler>:
 80049bc:	b580      	push	{r7, lr}
 80049be:	af00      	add	r7, sp, #0
 80049c0:	4b48      	ldr	r3, [pc, #288]	; (8004ae4 <TIM7_IRQHandler+0x128>)
 80049c2:	f64f 72fe 	movw	r2, #65534	; 0xfffe
 80049c6:	821a      	strh	r2, [r3, #16]
 80049c8:	4b47      	ldr	r3, [pc, #284]	; (8004ae8 <TIM7_IRQHandler+0x12c>)
 80049ca:	781b      	ldrb	r3, [r3, #0]
 80049cc:	b2db      	uxtb	r3, r3
 80049ce:	2b04      	cmp	r3, #4
 80049d0:	d106      	bne.n	80049e0 <TIM7_IRQHandler+0x24>
 80049d2:	2140      	movs	r1, #64	; 0x40
 80049d4:	4845      	ldr	r0, [pc, #276]	; (8004aec <TIM7_IRQHandler+0x130>)
 80049d6:	f7fc fb70 	bl	80010ba <GPIO_ReadInputDataBit>
 80049da:	4603      	mov	r3, r0
 80049dc:	2b00      	cmp	r3, #0
 80049de:	d021      	beq.n	8004a24 <TIM7_IRQHandler+0x68>
 80049e0:	4b41      	ldr	r3, [pc, #260]	; (8004ae8 <TIM7_IRQHandler+0x12c>)
 80049e2:	781b      	ldrb	r3, [r3, #0]
 80049e4:	b2db      	uxtb	r3, r3
 80049e6:	2b04      	cmp	r3, #4
 80049e8:	d11c      	bne.n	8004a24 <TIM7_IRQHandler+0x68>
 80049ea:	2140      	movs	r1, #64	; 0x40
 80049ec:	483f      	ldr	r0, [pc, #252]	; (8004aec <TIM7_IRQHandler+0x130>)
 80049ee:	f7fc fb64 	bl	80010ba <GPIO_ReadInputDataBit>
 80049f2:	4603      	mov	r3, r0
 80049f4:	2b01      	cmp	r3, #1
 80049f6:	d115      	bne.n	8004a24 <TIM7_IRQHandler+0x68>
 80049f8:	4b3b      	ldr	r3, [pc, #236]	; (8004ae8 <TIM7_IRQHandler+0x12c>)
 80049fa:	2200      	movs	r2, #0
 80049fc:	701a      	strb	r2, [r3, #0]
 80049fe:	4b3c      	ldr	r3, [pc, #240]	; (8004af0 <TIM7_IRQHandler+0x134>)
 8004a00:	781b      	ldrb	r3, [r3, #0]
 8004a02:	b2db      	uxtb	r3, r3
 8004a04:	4619      	mov	r1, r3
 8004a06:	2001      	movs	r0, #1
 8004a08:	f7fe ff8c 	bl	8003924 <GetNextStep>
 8004a0c:	4603      	mov	r3, r0
 8004a0e:	461a      	mov	r2, r3
 8004a10:	4b37      	ldr	r3, [pc, #220]	; (8004af0 <TIM7_IRQHandler+0x134>)
 8004a12:	701a      	strb	r2, [r3, #0]
 8004a14:	4b33      	ldr	r3, [pc, #204]	; (8004ae4 <TIM7_IRQHandler+0x128>)
 8004a16:	881b      	ldrh	r3, [r3, #0]
 8004a18:	b29b      	uxth	r3, r3
 8004a1a:	4a32      	ldr	r2, [pc, #200]	; (8004ae4 <TIM7_IRQHandler+0x128>)
 8004a1c:	f023 0301 	bic.w	r3, r3, #1
 8004a20:	b29b      	uxth	r3, r3
 8004a22:	8013      	strh	r3, [r2, #0]
 8004a24:	4b30      	ldr	r3, [pc, #192]	; (8004ae8 <TIM7_IRQHandler+0x12c>)
 8004a26:	781b      	ldrb	r3, [r3, #0]
 8004a28:	b2db      	uxtb	r3, r3
 8004a2a:	2b05      	cmp	r3, #5
 8004a2c:	d106      	bne.n	8004a3c <TIM7_IRQHandler+0x80>
 8004a2e:	2140      	movs	r1, #64	; 0x40
 8004a30:	482e      	ldr	r0, [pc, #184]	; (8004aec <TIM7_IRQHandler+0x130>)
 8004a32:	f7fc fb42 	bl	80010ba <GPIO_ReadInputDataBit>
 8004a36:	4603      	mov	r3, r0
 8004a38:	2b01      	cmp	r3, #1
 8004a3a:	d051      	beq.n	8004ae0 <TIM7_IRQHandler+0x124>
 8004a3c:	4b2a      	ldr	r3, [pc, #168]	; (8004ae8 <TIM7_IRQHandler+0x12c>)
 8004a3e:	781b      	ldrb	r3, [r3, #0]
 8004a40:	b2db      	uxtb	r3, r3
 8004a42:	2b05      	cmp	r3, #5
 8004a44:	d14c      	bne.n	8004ae0 <TIM7_IRQHandler+0x124>
 8004a46:	2140      	movs	r1, #64	; 0x40
 8004a48:	4828      	ldr	r0, [pc, #160]	; (8004aec <TIM7_IRQHandler+0x130>)
 8004a4a:	f7fc fb36 	bl	80010ba <GPIO_ReadInputDataBit>
 8004a4e:	4603      	mov	r3, r0
 8004a50:	2b00      	cmp	r3, #0
 8004a52:	d145      	bne.n	8004ae0 <TIM7_IRQHandler+0x124>
 8004a54:	4b24      	ldr	r3, [pc, #144]	; (8004ae8 <TIM7_IRQHandler+0x12c>)
 8004a56:	2200      	movs	r2, #0
 8004a58:	701a      	strb	r2, [r3, #0]
 8004a5a:	4b25      	ldr	r3, [pc, #148]	; (8004af0 <TIM7_IRQHandler+0x134>)
 8004a5c:	781b      	ldrb	r3, [r3, #0]
 8004a5e:	b2db      	uxtb	r3, r3
 8004a60:	4619      	mov	r1, r3
 8004a62:	2001      	movs	r0, #1
 8004a64:	f7fe ff5e 	bl	8003924 <GetNextStep>
 8004a68:	4603      	mov	r3, r0
 8004a6a:	461a      	mov	r2, r3
 8004a6c:	4b20      	ldr	r3, [pc, #128]	; (8004af0 <TIM7_IRQHandler+0x134>)
 8004a6e:	701a      	strb	r2, [r3, #0]
 8004a70:	4b1c      	ldr	r3, [pc, #112]	; (8004ae4 <TIM7_IRQHandler+0x128>)
 8004a72:	881b      	ldrh	r3, [r3, #0]
 8004a74:	b29b      	uxth	r3, r3
 8004a76:	4a1b      	ldr	r2, [pc, #108]	; (8004ae4 <TIM7_IRQHandler+0x128>)
 8004a78:	f023 0301 	bic.w	r3, r3, #1
 8004a7c:	b29b      	uxth	r3, r3
 8004a7e:	8013      	strh	r3, [r2, #0]
 8004a80:	2104      	movs	r1, #4
 8004a82:	481c      	ldr	r0, [pc, #112]	; (8004af4 <TIM7_IRQHandler+0x138>)
 8004a84:	f7fc fb21 	bl	80010ca <GPIO_ResetBits>
 8004a88:	4b19      	ldr	r3, [pc, #100]	; (8004af0 <TIM7_IRQHandler+0x134>)
 8004a8a:	781b      	ldrb	r3, [r3, #0]
 8004a8c:	b2db      	uxtb	r3, r3
 8004a8e:	4a1a      	ldr	r2, [pc, #104]	; (8004af8 <TIM7_IRQHandler+0x13c>)
 8004a90:	3320      	adds	r3, #32
 8004a92:	00db      	lsls	r3, r3, #3
 8004a94:	4413      	add	r3, r2
 8004a96:	685b      	ldr	r3, [r3, #4]
 8004a98:	f3c3 23c0 	ubfx	r3, r3, #11, #1
 8004a9c:	b2db      	uxtb	r3, r3
 8004a9e:	2b00      	cmp	r3, #0
 8004aa0:	d003      	beq.n	8004aaa <TIM7_IRQHandler+0xee>
 8004aa2:	2108      	movs	r1, #8
 8004aa4:	4813      	ldr	r0, [pc, #76]	; (8004af4 <TIM7_IRQHandler+0x138>)
 8004aa6:	f7fc fb10 	bl	80010ca <GPIO_ResetBits>
 8004aaa:	4b11      	ldr	r3, [pc, #68]	; (8004af0 <TIM7_IRQHandler+0x134>)
 8004aac:	781b      	ldrb	r3, [r3, #0]
 8004aae:	b2db      	uxtb	r3, r3
 8004ab0:	4a11      	ldr	r2, [pc, #68]	; (8004af8 <TIM7_IRQHandler+0x13c>)
 8004ab2:	3320      	adds	r3, #32
 8004ab4:	00db      	lsls	r3, r3, #3
 8004ab6:	4413      	add	r3, r2
 8004ab8:	685b      	ldr	r3, [r3, #4]
 8004aba:	f3c3 3300 	ubfx	r3, r3, #12, #1
 8004abe:	b2db      	uxtb	r3, r3
 8004ac0:	2b00      	cmp	r3, #0
 8004ac2:	d004      	beq.n	8004ace <TIM7_IRQHandler+0x112>
 8004ac4:	f44f 5180 	mov.w	r1, #4096	; 0x1000
 8004ac8:	480a      	ldr	r0, [pc, #40]	; (8004af4 <TIM7_IRQHandler+0x138>)
 8004aca:	f7fc fafe 	bl	80010ca <GPIO_ResetBits>
 8004ace:	2101      	movs	r1, #1
 8004ad0:	480a      	ldr	r0, [pc, #40]	; (8004afc <TIM7_IRQHandler+0x140>)
 8004ad2:	f7fc fca0 	bl	8001416 <TIM_Cmd>
 8004ad6:	2100      	movs	r1, #0
 8004ad8:	4808      	ldr	r0, [pc, #32]	; (8004afc <TIM7_IRQHandler+0x140>)
 8004ada:	f7fc fc8f 	bl	80013fc <TIM_SetCounter>
 8004ade:	e7ff      	b.n	8004ae0 <TIM7_IRQHandler+0x124>
 8004ae0:	bf00      	nop
 8004ae2:	bd80      	pop	{r7, pc}
 8004ae4:	40001400 	.word	0x40001400
 8004ae8:	200002ae 	.word	0x200002ae
 8004aec:	40020400 	.word	0x40020400
 8004af0:	20000298 	.word	0x20000298
 8004af4:	40020000 	.word	0x40020000
 8004af8:	20000948 	.word	0x20000948
 8004afc:	40010400 	.word	0x40010400

08004b00 <TIM6_DAC_IRQHandler>:
 8004b00:	b590      	push	{r4, r7, lr}
 8004b02:	b085      	sub	sp, #20
 8004b04:	af00      	add	r7, sp, #0
 8004b06:	4b9c      	ldr	r3, [pc, #624]	; (8004d78 <TIM6_DAC_IRQHandler+0x278>)
 8004b08:	f64f 72fe 	movw	r2, #65534	; 0xfffe
 8004b0c:	821a      	strh	r2, [r3, #16]
 8004b0e:	f7fc ff37 	bl	8001980 <GetButton>
 8004b12:	4603      	mov	r3, r0
 8004b14:	460c      	mov	r4, r1
 8004b16:	e9c7 3400 	strd	r3, r4, [r7]
 8004b1a:	4b98      	ldr	r3, [pc, #608]	; (8004d7c <TIM6_DAC_IRQHandler+0x27c>)
 8004b1c:	781b      	ldrb	r3, [r3, #0]
 8004b1e:	2b1d      	cmp	r3, #29
 8004b20:	d844      	bhi.n	8004bac <TIM6_DAC_IRQHandler+0xac>
 8004b22:	4b97      	ldr	r3, [pc, #604]	; (8004d80 <TIM6_DAC_IRQHandler+0x280>)
 8004b24:	781b      	ldrb	r3, [r3, #0]
 8004b26:	2b1d      	cmp	r3, #29
 8004b28:	d840      	bhi.n	8004bac <TIM6_DAC_IRQHandler+0xac>
 8004b2a:	783b      	ldrb	r3, [r7, #0]
 8004b2c:	f003 0301 	and.w	r3, r3, #1
 8004b30:	b2db      	uxtb	r3, r3
 8004b32:	2b00      	cmp	r3, #0
 8004b34:	d005      	beq.n	8004b42 <TIM6_DAC_IRQHandler+0x42>
 8004b36:	783b      	ldrb	r3, [r7, #0]
 8004b38:	f003 0302 	and.w	r3, r3, #2
 8004b3c:	b2db      	uxtb	r3, r3
 8004b3e:	2b00      	cmp	r3, #0
 8004b40:	d120      	bne.n	8004b84 <TIM6_DAC_IRQHandler+0x84>
 8004b42:	783b      	ldrb	r3, [r7, #0]
 8004b44:	f003 0301 	and.w	r3, r3, #1
 8004b48:	b2db      	uxtb	r3, r3
 8004b4a:	2b00      	cmp	r3, #0
 8004b4c:	d106      	bne.n	8004b5c <TIM6_DAC_IRQHandler+0x5c>
 8004b4e:	4b8b      	ldr	r3, [pc, #556]	; (8004d7c <TIM6_DAC_IRQHandler+0x27c>)
 8004b50:	781b      	ldrb	r3, [r3, #0]
 8004b52:	3301      	adds	r3, #1
 8004b54:	b2da      	uxtb	r2, r3
 8004b56:	4b89      	ldr	r3, [pc, #548]	; (8004d7c <TIM6_DAC_IRQHandler+0x27c>)
 8004b58:	701a      	strb	r2, [r3, #0]
 8004b5a:	e002      	b.n	8004b62 <TIM6_DAC_IRQHandler+0x62>
 8004b5c:	4b87      	ldr	r3, [pc, #540]	; (8004d7c <TIM6_DAC_IRQHandler+0x27c>)
 8004b5e:	2200      	movs	r2, #0
 8004b60:	701a      	strb	r2, [r3, #0]
 8004b62:	783b      	ldrb	r3, [r7, #0]
 8004b64:	f003 0302 	and.w	r3, r3, #2
 8004b68:	b2db      	uxtb	r3, r3
 8004b6a:	2b00      	cmp	r3, #0
 8004b6c:	d106      	bne.n	8004b7c <TIM6_DAC_IRQHandler+0x7c>
 8004b6e:	4b84      	ldr	r3, [pc, #528]	; (8004d80 <TIM6_DAC_IRQHandler+0x280>)
 8004b70:	781b      	ldrb	r3, [r3, #0]
 8004b72:	3301      	adds	r3, #1
 8004b74:	b2da      	uxtb	r2, r3
 8004b76:	4b82      	ldr	r3, [pc, #520]	; (8004d80 <TIM6_DAC_IRQHandler+0x280>)
 8004b78:	701a      	strb	r2, [r3, #0]
 8004b7a:	e016      	b.n	8004baa <TIM6_DAC_IRQHandler+0xaa>
 8004b7c:	4b80      	ldr	r3, [pc, #512]	; (8004d80 <TIM6_DAC_IRQHandler+0x280>)
 8004b7e:	2200      	movs	r2, #0
 8004b80:	701a      	strb	r2, [r3, #0]
 8004b82:	e012      	b.n	8004baa <TIM6_DAC_IRQHandler+0xaa>
 8004b84:	4b7d      	ldr	r3, [pc, #500]	; (8004d7c <TIM6_DAC_IRQHandler+0x27c>)
 8004b86:	2200      	movs	r2, #0
 8004b88:	701a      	strb	r2, [r3, #0]
 8004b8a:	4b7d      	ldr	r3, [pc, #500]	; (8004d80 <TIM6_DAC_IRQHandler+0x280>)
 8004b8c:	2200      	movs	r2, #0
 8004b8e:	701a      	strb	r2, [r3, #0]
 8004b90:	2100      	movs	r1, #0
 8004b92:	4879      	ldr	r0, [pc, #484]	; (8004d78 <TIM6_DAC_IRQHandler+0x278>)
 8004b94:	f7fc fc32 	bl	80013fc <TIM_SetCounter>
 8004b98:	4b77      	ldr	r3, [pc, #476]	; (8004d78 <TIM6_DAC_IRQHandler+0x278>)
 8004b9a:	881b      	ldrh	r3, [r3, #0]
 8004b9c:	b29b      	uxth	r3, r3
 8004b9e:	4a76      	ldr	r2, [pc, #472]	; (8004d78 <TIM6_DAC_IRQHandler+0x278>)
 8004ba0:	f023 0301 	bic.w	r3, r3, #1
 8004ba4:	b29b      	uxth	r3, r3
 8004ba6:	8013      	strh	r3, [r2, #0]
 8004ba8:	e0e1      	b.n	8004d6e <TIM6_DAC_IRQHandler+0x26e>
 8004baa:	e0e0      	b.n	8004d6e <TIM6_DAC_IRQHandler+0x26e>
 8004bac:	4b73      	ldr	r3, [pc, #460]	; (8004d7c <TIM6_DAC_IRQHandler+0x27c>)
 8004bae:	781b      	ldrb	r3, [r3, #0]
 8004bb0:	2b1e      	cmp	r3, #30
 8004bb2:	d004      	beq.n	8004bbe <TIM6_DAC_IRQHandler+0xbe>
 8004bb4:	4b72      	ldr	r3, [pc, #456]	; (8004d80 <TIM6_DAC_IRQHandler+0x280>)
 8004bb6:	781b      	ldrb	r3, [r3, #0]
 8004bb8:	2b1e      	cmp	r3, #30
 8004bba:	f040 80d8 	bne.w	8004d6e <TIM6_DAC_IRQHandler+0x26e>
 8004bbe:	2000      	movs	r0, #0
 8004bc0:	f7fd f9fe 	bl	8001fc0 <LED_STEP_SendWord>
 8004bc4:	f44f 70fa 	mov.w	r0, #500	; 0x1f4
 8004bc8:	f002 fabe 	bl	8007148 <delay_ms>
 8004bcc:	f64f 70ff 	movw	r0, #65535	; 0xffff
 8004bd0:	f7fd f9f6 	bl	8001fc0 <LED_STEP_SendWord>
 8004bd4:	f44f 70fa 	mov.w	r0, #500	; 0x1f4
 8004bd8:	f002 fab6 	bl	8007148 <delay_ms>
 8004bdc:	2000      	movs	r0, #0
 8004bde:	f7fd f9ef 	bl	8001fc0 <LED_STEP_SendWord>
 8004be2:	f44f 70fa 	mov.w	r0, #500	; 0x1f4
 8004be6:	f002 faaf 	bl	8007148 <delay_ms>
 8004bea:	f64f 70ff 	movw	r0, #65535	; 0xffff
 8004bee:	f7fd f9e7 	bl	8001fc0 <LED_STEP_SendWord>
 8004bf2:	f44f 70fa 	mov.w	r0, #500	; 0x1f4
 8004bf6:	f002 faa7 	bl	8007148 <delay_ms>
 8004bfa:	2000      	movs	r0, #0
 8004bfc:	f7fd f9e0 	bl	8001fc0 <LED_STEP_SendWord>
 8004c00:	f44f 70fa 	mov.w	r0, #500	; 0x1f4
 8004c04:	f002 faa0 	bl	8007148 <delay_ms>
 8004c08:	f64f 70ff 	movw	r0, #65535	; 0xffff
 8004c0c:	f7fd f9d8 	bl	8001fc0 <LED_STEP_SendWord>
 8004c10:	2100      	movs	r1, #0
 8004c12:	4859      	ldr	r0, [pc, #356]	; (8004d78 <TIM6_DAC_IRQHandler+0x278>)
 8004c14:	f7fc fbf2 	bl	80013fc <TIM_SetCounter>
 8004c18:	4b57      	ldr	r3, [pc, #348]	; (8004d78 <TIM6_DAC_IRQHandler+0x278>)
 8004c1a:	881b      	ldrh	r3, [r3, #0]
 8004c1c:	b29b      	uxth	r3, r3
 8004c1e:	4a56      	ldr	r2, [pc, #344]	; (8004d78 <TIM6_DAC_IRQHandler+0x278>)
 8004c20:	f023 0301 	bic.w	r3, r3, #1
 8004c24:	b29b      	uxth	r3, r3
 8004c26:	8013      	strh	r3, [r2, #0]
 8004c28:	4b54      	ldr	r3, [pc, #336]	; (8004d7c <TIM6_DAC_IRQHandler+0x27c>)
 8004c2a:	781b      	ldrb	r3, [r3, #0]
 8004c2c:	2b1e      	cmp	r3, #30
 8004c2e:	d137      	bne.n	8004ca0 <TIM6_DAC_IRQHandler+0x1a0>
 8004c30:	4b54      	ldr	r3, [pc, #336]	; (8004d84 <TIM6_DAC_IRQHandler+0x284>)
 8004c32:	2200      	movs	r2, #0
 8004c34:	70da      	strb	r2, [r3, #3]
 8004c36:	4b53      	ldr	r3, [pc, #332]	; (8004d84 <TIM6_DAC_IRQHandler+0x284>)
 8004c38:	2200      	movs	r2, #0
 8004c3a:	711a      	strb	r2, [r3, #4]
 8004c3c:	4b51      	ldr	r3, [pc, #324]	; (8004d84 <TIM6_DAC_IRQHandler+0x284>)
 8004c3e:	2200      	movs	r2, #0
 8004c40:	715a      	strb	r2, [r3, #5]
 8004c42:	4a50      	ldr	r2, [pc, #320]	; (8004d84 <TIM6_DAC_IRQHandler+0x284>)
 8004c44:	6853      	ldr	r3, [r2, #4]
 8004c46:	f043 0380 	orr.w	r3, r3, #128	; 0x80
 8004c4a:	6053      	str	r3, [r2, #4]
 8004c4c:	4a4d      	ldr	r2, [pc, #308]	; (8004d84 <TIM6_DAC_IRQHandler+0x284>)
 8004c4e:	6813      	ldr	r3, [r2, #0]
 8004c50:	f043 6380 	orr.w	r3, r3, #67108864	; 0x4000000
 8004c54:	6013      	str	r3, [r2, #0]
 8004c56:	2300      	movs	r3, #0
 8004c58:	73fb      	strb	r3, [r7, #15]
 8004c5a:	e017      	b.n	8004c8c <TIM6_DAC_IRQHandler+0x18c>
 8004c5c:	7bfb      	ldrb	r3, [r7, #15]
 8004c5e:	4a49      	ldr	r2, [pc, #292]	; (8004d84 <TIM6_DAC_IRQHandler+0x284>)
 8004c60:	4948      	ldr	r1, [pc, #288]	; (8004d84 <TIM6_DAC_IRQHandler+0x284>)
 8004c62:	00db      	lsls	r3, r3, #3
 8004c64:	4413      	add	r3, r2
 8004c66:	460a      	mov	r2, r1
 8004c68:	e892 0003 	ldmia.w	r2, {r0, r1}
 8004c6c:	e883 0003 	stmia.w	r3, {r0, r1}
 8004c70:	7bfb      	ldrb	r3, [r7, #15]
 8004c72:	3310      	adds	r3, #16
 8004c74:	4a43      	ldr	r2, [pc, #268]	; (8004d84 <TIM6_DAC_IRQHandler+0x284>)
 8004c76:	4943      	ldr	r1, [pc, #268]	; (8004d84 <TIM6_DAC_IRQHandler+0x284>)
 8004c78:	00db      	lsls	r3, r3, #3
 8004c7a:	4413      	add	r3, r2
 8004c7c:	460a      	mov	r2, r1
 8004c7e:	e892 0003 	ldmia.w	r2, {r0, r1}
 8004c82:	e883 0003 	stmia.w	r3, {r0, r1}
 8004c86:	7bfb      	ldrb	r3, [r7, #15]
 8004c88:	3301      	adds	r3, #1
 8004c8a:	73fb      	strb	r3, [r7, #15]
 8004c8c:	7bfb      	ldrb	r3, [r7, #15]
 8004c8e:	2b0f      	cmp	r3, #15
 8004c90:	d9e4      	bls.n	8004c5c <TIM6_DAC_IRQHandler+0x15c>
 8004c92:	4b3d      	ldr	r3, [pc, #244]	; (8004d88 <TIM6_DAC_IRQHandler+0x288>)
 8004c94:	2202      	movs	r2, #2
 8004c96:	701a      	strb	r2, [r3, #0]
 8004c98:	4b3c      	ldr	r3, [pc, #240]	; (8004d8c <TIM6_DAC_IRQHandler+0x28c>)
 8004c9a:	2200      	movs	r2, #0
 8004c9c:	701a      	strb	r2, [r3, #0]
 8004c9e:	e045      	b.n	8004d2c <TIM6_DAC_IRQHandler+0x22c>
 8004ca0:	4b37      	ldr	r3, [pc, #220]	; (8004d80 <TIM6_DAC_IRQHandler+0x280>)
 8004ca2:	781b      	ldrb	r3, [r3, #0]
 8004ca4:	2b1e      	cmp	r3, #30
 8004ca6:	d141      	bne.n	8004d2c <TIM6_DAC_IRQHandler+0x22c>
 8004ca8:	4b36      	ldr	r3, [pc, #216]	; (8004d84 <TIM6_DAC_IRQHandler+0x284>)
 8004caa:	2200      	movs	r2, #0
 8004cac:	f883 2103 	strb.w	r2, [r3, #259]	; 0x103
 8004cb0:	4b34      	ldr	r3, [pc, #208]	; (8004d84 <TIM6_DAC_IRQHandler+0x284>)
 8004cb2:	2200      	movs	r2, #0
 8004cb4:	f883 2104 	strb.w	r2, [r3, #260]	; 0x104
 8004cb8:	4b32      	ldr	r3, [pc, #200]	; (8004d84 <TIM6_DAC_IRQHandler+0x284>)
 8004cba:	2200      	movs	r2, #0
 8004cbc:	f883 2105 	strb.w	r2, [r3, #261]	; 0x105
 8004cc0:	4a30      	ldr	r2, [pc, #192]	; (8004d84 <TIM6_DAC_IRQHandler+0x284>)
 8004cc2:	f8d2 3104 	ldr.w	r3, [r2, #260]	; 0x104
 8004cc6:	f043 0380 	orr.w	r3, r3, #128	; 0x80
 8004cca:	f8c2 3104 	str.w	r3, [r2, #260]	; 0x104
 8004cce:	4a2d      	ldr	r2, [pc, #180]	; (8004d84 <TIM6_DAC_IRQHandler+0x284>)
 8004cd0:	f8d2 3100 	ldr.w	r3, [r2, #256]	; 0x100
 8004cd4:	f043 6380 	orr.w	r3, r3, #67108864	; 0x4000000
 8004cd8:	f8c2 3100 	str.w	r3, [r2, #256]	; 0x100
 8004cdc:	2300      	movs	r3, #0
 8004cde:	73fb      	strb	r3, [r7, #15]
 8004ce0:	e01b      	b.n	8004d1a <TIM6_DAC_IRQHandler+0x21a>
 8004ce2:	7bfb      	ldrb	r3, [r7, #15]
 8004ce4:	4927      	ldr	r1, [pc, #156]	; (8004d84 <TIM6_DAC_IRQHandler+0x284>)
 8004ce6:	3320      	adds	r3, #32
 8004ce8:	4a26      	ldr	r2, [pc, #152]	; (8004d84 <TIM6_DAC_IRQHandler+0x284>)
 8004cea:	00db      	lsls	r3, r3, #3
 8004cec:	440b      	add	r3, r1
 8004cee:	f502 7280 	add.w	r2, r2, #256	; 0x100
 8004cf2:	e892 0003 	ldmia.w	r2, {r0, r1}
 8004cf6:	e883 0003 	stmia.w	r3, {r0, r1}
 8004cfa:	7bfb      	ldrb	r3, [r7, #15]
 8004cfc:	3310      	adds	r3, #16
 8004cfe:	4921      	ldr	r1, [pc, #132]	; (8004d84 <TIM6_DAC_IRQHandler+0x284>)
 8004d00:	3320      	adds	r3, #32
 8004d02:	4a20      	ldr	r2, [pc, #128]	; (8004d84 <TIM6_DAC_IRQHandler+0x284>)
 8004d04:	00db      	lsls	r3, r3, #3
 8004d06:	440b      	add	r3, r1
 8004d08:	f502 7280 	add.w	r2, r2, #256	; 0x100
 8004d0c:	e892 0003 	ldmia.w	r2, {r0, r1}
 8004d10:	e883 0003 	stmia.w	r3, {r0, r1}
 8004d14:	7bfb      	ldrb	r3, [r7, #15]
 8004d16:	3301      	adds	r3, #1
 8004d18:	73fb      	strb	r3, [r7, #15]
 8004d1a:	7bfb      	ldrb	r3, [r7, #15]
 8004d1c:	2b0f      	cmp	r3, #15
 8004d1e:	d9e0      	bls.n	8004ce2 <TIM6_DAC_IRQHandler+0x1e2>
 8004d20:	4b1b      	ldr	r3, [pc, #108]	; (8004d90 <TIM6_DAC_IRQHandler+0x290>)
 8004d22:	2202      	movs	r2, #2
 8004d24:	701a      	strb	r2, [r3, #0]
 8004d26:	4b1b      	ldr	r3, [pc, #108]	; (8004d94 <TIM6_DAC_IRQHandler+0x294>)
 8004d28:	2200      	movs	r2, #0
 8004d2a:	701a      	strb	r2, [r3, #0]
 8004d2c:	4b13      	ldr	r3, [pc, #76]	; (8004d7c <TIM6_DAC_IRQHandler+0x27c>)
 8004d2e:	2200      	movs	r2, #0
 8004d30:	701a      	strb	r2, [r3, #0]
 8004d32:	4b13      	ldr	r3, [pc, #76]	; (8004d80 <TIM6_DAC_IRQHandler+0x280>)
 8004d34:	2200      	movs	r2, #0
 8004d36:	701a      	strb	r2, [r3, #0]
 8004d38:	4b17      	ldr	r3, [pc, #92]	; (8004d98 <TIM6_DAC_IRQHandler+0x298>)
 8004d3a:	781b      	ldrb	r3, [r3, #0]
 8004d3c:	b2db      	uxtb	r3, r3
 8004d3e:	2b06      	cmp	r3, #6
 8004d40:	d004      	beq.n	8004d4c <TIM6_DAC_IRQHandler+0x24c>
 8004d42:	4b15      	ldr	r3, [pc, #84]	; (8004d98 <TIM6_DAC_IRQHandler+0x298>)
 8004d44:	781b      	ldrb	r3, [r3, #0]
 8004d46:	b2db      	uxtb	r3, r3
 8004d48:	2b04      	cmp	r3, #4
 8004d4a:	d102      	bne.n	8004d52 <TIM6_DAC_IRQHandler+0x252>
 8004d4c:	4b12      	ldr	r3, [pc, #72]	; (8004d98 <TIM6_DAC_IRQHandler+0x298>)
 8004d4e:	2200      	movs	r2, #0
 8004d50:	701a      	strb	r2, [r3, #0]
 8004d52:	4b11      	ldr	r3, [pc, #68]	; (8004d98 <TIM6_DAC_IRQHandler+0x298>)
 8004d54:	781b      	ldrb	r3, [r3, #0]
 8004d56:	b2db      	uxtb	r3, r3
 8004d58:	2b07      	cmp	r3, #7
 8004d5a:	d004      	beq.n	8004d66 <TIM6_DAC_IRQHandler+0x266>
 8004d5c:	4b0e      	ldr	r3, [pc, #56]	; (8004d98 <TIM6_DAC_IRQHandler+0x298>)
 8004d5e:	781b      	ldrb	r3, [r3, #0]
 8004d60:	b2db      	uxtb	r3, r3
 8004d62:	2b05      	cmp	r3, #5
 8004d64:	d103      	bne.n	8004d6e <TIM6_DAC_IRQHandler+0x26e>
 8004d66:	4b0c      	ldr	r3, [pc, #48]	; (8004d98 <TIM6_DAC_IRQHandler+0x298>)
 8004d68:	2201      	movs	r2, #1
 8004d6a:	701a      	strb	r2, [r3, #0]
 8004d6c:	e7ff      	b.n	8004d6e <TIM6_DAC_IRQHandler+0x26e>
 8004d6e:	bf00      	nop
 8004d70:	3714      	adds	r7, #20
 8004d72:	46bd      	mov	sp, r7
 8004d74:	bd90      	pop	{r4, r7, pc}
 8004d76:	bf00      	nop
 8004d78:	40001000 	.word	0x40001000
 8004d7c:	200002ce 	.word	0x200002ce
 8004d80:	200002cf 	.word	0x200002cf
 8004d84:	20000948 	.word	0x20000948
 8004d88:	200002ad 	.word	0x200002ad
 8004d8c:	20000297 	.word	0x20000297
 8004d90:	200002ae 	.word	0x200002ae
 8004d94:	20000298 	.word	0x20000298
 8004d98:	20000296 	.word	0x20000296

08004d9c <PulsesInit>:
 8004d9c:	b580      	push	{r7, lr}
 8004d9e:	b082      	sub	sp, #8
 8004da0:	af00      	add	r7, sp, #0
 8004da2:	2101      	movs	r1, #1
 8004da4:	2002      	movs	r0, #2
 8004da6:	f7fc f9e9 	bl	800117c <RCC_AHB1PeriphClockCmd>
 8004daa:	463b      	mov	r3, r7
 8004dac:	2208      	movs	r2, #8
 8004dae:	2100      	movs	r1, #0
 8004db0:	4618      	mov	r0, r3
 8004db2:	f002 fb59 	bl	8007468 <memset>
 8004db6:	f44f 6360 	mov.w	r3, #3584	; 0xe00
 8004dba:	603b      	str	r3, [r7, #0]
 8004dbc:	2301      	movs	r3, #1
 8004dbe:	713b      	strb	r3, [r7, #4]
 8004dc0:	2300      	movs	r3, #0
 8004dc2:	71bb      	strb	r3, [r7, #6]
 8004dc4:	2300      	movs	r3, #0
 8004dc6:	71fb      	strb	r3, [r7, #7]
 8004dc8:	2303      	movs	r3, #3
 8004dca:	717b      	strb	r3, [r7, #5]
 8004dcc:	463b      	mov	r3, r7
 8004dce:	4619      	mov	r1, r3
 8004dd0:	481e      	ldr	r0, [pc, #120]	; (8004e4c <PulsesInit+0xb0>)
 8004dd2:	f7fc f91b 	bl	800100c <GPIO_Init>
 8004dd6:	f44f 7100 	mov.w	r1, #512	; 0x200
 8004dda:	481c      	ldr	r0, [pc, #112]	; (8004e4c <PulsesInit+0xb0>)
 8004ddc:	f7fc f973 	bl	80010c6 <GPIO_SetBits>
 8004de0:	f44f 6100 	mov.w	r1, #2048	; 0x800
 8004de4:	4819      	ldr	r0, [pc, #100]	; (8004e4c <PulsesInit+0xb0>)
 8004de6:	f7fc f96e 	bl	80010c6 <GPIO_SetBits>
 8004dea:	f44f 6180 	mov.w	r1, #1024	; 0x400
 8004dee:	4817      	ldr	r0, [pc, #92]	; (8004e4c <PulsesInit+0xb0>)
 8004df0:	f7fc f969 	bl	80010c6 <GPIO_SetBits>
 8004df4:	2101      	movs	r1, #1
 8004df6:	2001      	movs	r0, #1
 8004df8:	f7fc f9c0 	bl	800117c <RCC_AHB1PeriphClockCmd>
 8004dfc:	463b      	mov	r3, r7
 8004dfe:	2208      	movs	r2, #8
 8004e00:	2100      	movs	r1, #0
 8004e02:	4618      	mov	r0, r3
 8004e04:	f002 fb30 	bl	8007468 <memset>
 8004e08:	f241 030c 	movw	r3, #4108	; 0x100c
 8004e0c:	603b      	str	r3, [r7, #0]
 8004e0e:	2301      	movs	r3, #1
 8004e10:	713b      	strb	r3, [r7, #4]
 8004e12:	2300      	movs	r3, #0
 8004e14:	71bb      	strb	r3, [r7, #6]
 8004e16:	2300      	movs	r3, #0
 8004e18:	71fb      	strb	r3, [r7, #7]
 8004e1a:	2303      	movs	r3, #3
 8004e1c:	717b      	strb	r3, [r7, #5]
 8004e1e:	463b      	mov	r3, r7
 8004e20:	4619      	mov	r1, r3
 8004e22:	480b      	ldr	r0, [pc, #44]	; (8004e50 <PulsesInit+0xb4>)
 8004e24:	f7fc f8f2 	bl	800100c <GPIO_Init>
 8004e28:	2104      	movs	r1, #4
 8004e2a:	4809      	ldr	r0, [pc, #36]	; (8004e50 <PulsesInit+0xb4>)
 8004e2c:	f7fc f94b 	bl	80010c6 <GPIO_SetBits>
 8004e30:	2108      	movs	r1, #8
 8004e32:	4807      	ldr	r0, [pc, #28]	; (8004e50 <PulsesInit+0xb4>)
 8004e34:	f7fc f947 	bl	80010c6 <GPIO_SetBits>
 8004e38:	f44f 5180 	mov.w	r1, #4096	; 0x1000
 8004e3c:	4804      	ldr	r0, [pc, #16]	; (8004e50 <PulsesInit+0xb4>)
 8004e3e:	f7fc f942 	bl	80010c6 <GPIO_SetBits>
 8004e42:	bf00      	nop
 8004e44:	3708      	adds	r7, #8
 8004e46:	46bd      	mov	sp, r7
 8004e48:	bd80      	pop	{r7, pc}
 8004e4a:	bf00      	nop
 8004e4c:	40020400 	.word	0x40020400
 8004e50:	40020000 	.word	0x40020000

08004e54 <DisplayLedsIOInit>:
 8004e54:	b580      	push	{r7, lr}
 8004e56:	b082      	sub	sp, #8
 8004e58:	af00      	add	r7, sp, #0
 8004e5a:	2101      	movs	r1, #1
 8004e5c:	2001      	movs	r0, #1
 8004e5e:	f7fc f98d 	bl	800117c <RCC_AHB1PeriphClockCmd>
 8004e62:	23c0      	movs	r3, #192	; 0xc0
 8004e64:	603b      	str	r3, [r7, #0]
 8004e66:	2303      	movs	r3, #3
 8004e68:	717b      	strb	r3, [r7, #5]
 8004e6a:	2301      	movs	r3, #1
 8004e6c:	713b      	strb	r3, [r7, #4]
 8004e6e:	2300      	movs	r3, #0
 8004e70:	71bb      	strb	r3, [r7, #6]
 8004e72:	463b      	mov	r3, r7
 8004e74:	4619      	mov	r1, r3
 8004e76:	4803      	ldr	r0, [pc, #12]	; (8004e84 <DisplayLedsIOInit+0x30>)
 8004e78:	f7fc f8c8 	bl	800100c <GPIO_Init>
 8004e7c:	bf00      	nop
 8004e7e:	3708      	adds	r7, #8
 8004e80:	46bd      	mov	sp, r7
 8004e82:	bd80      	pop	{r7, pc}
 8004e84:	40020000 	.word	0x40020000

08004e88 <InternalDACInit>:
 8004e88:	b580      	push	{r7, lr}
 8004e8a:	b086      	sub	sp, #24
 8004e8c:	af00      	add	r7, sp, #0
 8004e8e:	f107 0308 	add.w	r3, r7, #8
 8004e92:	4618      	mov	r0, r3
 8004e94:	f7fc f83e 	bl	8000f14 <DAC_StructInit>
 8004e98:	2101      	movs	r1, #1
 8004e9a:	2001      	movs	r0, #1
 8004e9c:	f7fc f96e 	bl	800117c <RCC_AHB1PeriphClockCmd>
 8004ea0:	2330      	movs	r3, #48	; 0x30
 8004ea2:	603b      	str	r3, [r7, #0]
 8004ea4:	2303      	movs	r3, #3
 8004ea6:	713b      	strb	r3, [r7, #4]
 8004ea8:	463b      	mov	r3, r7
 8004eaa:	4619      	mov	r1, r3
 8004eac:	4817      	ldr	r0, [pc, #92]	; (8004f0c <InternalDACInit+0x84>)
 8004eae:	f7fc f8ad 	bl	800100c <GPIO_Init>
 8004eb2:	2101      	movs	r1, #1
 8004eb4:	f04f 5000 	mov.w	r0, #536870912	; 0x20000000
 8004eb8:	f7fc f96c 	bl	8001194 <RCC_APB1PeriphClockCmd>
 8004ebc:	2300      	movs	r3, #0
 8004ebe:	60bb      	str	r3, [r7, #8]
 8004ec0:	2302      	movs	r3, #2
 8004ec2:	617b      	str	r3, [r7, #20]
 8004ec4:	2300      	movs	r3, #0
 8004ec6:	60fb      	str	r3, [r7, #12]
 8004ec8:	f7fc f800 	bl	8000ecc <DAC_DeInit>
 8004ecc:	f107 0308 	add.w	r3, r7, #8
 8004ed0:	4619      	mov	r1, r3
 8004ed2:	2000      	movs	r0, #0
 8004ed4:	f7fc f808 	bl	8000ee8 <DAC_Init>
 8004ed8:	f107 0308 	add.w	r3, r7, #8
 8004edc:	4619      	mov	r1, r3
 8004ede:	2010      	movs	r0, #16
 8004ee0:	f7fc f802 	bl	8000ee8 <DAC_Init>
 8004ee4:	2101      	movs	r1, #1
 8004ee6:	2000      	movs	r0, #0
 8004ee8:	f7fc f81a 	bl	8000f20 <DAC_Cmd>
 8004eec:	2101      	movs	r1, #1
 8004eee:	2010      	movs	r0, #16
 8004ef0:	f7fc f816 	bl	8000f20 <DAC_Cmd>
 8004ef4:	2100      	movs	r1, #0
 8004ef6:	2000      	movs	r0, #0
 8004ef8:	f7fc f820 	bl	8000f3c <DAC_SetChannel1Data>
 8004efc:	2100      	movs	r1, #0
 8004efe:	2000      	movs	r0, #0
 8004f00:	f7fc f82c 	bl	8000f5c <DAC_SetChannel2Data>
 8004f04:	bf00      	nop
 8004f06:	3718      	adds	r7, #24
 8004f08:	46bd      	mov	sp, r7
 8004f0a:	bd80      	pop	{r7, pc}
 8004f0c:	40020000 	.word	0x40020000

08004f10 <keyb_proc>:
 8004f10:	b580      	push	{r7, lr}
 8004f12:	b086      	sub	sp, #24
 8004f14:	af00      	add	r7, sp, #0
 8004f16:	6078      	str	r0, [r7, #4]
 8004f18:	2300      	movs	r3, #0
 8004f1a:	75fb      	strb	r3, [r7, #23]
 8004f1c:	2300      	movs	r3, #0
 8004f1e:	75bb      	strb	r3, [r7, #22]
 8004f20:	f7fc ff69 	bl	8001df6 <Is_Expander_Present>
 8004f24:	4603      	mov	r3, r0
 8004f26:	2b00      	cmp	r3, #0
 8004f28:	d002      	beq.n	8004f30 <keyb_proc+0x20>
 8004f2a:	231f      	movs	r3, #31
 8004f2c:	757b      	strb	r3, [r7, #21]
 8004f2e:	e001      	b.n	8004f34 <keyb_proc+0x24>
 8004f30:	230f      	movs	r3, #15
 8004f32:	757b      	strb	r3, [r7, #21]
 8004f34:	4bc2      	ldr	r3, [pc, #776]	; (8005240 <keyb_proc+0x330>)
 8004f36:	781b      	ldrb	r3, [r3, #0]
 8004f38:	b2db      	uxtb	r3, r3
 8004f3a:	2b00      	cmp	r3, #0
 8004f3c:	d104      	bne.n	8004f48 <keyb_proc+0x38>
 8004f3e:	4bc1      	ldr	r3, [pc, #772]	; (8005244 <keyb_proc+0x334>)
 8004f40:	781b      	ldrb	r3, [r3, #0]
 8004f42:	75fb      	strb	r3, [r7, #23]
 8004f44:	2300      	movs	r3, #0
 8004f46:	75bb      	strb	r3, [r7, #22]
 8004f48:	4bbd      	ldr	r3, [pc, #756]	; (8005240 <keyb_proc+0x330>)
 8004f4a:	781b      	ldrb	r3, [r3, #0]
 8004f4c:	b2db      	uxtb	r3, r3
 8004f4e:	2b01      	cmp	r3, #1
 8004f50:	d104      	bne.n	8004f5c <keyb_proc+0x4c>
 8004f52:	4bbd      	ldr	r3, [pc, #756]	; (8005248 <keyb_proc+0x338>)
 8004f54:	781b      	ldrb	r3, [r3, #0]
 8004f56:	75fb      	strb	r3, [r7, #23]
 8004f58:	2301      	movs	r3, #1
 8004f5a:	75bb      	strb	r3, [r7, #22]
 8004f5c:	4bb8      	ldr	r3, [pc, #736]	; (8005240 <keyb_proc+0x330>)
 8004f5e:	781b      	ldrb	r3, [r3, #0]
 8004f60:	b2db      	uxtb	r3, r3
 8004f62:	2b02      	cmp	r3, #2
 8004f64:	d104      	bne.n	8004f70 <keyb_proc+0x60>
 8004f66:	4bb9      	ldr	r3, [pc, #740]	; (800524c <keyb_proc+0x33c>)
 8004f68:	781b      	ldrb	r3, [r3, #0]
 8004f6a:	75fb      	strb	r3, [r7, #23]
 8004f6c:	2300      	movs	r3, #0
 8004f6e:	75bb      	strb	r3, [r7, #22]
 8004f70:	4bb3      	ldr	r3, [pc, #716]	; (8005240 <keyb_proc+0x330>)
 8004f72:	781b      	ldrb	r3, [r3, #0]
 8004f74:	b2db      	uxtb	r3, r3
 8004f76:	2b03      	cmp	r3, #3
 8004f78:	d104      	bne.n	8004f84 <keyb_proc+0x74>
 8004f7a:	4bb4      	ldr	r3, [pc, #720]	; (800524c <keyb_proc+0x33c>)
 8004f7c:	781b      	ldrb	r3, [r3, #0]
 8004f7e:	75fb      	strb	r3, [r7, #23]
 8004f80:	2301      	movs	r3, #1
 8004f82:	75bb      	strb	r3, [r7, #22]
 8004f84:	4bae      	ldr	r3, [pc, #696]	; (8005240 <keyb_proc+0x330>)
 8004f86:	781b      	ldrb	r3, [r3, #0]
 8004f88:	b2db      	uxtb	r3, r3
 8004f8a:	2b04      	cmp	r3, #4
 8004f8c:	d104      	bne.n	8004f98 <keyb_proc+0x88>
 8004f8e:	4baf      	ldr	r3, [pc, #700]	; (800524c <keyb_proc+0x33c>)
 8004f90:	781b      	ldrb	r3, [r3, #0]
 8004f92:	75fb      	strb	r3, [r7, #23]
 8004f94:	2300      	movs	r3, #0
 8004f96:	75bb      	strb	r3, [r7, #22]
 8004f98:	4ba9      	ldr	r3, [pc, #676]	; (8005240 <keyb_proc+0x330>)
 8004f9a:	781b      	ldrb	r3, [r3, #0]
 8004f9c:	b2db      	uxtb	r3, r3
 8004f9e:	2b05      	cmp	r3, #5
 8004fa0:	d104      	bne.n	8004fac <keyb_proc+0x9c>
 8004fa2:	4baa      	ldr	r3, [pc, #680]	; (800524c <keyb_proc+0x33c>)
 8004fa4:	781b      	ldrb	r3, [r3, #0]
 8004fa6:	75fb      	strb	r3, [r7, #23]
 8004fa8:	2301      	movs	r3, #1
 8004faa:	75bb      	strb	r3, [r7, #22]
 8004fac:	4ba4      	ldr	r3, [pc, #656]	; (8005240 <keyb_proc+0x330>)
 8004fae:	781b      	ldrb	r3, [r3, #0]
 8004fb0:	b2db      	uxtb	r3, r3
 8004fb2:	2b06      	cmp	r3, #6
 8004fb4:	d104      	bne.n	8004fc0 <keyb_proc+0xb0>
 8004fb6:	4ba5      	ldr	r3, [pc, #660]	; (800524c <keyb_proc+0x33c>)
 8004fb8:	781b      	ldrb	r3, [r3, #0]
 8004fba:	75fb      	strb	r3, [r7, #23]
 8004fbc:	2300      	movs	r3, #0
 8004fbe:	75bb      	strb	r3, [r7, #22]
 8004fc0:	4b9f      	ldr	r3, [pc, #636]	; (8005240 <keyb_proc+0x330>)
 8004fc2:	781b      	ldrb	r3, [r3, #0]
 8004fc4:	b2db      	uxtb	r3, r3
 8004fc6:	2b07      	cmp	r3, #7
 8004fc8:	d104      	bne.n	8004fd4 <keyb_proc+0xc4>
 8004fca:	4ba0      	ldr	r3, [pc, #640]	; (800524c <keyb_proc+0x33c>)
 8004fcc:	781b      	ldrb	r3, [r3, #0]
 8004fce:	75fb      	strb	r3, [r7, #23]
 8004fd0:	2301      	movs	r3, #1
 8004fd2:	75bb      	strb	r3, [r7, #22]
 8004fd4:	7dba      	ldrb	r2, [r7, #22]
 8004fd6:	7dfb      	ldrb	r3, [r7, #23]
 8004fd8:	499d      	ldr	r1, [pc, #628]	; (8005250 <keyb_proc+0x340>)
 8004fda:	0152      	lsls	r2, r2, #5
 8004fdc:	4413      	add	r3, r2
 8004fde:	f107 020c 	add.w	r2, r7, #12
 8004fe2:	00db      	lsls	r3, r3, #3
 8004fe4:	440b      	add	r3, r1
 8004fe6:	e893 0003 	ldmia.w	r3, {r0, r1}
 8004fea:	e882 0003 	stmia.w	r2, {r0, r1}
 8004fee:	687b      	ldr	r3, [r7, #4]
 8004ff0:	785b      	ldrb	r3, [r3, #1]
 8004ff2:	f003 0310 	and.w	r3, r3, #16
 8004ff6:	b2db      	uxtb	r3, r3
 8004ff8:	2b00      	cmp	r3, #0
 8004ffa:	d117      	bne.n	800502c <keyb_proc+0x11c>
 8004ffc:	7bfb      	ldrb	r3, [r7, #15]
 8004ffe:	f043 0310 	orr.w	r3, r3, #16
 8005002:	73fb      	strb	r3, [r7, #15]
 8005004:	7bfb      	ldrb	r3, [r7, #15]
 8005006:	f36f 1345 	bfc	r3, #5, #1
 800500a:	73fb      	strb	r3, [r7, #15]
 800500c:	7bfb      	ldrb	r3, [r7, #15]
 800500e:	f36f 1386 	bfc	r3, #6, #1
 8005012:	73fb      	strb	r3, [r7, #15]
 8005014:	7bfb      	ldrb	r3, [r7, #15]
 8005016:	f36f 13c7 	bfc	r3, #7, #1
 800501a:	73fb      	strb	r3, [r7, #15]
 800501c:	7c3b      	ldrb	r3, [r7, #16]
 800501e:	f36f 0300 	bfc	r3, #0, #1
 8005022:	743b      	strb	r3, [r7, #16]
 8005024:	7bfb      	ldrb	r3, [r7, #15]
 8005026:	f36f 0382 	bfc	r3, #2, #1
 800502a:	73fb      	strb	r3, [r7, #15]
 800502c:	687b      	ldr	r3, [r7, #4]
 800502e:	785b      	ldrb	r3, [r3, #1]
 8005030:	f003 0320 	and.w	r3, r3, #32
 8005034:	b2db      	uxtb	r3, r3
 8005036:	2b00      	cmp	r3, #0
 8005038:	d117      	bne.n	800506a <keyb_proc+0x15a>
 800503a:	7bfb      	ldrb	r3, [r7, #15]
 800503c:	f36f 1304 	bfc	r3, #4, #1
 8005040:	73fb      	strb	r3, [r7, #15]
 8005042:	7bfb      	ldrb	r3, [r7, #15]
 8005044:	f043 0320 	orr.w	r3, r3, #32
 8005048:	73fb      	strb	r3, [r7, #15]
 800504a:	7bfb      	ldrb	r3, [r7, #15]
 800504c:	f36f 1386 	bfc	r3, #6, #1
 8005050:	73fb      	strb	r3, [r7, #15]
 8005052:	7bfb      	ldrb	r3, [r7, #15]
 8005054:	f36f 13c7 	bfc	r3, #7, #1
 8005058:	73fb      	strb	r3, [r7, #15]
 800505a:	7c3b      	ldrb	r3, [r7, #16]
 800505c:	f36f 0300 	bfc	r3, #0, #1
 8005060:	743b      	strb	r3, [r7, #16]
 8005062:	7bfb      	ldrb	r3, [r7, #15]
 8005064:	f36f 0382 	bfc	r3, #2, #1
 8005068:	73fb      	strb	r3, [r7, #15]
 800506a:	687b      	ldr	r3, [r7, #4]
 800506c:	785b      	ldrb	r3, [r3, #1]
 800506e:	f003 0340 	and.w	r3, r3, #64	; 0x40
 8005072:	b2db      	uxtb	r3, r3
 8005074:	2b00      	cmp	r3, #0
 8005076:	d117      	bne.n	80050a8 <keyb_proc+0x198>
 8005078:	7bfb      	ldrb	r3, [r7, #15]
 800507a:	f36f 1304 	bfc	r3, #4, #1
 800507e:	73fb      	strb	r3, [r7, #15]
 8005080:	7bfb      	ldrb	r3, [r7, #15]
 8005082:	f36f 1345 	bfc	r3, #5, #1
 8005086:	73fb      	strb	r3, [r7, #15]
 8005088:	7bfb      	ldrb	r3, [r7, #15]
 800508a:	f043 0340 	orr.w	r3, r3, #64	; 0x40
 800508e:	73fb      	strb	r3, [r7, #15]
 8005090:	7bfb      	ldrb	r3, [r7, #15]
 8005092:	f36f 13c7 	bfc	r3, #7, #1
 8005096:	73fb      	strb	r3, [r7, #15]
 8005098:	7c3b      	ldrb	r3, [r7, #16]
 800509a:	f36f 0300 	bfc	r3, #0, #1
 800509e:	743b      	strb	r3, [r7, #16]
 80050a0:	7bfb      	ldrb	r3, [r7, #15]
 80050a2:	f36f 0382 	bfc	r3, #2, #1
 80050a6:	73fb      	strb	r3, [r7, #15]
 80050a8:	687b      	ldr	r3, [r7, #4]
 80050aa:	785b      	ldrb	r3, [r3, #1]
 80050ac:	f023 037f 	bic.w	r3, r3, #127	; 0x7f
 80050b0:	b2db      	uxtb	r3, r3
 80050b2:	2b00      	cmp	r3, #0
 80050b4:	d117      	bne.n	80050e6 <keyb_proc+0x1d6>
 80050b6:	7bfb      	ldrb	r3, [r7, #15]
 80050b8:	f36f 1304 	bfc	r3, #4, #1
 80050bc:	73fb      	strb	r3, [r7, #15]
 80050be:	7bfb      	ldrb	r3, [r7, #15]
 80050c0:	f36f 1345 	bfc	r3, #5, #1
 80050c4:	73fb      	strb	r3, [r7, #15]
 80050c6:	7bfb      	ldrb	r3, [r7, #15]
 80050c8:	f36f 1386 	bfc	r3, #6, #1
 80050cc:	73fb      	strb	r3, [r7, #15]
 80050ce:	7bfb      	ldrb	r3, [r7, #15]
 80050d0:	f043 0380 	orr.w	r3, r3, #128	; 0x80
 80050d4:	73fb      	strb	r3, [r7, #15]
 80050d6:	7c3b      	ldrb	r3, [r7, #16]
 80050d8:	f36f 0300 	bfc	r3, #0, #1
 80050dc:	743b      	strb	r3, [r7, #16]
 80050de:	7bfb      	ldrb	r3, [r7, #15]
 80050e0:	f36f 0382 	bfc	r3, #2, #1
 80050e4:	73fb      	strb	r3, [r7, #15]
 80050e6:	687b      	ldr	r3, [r7, #4]
 80050e8:	789b      	ldrb	r3, [r3, #2]
 80050ea:	f003 0301 	and.w	r3, r3, #1
 80050ee:	b2db      	uxtb	r3, r3
 80050f0:	2b00      	cmp	r3, #0
 80050f2:	d117      	bne.n	8005124 <keyb_proc+0x214>
 80050f4:	7bfb      	ldrb	r3, [r7, #15]
 80050f6:	f36f 1304 	bfc	r3, #4, #1
 80050fa:	73fb      	strb	r3, [r7, #15]
 80050fc:	7bfb      	ldrb	r3, [r7, #15]
 80050fe:	f36f 1345 	bfc	r3, #5, #1
 8005102:	73fb      	strb	r3, [r7, #15]
 8005104:	7bfb      	ldrb	r3, [r7, #15]
 8005106:	f36f 1386 	bfc	r3, #6, #1
 800510a:	73fb      	strb	r3, [r7, #15]
 800510c:	7bfb      	ldrb	r3, [r7, #15]
 800510e:	f36f 13c7 	bfc	r3, #7, #1
 8005112:	73fb      	strb	r3, [r7, #15]
 8005114:	7c3b      	ldrb	r3, [r7, #16]
 8005116:	f043 0301 	orr.w	r3, r3, #1
 800511a:	743b      	strb	r3, [r7, #16]
 800511c:	7bfb      	ldrb	r3, [r7, #15]
 800511e:	f36f 0382 	bfc	r3, #2, #1
 8005122:	73fb      	strb	r3, [r7, #15]
 8005124:	687b      	ldr	r3, [r7, #4]
 8005126:	785b      	ldrb	r3, [r3, #1]
 8005128:	f003 0301 	and.w	r3, r3, #1
 800512c:	b2db      	uxtb	r3, r3
 800512e:	2b00      	cmp	r3, #0
 8005130:	d117      	bne.n	8005162 <keyb_proc+0x252>
 8005132:	7bfb      	ldrb	r3, [r7, #15]
 8005134:	f36f 1304 	bfc	r3, #4, #1
 8005138:	73fb      	strb	r3, [r7, #15]
 800513a:	7bfb      	ldrb	r3, [r7, #15]
 800513c:	f36f 1345 	bfc	r3, #5, #1
 8005140:	73fb      	strb	r3, [r7, #15]
 8005142:	7bfb      	ldrb	r3, [r7, #15]
 8005144:	f36f 1386 	bfc	r3, #6, #1
 8005148:	73fb      	strb	r3, [r7, #15]
 800514a:	7bfb      	ldrb	r3, [r7, #15]
 800514c:	f36f 13c7 	bfc	r3, #7, #1
 8005150:	73fb      	strb	r3, [r7, #15]
 8005152:	7c3b      	ldrb	r3, [r7, #16]
 8005154:	f36f 0300 	bfc	r3, #0, #1
 8005158:	743b      	strb	r3, [r7, #16]
 800515a:	7bfb      	ldrb	r3, [r7, #15]
 800515c:	f043 0304 	orr.w	r3, r3, #4
 8005160:	73fb      	strb	r3, [r7, #15]
 8005162:	687b      	ldr	r3, [r7, #4]
 8005164:	78db      	ldrb	r3, [r3, #3]
 8005166:	f003 0310 	and.w	r3, r3, #16
 800516a:	b2db      	uxtb	r3, r3
 800516c:	2b00      	cmp	r3, #0
 800516e:	d103      	bne.n	8005178 <keyb_proc+0x268>
 8005170:	7c7b      	ldrb	r3, [r7, #17]
 8005172:	f043 0308 	orr.w	r3, r3, #8
 8005176:	747b      	strb	r3, [r7, #17]
 8005178:	687b      	ldr	r3, [r7, #4]
 800517a:	78db      	ldrb	r3, [r3, #3]
 800517c:	f003 0320 	and.w	r3, r3, #32
 8005180:	b2db      	uxtb	r3, r3
 8005182:	2b00      	cmp	r3, #0
 8005184:	d103      	bne.n	800518e <keyb_proc+0x27e>
 8005186:	7c7b      	ldrb	r3, [r7, #17]
 8005188:	f36f 03c3 	bfc	r3, #3, #1
 800518c:	747b      	strb	r3, [r7, #17]
 800518e:	687b      	ldr	r3, [r7, #4]
 8005190:	78db      	ldrb	r3, [r3, #3]
 8005192:	f003 0340 	and.w	r3, r3, #64	; 0x40
 8005196:	b2db      	uxtb	r3, r3
 8005198:	2b00      	cmp	r3, #0
 800519a:	d103      	bne.n	80051a4 <keyb_proc+0x294>
 800519c:	7c7b      	ldrb	r3, [r7, #17]
 800519e:	f043 0310 	orr.w	r3, r3, #16
 80051a2:	747b      	strb	r3, [r7, #17]
 80051a4:	687b      	ldr	r3, [r7, #4]
 80051a6:	78db      	ldrb	r3, [r3, #3]
 80051a8:	f023 037f 	bic.w	r3, r3, #127	; 0x7f
 80051ac:	b2db      	uxtb	r3, r3
 80051ae:	2b00      	cmp	r3, #0
 80051b0:	d103      	bne.n	80051ba <keyb_proc+0x2aa>
 80051b2:	7c7b      	ldrb	r3, [r7, #17]
 80051b4:	f36f 1304 	bfc	r3, #4, #1
 80051b8:	747b      	strb	r3, [r7, #17]
 80051ba:	687b      	ldr	r3, [r7, #4]
 80051bc:	781b      	ldrb	r3, [r3, #0]
 80051be:	f003 0310 	and.w	r3, r3, #16
 80051c2:	b2db      	uxtb	r3, r3
 80051c4:	2b00      	cmp	r3, #0
 80051c6:	d103      	bne.n	80051d0 <keyb_proc+0x2c0>
 80051c8:	7bfb      	ldrb	r3, [r7, #15]
 80051ca:	f043 0301 	orr.w	r3, r3, #1
 80051ce:	73fb      	strb	r3, [r7, #15]
 80051d0:	687b      	ldr	r3, [r7, #4]
 80051d2:	781b      	ldrb	r3, [r3, #0]
 80051d4:	f003 0320 	and.w	r3, r3, #32
 80051d8:	b2db      	uxtb	r3, r3
 80051da:	2b00      	cmp	r3, #0
 80051dc:	d103      	bne.n	80051e6 <keyb_proc+0x2d6>
 80051de:	7bfb      	ldrb	r3, [r7, #15]
 80051e0:	f36f 0300 	bfc	r3, #0, #1
 80051e4:	73fb      	strb	r3, [r7, #15]
 80051e6:	687b      	ldr	r3, [r7, #4]
 80051e8:	781b      	ldrb	r3, [r3, #0]
 80051ea:	f003 0340 	and.w	r3, r3, #64	; 0x40
 80051ee:	b2db      	uxtb	r3, r3
 80051f0:	2b00      	cmp	r3, #0
 80051f2:	d103      	bne.n	80051fc <keyb_proc+0x2ec>
 80051f4:	7bfb      	ldrb	r3, [r7, #15]
 80051f6:	f043 0302 	orr.w	r3, r3, #2
 80051fa:	73fb      	strb	r3, [r7, #15]
 80051fc:	687b      	ldr	r3, [r7, #4]
 80051fe:	781b      	ldrb	r3, [r3, #0]
 8005200:	f023 037f 	bic.w	r3, r3, #127	; 0x7f
 8005204:	b2db      	uxtb	r3, r3
 8005206:	2b00      	cmp	r3, #0
 8005208:	d103      	bne.n	8005212 <keyb_proc+0x302>
 800520a:	7bfb      	ldrb	r3, [r7, #15]
 800520c:	f36f 0341 	bfc	r3, #1, #1
 8005210:	73fb      	strb	r3, [r7, #15]
 8005212:	687b      	ldr	r3, [r7, #4]
 8005214:	785b      	ldrb	r3, [r3, #1]
 8005216:	f003 0304 	and.w	r3, r3, #4
 800521a:	b2db      	uxtb	r3, r3
 800521c:	2b00      	cmp	r3, #0
 800521e:	d103      	bne.n	8005228 <keyb_proc+0x318>
 8005220:	7bfb      	ldrb	r3, [r7, #15]
 8005222:	f043 0308 	orr.w	r3, r3, #8
 8005226:	73fb      	strb	r3, [r7, #15]
 8005228:	687b      	ldr	r3, [r7, #4]
 800522a:	785b      	ldrb	r3, [r3, #1]
 800522c:	f003 0308 	and.w	r3, r3, #8
 8005230:	b2db      	uxtb	r3, r3
 8005232:	2b00      	cmp	r3, #0
 8005234:	d10e      	bne.n	8005254 <keyb_proc+0x344>
 8005236:	7bfb      	ldrb	r3, [r7, #15]
 8005238:	f36f 03c3 	bfc	r3, #3, #1
 800523c:	73fb      	strb	r3, [r7, #15]
 800523e:	e009      	b.n	8005254 <keyb_proc+0x344>
 8005240:	20000296 	.word	0x20000296
 8005244:	20000297 	.word	0x20000297
 8005248:	20000298 	.word	0x20000298
 800524c:	200002ac 	.word	0x200002ac
 8005250:	20000948 	.word	0x20000948
 8005254:	687b      	ldr	r3, [r7, #4]
 8005256:	789b      	ldrb	r3, [r3, #2]
 8005258:	f003 0302 	and.w	r3, r3, #2
 800525c:	b2db      	uxtb	r3, r3
 800525e:	2b00      	cmp	r3, #0
 8005260:	d153      	bne.n	800530a <keyb_proc+0x3fa>
 8005262:	7c3b      	ldrb	r3, [r7, #16]
 8005264:	f043 0302 	orr.w	r3, r3, #2
 8005268:	743b      	strb	r3, [r7, #16]
 800526a:	7c3b      	ldrb	r3, [r7, #16]
 800526c:	f36f 03c3 	bfc	r3, #3, #1
 8005270:	743b      	strb	r3, [r7, #16]
 8005272:	7c3b      	ldrb	r3, [r7, #16]
 8005274:	f36f 0382 	bfc	r3, #2, #1
 8005278:	743b      	strb	r3, [r7, #16]
 800527a:	4ba5      	ldr	r3, [pc, #660]	; (8005510 <keyb_proc+0x600>)
 800527c:	781b      	ldrb	r3, [r3, #0]
 800527e:	b2db      	uxtb	r3, r3
 8005280:	2b00      	cmp	r3, #0
 8005282:	d004      	beq.n	800528e <keyb_proc+0x37e>
 8005284:	4ba2      	ldr	r3, [pc, #648]	; (8005510 <keyb_proc+0x600>)
 8005286:	781b      	ldrb	r3, [r3, #0]
 8005288:	b2db      	uxtb	r3, r3
 800528a:	2b02      	cmp	r3, #2
 800528c:	d107      	bne.n	800529e <keyb_proc+0x38e>
 800528e:	4ba1      	ldr	r3, [pc, #644]	; (8005514 <keyb_proc+0x604>)
 8005290:	781b      	ldrb	r3, [r3, #0]
 8005292:	b2db      	uxtb	r3, r3
 8005294:	2b05      	cmp	r3, #5
 8005296:	d102      	bne.n	800529e <keyb_proc+0x38e>
 8005298:	4b9e      	ldr	r3, [pc, #632]	; (8005514 <keyb_proc+0x604>)
 800529a:	2202      	movs	r2, #2
 800529c:	701a      	strb	r2, [r3, #0]
 800529e:	4b9c      	ldr	r3, [pc, #624]	; (8005510 <keyb_proc+0x600>)
 80052a0:	781b      	ldrb	r3, [r3, #0]
 80052a2:	b2db      	uxtb	r3, r3
 80052a4:	2b01      	cmp	r3, #1
 80052a6:	d004      	beq.n	80052b2 <keyb_proc+0x3a2>
 80052a8:	4b99      	ldr	r3, [pc, #612]	; (8005510 <keyb_proc+0x600>)
 80052aa:	781b      	ldrb	r3, [r3, #0]
 80052ac:	b2db      	uxtb	r3, r3
 80052ae:	2b03      	cmp	r3, #3
 80052b0:	d107      	bne.n	80052c2 <keyb_proc+0x3b2>
 80052b2:	4b99      	ldr	r3, [pc, #612]	; (8005518 <keyb_proc+0x608>)
 80052b4:	781b      	ldrb	r3, [r3, #0]
 80052b6:	b2db      	uxtb	r3, r3
 80052b8:	2b05      	cmp	r3, #5
 80052ba:	d102      	bne.n	80052c2 <keyb_proc+0x3b2>
 80052bc:	4b96      	ldr	r3, [pc, #600]	; (8005518 <keyb_proc+0x608>)
 80052be:	2202      	movs	r2, #2
 80052c0:	701a      	strb	r2, [r3, #0]
 80052c2:	4b93      	ldr	r3, [pc, #588]	; (8005510 <keyb_proc+0x600>)
 80052c4:	781b      	ldrb	r3, [r3, #0]
 80052c6:	b2db      	uxtb	r3, r3
 80052c8:	2b00      	cmp	r3, #0
 80052ca:	d004      	beq.n	80052d6 <keyb_proc+0x3c6>
 80052cc:	4b90      	ldr	r3, [pc, #576]	; (8005510 <keyb_proc+0x600>)
 80052ce:	781b      	ldrb	r3, [r3, #0]
 80052d0:	b2db      	uxtb	r3, r3
 80052d2:	2b02      	cmp	r3, #2
 80052d4:	d107      	bne.n	80052e6 <keyb_proc+0x3d6>
 80052d6:	4b8f      	ldr	r3, [pc, #572]	; (8005514 <keyb_proc+0x604>)
 80052d8:	781b      	ldrb	r3, [r3, #0]
 80052da:	b2db      	uxtb	r3, r3
 80052dc:	2b04      	cmp	r3, #4
 80052de:	d102      	bne.n	80052e6 <keyb_proc+0x3d6>
 80052e0:	4b8c      	ldr	r3, [pc, #560]	; (8005514 <keyb_proc+0x604>)
 80052e2:	2202      	movs	r2, #2
 80052e4:	701a      	strb	r2, [r3, #0]
 80052e6:	4b8a      	ldr	r3, [pc, #552]	; (8005510 <keyb_proc+0x600>)
 80052e8:	781b      	ldrb	r3, [r3, #0]
 80052ea:	b2db      	uxtb	r3, r3
 80052ec:	2b01      	cmp	r3, #1
 80052ee:	d004      	beq.n	80052fa <keyb_proc+0x3ea>
 80052f0:	4b87      	ldr	r3, [pc, #540]	; (8005510 <keyb_proc+0x600>)
 80052f2:	781b      	ldrb	r3, [r3, #0]
 80052f4:	b2db      	uxtb	r3, r3
 80052f6:	2b03      	cmp	r3, #3
 80052f8:	d107      	bne.n	800530a <keyb_proc+0x3fa>
 80052fa:	4b87      	ldr	r3, [pc, #540]	; (8005518 <keyb_proc+0x608>)
 80052fc:	781b      	ldrb	r3, [r3, #0]
 80052fe:	b2db      	uxtb	r3, r3
 8005300:	2b04      	cmp	r3, #4
 8005302:	d102      	bne.n	800530a <keyb_proc+0x3fa>
 8005304:	4b84      	ldr	r3, [pc, #528]	; (8005518 <keyb_proc+0x608>)
 8005306:	2202      	movs	r2, #2
 8005308:	701a      	strb	r2, [r3, #0]
 800530a:	687b      	ldr	r3, [r7, #4]
 800530c:	789b      	ldrb	r3, [r3, #2]
 800530e:	f003 0304 	and.w	r3, r3, #4
 8005312:	b2db      	uxtb	r3, r3
 8005314:	2b00      	cmp	r3, #0
 8005316:	d103      	bne.n	8005320 <keyb_proc+0x410>
 8005318:	7c3b      	ldrb	r3, [r7, #16]
 800531a:	f36f 0341 	bfc	r3, #1, #1
 800531e:	743b      	strb	r3, [r7, #16]
 8005320:	687b      	ldr	r3, [r7, #4]
 8005322:	789b      	ldrb	r3, [r3, #2]
 8005324:	f003 0308 	and.w	r3, r3, #8
 8005328:	b2db      	uxtb	r3, r3
 800532a:	2b00      	cmp	r3, #0
 800532c:	d133      	bne.n	8005396 <keyb_proc+0x486>
 800532e:	7c3b      	ldrb	r3, [r7, #16]
 8005330:	f043 0304 	orr.w	r3, r3, #4
 8005334:	743b      	strb	r3, [r7, #16]
 8005336:	7c3b      	ldrb	r3, [r7, #16]
 8005338:	f36f 0341 	bfc	r3, #1, #1
 800533c:	743b      	strb	r3, [r7, #16]
 800533e:	7c3b      	ldrb	r3, [r7, #16]
 8005340:	f36f 03c3 	bfc	r3, #3, #1
 8005344:	743b      	strb	r3, [r7, #16]
 8005346:	4b72      	ldr	r3, [pc, #456]	; (8005510 <keyb_proc+0x600>)
 8005348:	781b      	ldrb	r3, [r3, #0]
 800534a:	b2db      	uxtb	r3, r3
 800534c:	2b00      	cmp	r3, #0
 800534e:	d004      	beq.n	800535a <keyb_proc+0x44a>
 8005350:	4b6f      	ldr	r3, [pc, #444]	; (8005510 <keyb_proc+0x600>)
 8005352:	781b      	ldrb	r3, [r3, #0]
 8005354:	b2db      	uxtb	r3, r3
 8005356:	2b02      	cmp	r3, #2
 8005358:	d109      	bne.n	800536e <keyb_proc+0x45e>
 800535a:	4b6e      	ldr	r3, [pc, #440]	; (8005514 <keyb_proc+0x604>)
 800535c:	781b      	ldrb	r3, [r3, #0]
 800535e:	b2db      	uxtb	r3, r3
 8005360:	2b04      	cmp	r3, #4
 8005362:	d104      	bne.n	800536e <keyb_proc+0x45e>
 8005364:	4b6d      	ldr	r3, [pc, #436]	; (800551c <keyb_proc+0x60c>)
 8005366:	781b      	ldrb	r3, [r3, #0]
 8005368:	b2da      	uxtb	r2, r3
 800536a:	4b6a      	ldr	r3, [pc, #424]	; (8005514 <keyb_proc+0x604>)
 800536c:	701a      	strb	r2, [r3, #0]
 800536e:	4b68      	ldr	r3, [pc, #416]	; (8005510 <keyb_proc+0x600>)
 8005370:	781b      	ldrb	r3, [r3, #0]
 8005372:	b2db      	uxtb	r3, r3
 8005374:	2b01      	cmp	r3, #1
 8005376:	d004      	beq.n	8005382 <keyb_proc+0x472>
 8005378:	4b65      	ldr	r3, [pc, #404]	; (8005510 <keyb_proc+0x600>)
 800537a:	781b      	ldrb	r3, [r3, #0]
 800537c:	b2db      	uxtb	r3, r3
 800537e:	2b03      	cmp	r3, #3
 8005380:	d109      	bne.n	8005396 <keyb_proc+0x486>
 8005382:	4b65      	ldr	r3, [pc, #404]	; (8005518 <keyb_proc+0x608>)
 8005384:	781b      	ldrb	r3, [r3, #0]
 8005386:	b2db      	uxtb	r3, r3
 8005388:	2b04      	cmp	r3, #4
 800538a:	d104      	bne.n	8005396 <keyb_proc+0x486>
 800538c:	4b64      	ldr	r3, [pc, #400]	; (8005520 <keyb_proc+0x610>)
 800538e:	781b      	ldrb	r3, [r3, #0]
 8005390:	b2da      	uxtb	r2, r3
 8005392:	4b61      	ldr	r3, [pc, #388]	; (8005518 <keyb_proc+0x608>)
 8005394:	701a      	strb	r2, [r3, #0]
 8005396:	687b      	ldr	r3, [r7, #4]
 8005398:	789b      	ldrb	r3, [r3, #2]
 800539a:	f003 0310 	and.w	r3, r3, #16
 800539e:	b2db      	uxtb	r3, r3
 80053a0:	2b00      	cmp	r3, #0
 80053a2:	d12b      	bne.n	80053fc <keyb_proc+0x4ec>
 80053a4:	7c3b      	ldrb	r3, [r7, #16]
 80053a6:	f36f 0382 	bfc	r3, #2, #1
 80053aa:	743b      	strb	r3, [r7, #16]
 80053ac:	4b58      	ldr	r3, [pc, #352]	; (8005510 <keyb_proc+0x600>)
 80053ae:	781b      	ldrb	r3, [r3, #0]
 80053b0:	b2db      	uxtb	r3, r3
 80053b2:	2b00      	cmp	r3, #0
 80053b4:	d004      	beq.n	80053c0 <keyb_proc+0x4b0>
 80053b6:	4b56      	ldr	r3, [pc, #344]	; (8005510 <keyb_proc+0x600>)
 80053b8:	781b      	ldrb	r3, [r3, #0]
 80053ba:	b2db      	uxtb	r3, r3
 80053bc:	2b02      	cmp	r3, #2
 80053be:	d109      	bne.n	80053d4 <keyb_proc+0x4c4>
 80053c0:	4b54      	ldr	r3, [pc, #336]	; (8005514 <keyb_proc+0x604>)
 80053c2:	781b      	ldrb	r3, [r3, #0]
 80053c4:	b2db      	uxtb	r3, r3
 80053c6:	2b05      	cmp	r3, #5
 80053c8:	d104      	bne.n	80053d4 <keyb_proc+0x4c4>
 80053ca:	4b54      	ldr	r3, [pc, #336]	; (800551c <keyb_proc+0x60c>)
 80053cc:	781b      	ldrb	r3, [r3, #0]
 80053ce:	b2da      	uxtb	r2, r3
 80053d0:	4b50      	ldr	r3, [pc, #320]	; (8005514 <keyb_proc+0x604>)
 80053d2:	701a      	strb	r2, [r3, #0]
 80053d4:	4b4e      	ldr	r3, [pc, #312]	; (8005510 <keyb_proc+0x600>)
 80053d6:	781b      	ldrb	r3, [r3, #0]
 80053d8:	b2db      	uxtb	r3, r3
 80053da:	2b01      	cmp	r3, #1
 80053dc:	d004      	beq.n	80053e8 <keyb_proc+0x4d8>
 80053de:	4b4c      	ldr	r3, [pc, #304]	; (8005510 <keyb_proc+0x600>)
 80053e0:	781b      	ldrb	r3, [r3, #0]
 80053e2:	b2db      	uxtb	r3, r3
 80053e4:	2b03      	cmp	r3, #3
 80053e6:	d109      	bne.n	80053fc <keyb_proc+0x4ec>
 80053e8:	4b4b      	ldr	r3, [pc, #300]	; (8005518 <keyb_proc+0x608>)
 80053ea:	781b      	ldrb	r3, [r3, #0]
 80053ec:	b2db      	uxtb	r3, r3
 80053ee:	2b05      	cmp	r3, #5
 80053f0:	d104      	bne.n	80053fc <keyb_proc+0x4ec>
 80053f2:	4b4b      	ldr	r3, [pc, #300]	; (8005520 <keyb_proc+0x610>)
 80053f4:	781b      	ldrb	r3, [r3, #0]
 80053f6:	b2da      	uxtb	r2, r3
 80053f8:	4b47      	ldr	r3, [pc, #284]	; (8005518 <keyb_proc+0x608>)
 80053fa:	701a      	strb	r2, [r3, #0]
 80053fc:	687b      	ldr	r3, [r7, #4]
 80053fe:	789b      	ldrb	r3, [r3, #2]
 8005400:	f003 0320 	and.w	r3, r3, #32
 8005404:	b2db      	uxtb	r3, r3
 8005406:	2b00      	cmp	r3, #0
 8005408:	d133      	bne.n	8005472 <keyb_proc+0x562>
 800540a:	7c3b      	ldrb	r3, [r7, #16]
 800540c:	f043 0308 	orr.w	r3, r3, #8
 8005410:	743b      	strb	r3, [r7, #16]
 8005412:	7c3b      	ldrb	r3, [r7, #16]
 8005414:	f36f 0341 	bfc	r3, #1, #1
 8005418:	743b      	strb	r3, [r7, #16]
 800541a:	7c3b      	ldrb	r3, [r7, #16]
 800541c:	f36f 0382 	bfc	r3, #2, #1
 8005420:	743b      	strb	r3, [r7, #16]
 8005422:	4b3b      	ldr	r3, [pc, #236]	; (8005510 <keyb_proc+0x600>)
 8005424:	781b      	ldrb	r3, [r3, #0]
 8005426:	b2db      	uxtb	r3, r3
 8005428:	2b00      	cmp	r3, #0
 800542a:	d004      	beq.n	8005436 <keyb_proc+0x526>
 800542c:	4b38      	ldr	r3, [pc, #224]	; (8005510 <keyb_proc+0x600>)
 800542e:	781b      	ldrb	r3, [r3, #0]
 8005430:	b2db      	uxtb	r3, r3
 8005432:	2b02      	cmp	r3, #2
 8005434:	d109      	bne.n	800544a <keyb_proc+0x53a>
 8005436:	4b37      	ldr	r3, [pc, #220]	; (8005514 <keyb_proc+0x604>)
 8005438:	781b      	ldrb	r3, [r3, #0]
 800543a:	b2db      	uxtb	r3, r3
 800543c:	2b05      	cmp	r3, #5
 800543e:	d104      	bne.n	800544a <keyb_proc+0x53a>
 8005440:	4b36      	ldr	r3, [pc, #216]	; (800551c <keyb_proc+0x60c>)
 8005442:	781b      	ldrb	r3, [r3, #0]
 8005444:	b2da      	uxtb	r2, r3
 8005446:	4b33      	ldr	r3, [pc, #204]	; (8005514 <keyb_proc+0x604>)
 8005448:	701a      	strb	r2, [r3, #0]
 800544a:	4b31      	ldr	r3, [pc, #196]	; (8005510 <keyb_proc+0x600>)
 800544c:	781b      	ldrb	r3, [r3, #0]
 800544e:	b2db      	uxtb	r3, r3
 8005450:	2b01      	cmp	r3, #1
 8005452:	d004      	beq.n	800545e <keyb_proc+0x54e>
 8005454:	4b2e      	ldr	r3, [pc, #184]	; (8005510 <keyb_proc+0x600>)
 8005456:	781b      	ldrb	r3, [r3, #0]
 8005458:	b2db      	uxtb	r3, r3
 800545a:	2b03      	cmp	r3, #3
 800545c:	d109      	bne.n	8005472 <keyb_proc+0x562>
 800545e:	4b2e      	ldr	r3, [pc, #184]	; (8005518 <keyb_proc+0x608>)
 8005460:	781b      	ldrb	r3, [r3, #0]
 8005462:	b2db      	uxtb	r3, r3
 8005464:	2b05      	cmp	r3, #5
 8005466:	d104      	bne.n	8005472 <keyb_proc+0x562>
 8005468:	4b2d      	ldr	r3, [pc, #180]	; (8005520 <keyb_proc+0x610>)
 800546a:	781b      	ldrb	r3, [r3, #0]
 800546c:	b2da      	uxtb	r2, r3
 800546e:	4b2a      	ldr	r3, [pc, #168]	; (8005518 <keyb_proc+0x608>)
 8005470:	701a      	strb	r2, [r3, #0]
 8005472:	687b      	ldr	r3, [r7, #4]
 8005474:	789b      	ldrb	r3, [r3, #2]
 8005476:	f003 0340 	and.w	r3, r3, #64	; 0x40
 800547a:	b2db      	uxtb	r3, r3
 800547c:	2b00      	cmp	r3, #0
 800547e:	d12b      	bne.n	80054d8 <keyb_proc+0x5c8>
 8005480:	7c3b      	ldrb	r3, [r7, #16]
 8005482:	f36f 03c3 	bfc	r3, #3, #1
 8005486:	743b      	strb	r3, [r7, #16]
 8005488:	4b21      	ldr	r3, [pc, #132]	; (8005510 <keyb_proc+0x600>)
 800548a:	781b      	ldrb	r3, [r3, #0]
 800548c:	b2db      	uxtb	r3, r3
 800548e:	2b00      	cmp	r3, #0
 8005490:	d004      	beq.n	800549c <keyb_proc+0x58c>
 8005492:	4b1f      	ldr	r3, [pc, #124]	; (8005510 <keyb_proc+0x600>)
 8005494:	781b      	ldrb	r3, [r3, #0]
 8005496:	b2db      	uxtb	r3, r3
 8005498:	2b02      	cmp	r3, #2
 800549a:	d109      	bne.n	80054b0 <keyb_proc+0x5a0>
 800549c:	4b1d      	ldr	r3, [pc, #116]	; (8005514 <keyb_proc+0x604>)
 800549e:	781b      	ldrb	r3, [r3, #0]
 80054a0:	b2db      	uxtb	r3, r3
 80054a2:	2b04      	cmp	r3, #4
 80054a4:	d104      	bne.n	80054b0 <keyb_proc+0x5a0>
 80054a6:	4b1d      	ldr	r3, [pc, #116]	; (800551c <keyb_proc+0x60c>)
 80054a8:	781b      	ldrb	r3, [r3, #0]
 80054aa:	b2da      	uxtb	r2, r3
 80054ac:	4b19      	ldr	r3, [pc, #100]	; (8005514 <keyb_proc+0x604>)
 80054ae:	701a      	strb	r2, [r3, #0]
 80054b0:	4b17      	ldr	r3, [pc, #92]	; (8005510 <keyb_proc+0x600>)
 80054b2:	781b      	ldrb	r3, [r3, #0]
 80054b4:	b2db      	uxtb	r3, r3
 80054b6:	2b01      	cmp	r3, #1
 80054b8:	d004      	beq.n	80054c4 <keyb_proc+0x5b4>
 80054ba:	4b15      	ldr	r3, [pc, #84]	; (8005510 <keyb_proc+0x600>)
 80054bc:	781b      	ldrb	r3, [r3, #0]
 80054be:	b2db      	uxtb	r3, r3
 80054c0:	2b03      	cmp	r3, #3
 80054c2:	d109      	bne.n	80054d8 <keyb_proc+0x5c8>
 80054c4:	4b14      	ldr	r3, [pc, #80]	; (8005518 <keyb_proc+0x608>)
 80054c6:	781b      	ldrb	r3, [r3, #0]
 80054c8:	b2db      	uxtb	r3, r3
 80054ca:	2b04      	cmp	r3, #4
 80054cc:	d104      	bne.n	80054d8 <keyb_proc+0x5c8>
 80054ce:	4b14      	ldr	r3, [pc, #80]	; (8005520 <keyb_proc+0x610>)
 80054d0:	781b      	ldrb	r3, [r3, #0]
 80054d2:	b2da      	uxtb	r2, r3
 80054d4:	4b10      	ldr	r3, [pc, #64]	; (8005518 <keyb_proc+0x608>)
 80054d6:	701a      	strb	r2, [r3, #0]
 80054d8:	687b      	ldr	r3, [r7, #4]
 80054da:	789b      	ldrb	r3, [r3, #2]
 80054dc:	f023 037f 	bic.w	r3, r3, #127	; 0x7f
 80054e0:	b2db      	uxtb	r3, r3
 80054e2:	2b00      	cmp	r3, #0
 80054e4:	d107      	bne.n	80054f6 <keyb_proc+0x5e6>
 80054e6:	7c3b      	ldrb	r3, [r7, #16]
 80054e8:	f043 0310 	orr.w	r3, r3, #16
 80054ec:	743b      	strb	r3, [r7, #16]
 80054ee:	7c3b      	ldrb	r3, [r7, #16]
 80054f0:	f36f 1345 	bfc	r3, #5, #1
 80054f4:	743b      	strb	r3, [r7, #16]
 80054f6:	687b      	ldr	r3, [r7, #4]
 80054f8:	799b      	ldrb	r3, [r3, #6]
 80054fa:	f003 0301 	and.w	r3, r3, #1
 80054fe:	b2db      	uxtb	r3, r3
 8005500:	2b00      	cmp	r3, #0
 8005502:	d10f      	bne.n	8005524 <keyb_proc+0x614>
 8005504:	7c3b      	ldrb	r3, [r7, #16]
 8005506:	f36f 1304 	bfc	r3, #4, #1
 800550a:	743b      	strb	r3, [r7, #16]
 800550c:	e00a      	b.n	8005524 <keyb_proc+0x614>
 800550e:	bf00      	nop
 8005510:	20000296 	.word	0x20000296
 8005514:	200002ad 	.word	0x200002ad
 8005518:	200002ae 	.word	0x200002ae
 800551c:	200002af 	.word	0x200002af
 8005520:	200002b0 	.word	0x200002b0
 8005524:	687b      	ldr	r3, [r7, #4]
 8005526:	799b      	ldrb	r3, [r3, #6]
 8005528:	f003 0302 	and.w	r3, r3, #2
 800552c:	b2db      	uxtb	r3, r3
 800552e:	2b00      	cmp	r3, #0
 8005530:	d107      	bne.n	8005542 <keyb_proc+0x632>
 8005532:	7c3b      	ldrb	r3, [r7, #16]
 8005534:	f043 0320 	orr.w	r3, r3, #32
 8005538:	743b      	strb	r3, [r7, #16]
 800553a:	7c3b      	ldrb	r3, [r7, #16]
 800553c:	f36f 1304 	bfc	r3, #4, #1
 8005540:	743b      	strb	r3, [r7, #16]
 8005542:	687b      	ldr	r3, [r7, #4]
 8005544:	799b      	ldrb	r3, [r3, #6]
 8005546:	f003 0304 	and.w	r3, r3, #4
 800554a:	b2db      	uxtb	r3, r3
 800554c:	2b00      	cmp	r3, #0
 800554e:	d103      	bne.n	8005558 <keyb_proc+0x648>
 8005550:	7c3b      	ldrb	r3, [r7, #16]
 8005552:	f36f 1345 	bfc	r3, #5, #1
 8005556:	743b      	strb	r3, [r7, #16]
 8005558:	687b      	ldr	r3, [r7, #4]
 800555a:	791b      	ldrb	r3, [r3, #4]
 800555c:	f003 0301 	and.w	r3, r3, #1
 8005560:	b2db      	uxtb	r3, r3
 8005562:	2b00      	cmp	r3, #0
 8005564:	d103      	bne.n	800556e <keyb_proc+0x65e>
 8005566:	7c7b      	ldrb	r3, [r7, #17]
 8005568:	f043 0304 	orr.w	r3, r3, #4
 800556c:	747b      	strb	r3, [r7, #17]
 800556e:	687b      	ldr	r3, [r7, #4]
 8005570:	791b      	ldrb	r3, [r3, #4]
 8005572:	f003 0302 	and.w	r3, r3, #2
 8005576:	b2db      	uxtb	r3, r3
 8005578:	2b00      	cmp	r3, #0
 800557a:	d103      	bne.n	8005584 <keyb_proc+0x674>
 800557c:	7c7b      	ldrb	r3, [r7, #17]
 800557e:	f36f 0382 	bfc	r3, #2, #1
 8005582:	747b      	strb	r3, [r7, #17]
 8005584:	687b      	ldr	r3, [r7, #4]
 8005586:	799b      	ldrb	r3, [r3, #6]
 8005588:	f003 0308 	and.w	r3, r3, #8
 800558c:	b2db      	uxtb	r3, r3
 800558e:	2b00      	cmp	r3, #0
 8005590:	d10f      	bne.n	80055b2 <keyb_proc+0x6a2>
 8005592:	7c3b      	ldrb	r3, [r7, #16]
 8005594:	f043 0340 	orr.w	r3, r3, #64	; 0x40
 8005598:	743b      	strb	r3, [r7, #16]
 800559a:	7c3b      	ldrb	r3, [r7, #16]
 800559c:	f36f 13c7 	bfc	r3, #7, #1
 80055a0:	743b      	strb	r3, [r7, #16]
 80055a2:	7c7b      	ldrb	r3, [r7, #17]
 80055a4:	f36f 0300 	bfc	r3, #0, #1
 80055a8:	747b      	strb	r3, [r7, #17]
 80055aa:	7c7b      	ldrb	r3, [r7, #17]
 80055ac:	f36f 0341 	bfc	r3, #1, #1
 80055b0:	747b      	strb	r3, [r7, #17]
 80055b2:	687b      	ldr	r3, [r7, #4]
 80055b4:	799b      	ldrb	r3, [r3, #6]
 80055b6:	f003 0310 	and.w	r3, r3, #16
 80055ba:	b2db      	uxtb	r3, r3
 80055bc:	2b00      	cmp	r3, #0
 80055be:	d10f      	bne.n	80055e0 <keyb_proc+0x6d0>
 80055c0:	7c3b      	ldrb	r3, [r7, #16]
 80055c2:	f36f 1386 	bfc	r3, #6, #1
 80055c6:	743b      	strb	r3, [r7, #16]
 80055c8:	7c3b      	ldrb	r3, [r7, #16]
 80055ca:	f043 0380 	orr.w	r3, r3, #128	; 0x80
 80055ce:	743b      	strb	r3, [r7, #16]
 80055d0:	7c7b      	ldrb	r3, [r7, #17]
 80055d2:	f36f 0300 	bfc	r3, #0, #1
 80055d6:	747b      	strb	r3, [r7, #17]
 80055d8:	7c7b      	ldrb	r3, [r7, #17]
 80055da:	f36f 0341 	bfc	r3, #1, #1
 80055de:	747b      	strb	r3, [r7, #17]
 80055e0:	687b      	ldr	r3, [r7, #4]
 80055e2:	799b      	ldrb	r3, [r3, #6]
 80055e4:	f003 0320 	and.w	r3, r3, #32
 80055e8:	b2db      	uxtb	r3, r3
 80055ea:	2b00      	cmp	r3, #0
 80055ec:	d10f      	bne.n	800560e <keyb_proc+0x6fe>
 80055ee:	7c3b      	ldrb	r3, [r7, #16]
 80055f0:	f36f 1386 	bfc	r3, #6, #1
 80055f4:	743b      	strb	r3, [r7, #16]
 80055f6:	7c3b      	ldrb	r3, [r7, #16]
 80055f8:	f36f 13c7 	bfc	r3, #7, #1
 80055fc:	743b      	strb	r3, [r7, #16]
 80055fe:	7c7b      	ldrb	r3, [r7, #17]
 8005600:	f043 0301 	orr.w	r3, r3, #1
 8005604:	747b      	strb	r3, [r7, #17]
 8005606:	7c7b      	ldrb	r3, [r7, #17]
 8005608:	f36f 0341 	bfc	r3, #1, #1
 800560c:	747b      	strb	r3, [r7, #17]
 800560e:	687b      	ldr	r3, [r7, #4]
 8005610:	799b      	ldrb	r3, [r3, #6]
 8005612:	f003 0340 	and.w	r3, r3, #64	; 0x40
 8005616:	b2db      	uxtb	r3, r3
 8005618:	2b00      	cmp	r3, #0
 800561a:	d10f      	bne.n	800563c <keyb_proc+0x72c>
 800561c:	7c3b      	ldrb	r3, [r7, #16]
 800561e:	f36f 1386 	bfc	r3, #6, #1
 8005622:	743b      	strb	r3, [r7, #16]
 8005624:	7c3b      	ldrb	r3, [r7, #16]
 8005626:	f36f 13c7 	bfc	r3, #7, #1
 800562a:	743b      	strb	r3, [r7, #16]
 800562c:	7c7b      	ldrb	r3, [r7, #17]
 800562e:	f36f 0300 	bfc	r3, #0, #1
 8005632:	747b      	strb	r3, [r7, #17]
 8005634:	7c7b      	ldrb	r3, [r7, #17]
 8005636:	f043 0302 	orr.w	r3, r3, #2
 800563a:	747b      	strb	r3, [r7, #17]
 800563c:	687b      	ldr	r3, [r7, #4]
 800563e:	781b      	ldrb	r3, [r3, #0]
 8005640:	f003 0301 	and.w	r3, r3, #1
 8005644:	b2db      	uxtb	r3, r3
 8005646:	2b00      	cmp	r3, #0
 8005648:	d164      	bne.n	8005714 <keyb_proc+0x804>
 800564a:	f7fd fa63 	bl	8002b14 <InitClear_Timer>
 800564e:	4ba7      	ldr	r3, [pc, #668]	; (80058ec <keyb_proc+0x9dc>)
 8005650:	781b      	ldrb	r3, [r3, #0]
 8005652:	b2db      	uxtb	r3, r3
 8005654:	2b06      	cmp	r3, #6
 8005656:	d116      	bne.n	8005686 <keyb_proc+0x776>
 8005658:	4ba5      	ldr	r3, [pc, #660]	; (80058f0 <keyb_proc+0x9e0>)
 800565a:	781b      	ldrb	r3, [r3, #0]
 800565c:	4618      	mov	r0, r3
 800565e:	f7fd fd9b 	bl	8003198 <LoadSequence>
 8005662:	4ba4      	ldr	r3, [pc, #656]	; (80058f4 <keyb_proc+0x9e4>)
 8005664:	2201      	movs	r2, #1
 8005666:	701a      	strb	r2, [r3, #0]
 8005668:	4ba0      	ldr	r3, [pc, #640]	; (80058ec <keyb_proc+0x9dc>)
 800566a:	2200      	movs	r2, #0
 800566c:	701a      	strb	r2, [r3, #0]
 800566e:	4ba2      	ldr	r3, [pc, #648]	; (80058f8 <keyb_proc+0x9e8>)
 8005670:	781b      	ldrb	r3, [r3, #0]
 8005672:	b2da      	uxtb	r2, r3
 8005674:	4ba1      	ldr	r3, [pc, #644]	; (80058fc <keyb_proc+0x9ec>)
 8005676:	701a      	strb	r2, [r3, #0]
 8005678:	4ba1      	ldr	r3, [pc, #644]	; (8005900 <keyb_proc+0x9f0>)
 800567a:	2200      	movs	r2, #0
 800567c:	701a      	strb	r2, [r3, #0]
 800567e:	4b9e      	ldr	r3, [pc, #632]	; (80058f8 <keyb_proc+0x9e8>)
 8005680:	2202      	movs	r2, #2
 8005682:	701a      	strb	r2, [r3, #0]
 8005684:	e046      	b.n	8005714 <keyb_proc+0x804>
 8005686:	4b99      	ldr	r3, [pc, #612]	; (80058ec <keyb_proc+0x9dc>)
 8005688:	781b      	ldrb	r3, [r3, #0]
 800568a:	b2db      	uxtb	r3, r3
 800568c:	2b07      	cmp	r3, #7
 800568e:	d116      	bne.n	80056be <keyb_proc+0x7ae>
 8005690:	4b97      	ldr	r3, [pc, #604]	; (80058f0 <keyb_proc+0x9e0>)
 8005692:	781b      	ldrb	r3, [r3, #0]
 8005694:	4618      	mov	r0, r3
 8005696:	f7fd fd7f 	bl	8003198 <LoadSequence>
 800569a:	4b96      	ldr	r3, [pc, #600]	; (80058f4 <keyb_proc+0x9e4>)
 800569c:	2201      	movs	r2, #1
 800569e:	701a      	strb	r2, [r3, #0]
 80056a0:	4b92      	ldr	r3, [pc, #584]	; (80058ec <keyb_proc+0x9dc>)
 80056a2:	2201      	movs	r2, #1
 80056a4:	701a      	strb	r2, [r3, #0]
 80056a6:	4b97      	ldr	r3, [pc, #604]	; (8005904 <keyb_proc+0x9f4>)
 80056a8:	781b      	ldrb	r3, [r3, #0]
 80056aa:	b2da      	uxtb	r2, r3
 80056ac:	4b96      	ldr	r3, [pc, #600]	; (8005908 <keyb_proc+0x9f8>)
 80056ae:	701a      	strb	r2, [r3, #0]
 80056b0:	4b96      	ldr	r3, [pc, #600]	; (800590c <keyb_proc+0x9fc>)
 80056b2:	2200      	movs	r2, #0
 80056b4:	701a      	strb	r2, [r3, #0]
 80056b6:	4b93      	ldr	r3, [pc, #588]	; (8005904 <keyb_proc+0x9f4>)
 80056b8:	2202      	movs	r2, #2
 80056ba:	701a      	strb	r2, [r3, #0]
 80056bc:	e02a      	b.n	8005714 <keyb_proc+0x804>
 80056be:	4b8b      	ldr	r3, [pc, #556]	; (80058ec <keyb_proc+0x9dc>)
 80056c0:	781b      	ldrb	r3, [r3, #0]
 80056c2:	b2db      	uxtb	r3, r3
 80056c4:	2b00      	cmp	r3, #0
 80056c6:	d110      	bne.n	80056ea <keyb_proc+0x7da>
 80056c8:	4b88      	ldr	r3, [pc, #544]	; (80058ec <keyb_proc+0x9dc>)
 80056ca:	2206      	movs	r2, #6
 80056cc:	701a      	strb	r2, [r3, #0]
 80056ce:	4b88      	ldr	r3, [pc, #544]	; (80058f0 <keyb_proc+0x9e0>)
 80056d0:	2200      	movs	r2, #0
 80056d2:	701a      	strb	r2, [r3, #0]
 80056d4:	4a8e      	ldr	r2, [pc, #568]	; (8005910 <keyb_proc+0xa00>)
 80056d6:	7813      	ldrb	r3, [r2, #0]
 80056d8:	f043 0302 	orr.w	r3, r3, #2
 80056dc:	7013      	strb	r3, [r2, #0]
 80056de:	4a8c      	ldr	r2, [pc, #560]	; (8005910 <keyb_proc+0xa00>)
 80056e0:	7813      	ldrb	r3, [r2, #0]
 80056e2:	f043 0301 	orr.w	r3, r3, #1
 80056e6:	7013      	strb	r3, [r2, #0]
 80056e8:	e014      	b.n	8005714 <keyb_proc+0x804>
 80056ea:	4b80      	ldr	r3, [pc, #512]	; (80058ec <keyb_proc+0x9dc>)
 80056ec:	781b      	ldrb	r3, [r3, #0]
 80056ee:	b2db      	uxtb	r3, r3
 80056f0:	2b01      	cmp	r3, #1
 80056f2:	d10f      	bne.n	8005714 <keyb_proc+0x804>
 80056f4:	4b7d      	ldr	r3, [pc, #500]	; (80058ec <keyb_proc+0x9dc>)
 80056f6:	2207      	movs	r2, #7
 80056f8:	701a      	strb	r2, [r3, #0]
 80056fa:	4b7d      	ldr	r3, [pc, #500]	; (80058f0 <keyb_proc+0x9e0>)
 80056fc:	2200      	movs	r2, #0
 80056fe:	701a      	strb	r2, [r3, #0]
 8005700:	4a83      	ldr	r2, [pc, #524]	; (8005910 <keyb_proc+0xa00>)
 8005702:	7813      	ldrb	r3, [r2, #0]
 8005704:	f043 0302 	orr.w	r3, r3, #2
 8005708:	7013      	strb	r3, [r2, #0]
 800570a:	4a81      	ldr	r2, [pc, #516]	; (8005910 <keyb_proc+0xa00>)
 800570c:	7813      	ldrb	r3, [r2, #0]
 800570e:	f043 0301 	orr.w	r3, r3, #1
 8005712:	7013      	strb	r3, [r2, #0]
 8005714:	687b      	ldr	r3, [r7, #4]
 8005716:	781b      	ldrb	r3, [r3, #0]
 8005718:	f003 0302 	and.w	r3, r3, #2
 800571c:	b2db      	uxtb	r3, r3
 800571e:	2b00      	cmp	r3, #0
 8005720:	d148      	bne.n	80057b4 <keyb_proc+0x8a4>
 8005722:	f7fd f9f7 	bl	8002b14 <InitClear_Timer>
 8005726:	4b71      	ldr	r3, [pc, #452]	; (80058ec <keyb_proc+0x9dc>)
 8005728:	781b      	ldrb	r3, [r3, #0]
 800572a:	b2db      	uxtb	r3, r3
 800572c:	2b04      	cmp	r3, #4
 800572e:	d108      	bne.n	8005742 <keyb_proc+0x832>
 8005730:	4b6f      	ldr	r3, [pc, #444]	; (80058f0 <keyb_proc+0x9e0>)
 8005732:	781b      	ldrb	r3, [r3, #0]
 8005734:	4618      	mov	r0, r3
 8005736:	f7fd fcd7 	bl	80030e8 <SaveSequence>
 800573a:	4b6c      	ldr	r3, [pc, #432]	; (80058ec <keyb_proc+0x9dc>)
 800573c:	2200      	movs	r2, #0
 800573e:	701a      	strb	r2, [r3, #0]
 8005740:	e038      	b.n	80057b4 <keyb_proc+0x8a4>
 8005742:	4b6a      	ldr	r3, [pc, #424]	; (80058ec <keyb_proc+0x9dc>)
 8005744:	781b      	ldrb	r3, [r3, #0]
 8005746:	b2db      	uxtb	r3, r3
 8005748:	2b05      	cmp	r3, #5
 800574a:	d108      	bne.n	800575e <keyb_proc+0x84e>
 800574c:	4b68      	ldr	r3, [pc, #416]	; (80058f0 <keyb_proc+0x9e0>)
 800574e:	781b      	ldrb	r3, [r3, #0]
 8005750:	4618      	mov	r0, r3
 8005752:	f7fd fcc9 	bl	80030e8 <SaveSequence>
 8005756:	4b65      	ldr	r3, [pc, #404]	; (80058ec <keyb_proc+0x9dc>)
 8005758:	2201      	movs	r2, #1
 800575a:	701a      	strb	r2, [r3, #0]
 800575c:	e02a      	b.n	80057b4 <keyb_proc+0x8a4>
 800575e:	4b63      	ldr	r3, [pc, #396]	; (80058ec <keyb_proc+0x9dc>)
 8005760:	781b      	ldrb	r3, [r3, #0]
 8005762:	b2db      	uxtb	r3, r3
 8005764:	2b00      	cmp	r3, #0
 8005766:	d110      	bne.n	800578a <keyb_proc+0x87a>
 8005768:	4b60      	ldr	r3, [pc, #384]	; (80058ec <keyb_proc+0x9dc>)
 800576a:	2204      	movs	r2, #4
 800576c:	701a      	strb	r2, [r3, #0]
 800576e:	4b60      	ldr	r3, [pc, #384]	; (80058f0 <keyb_proc+0x9e0>)
 8005770:	2200      	movs	r2, #0
 8005772:	701a      	strb	r2, [r3, #0]
 8005774:	4a66      	ldr	r2, [pc, #408]	; (8005910 <keyb_proc+0xa00>)
 8005776:	7813      	ldrb	r3, [r2, #0]
 8005778:	f043 0302 	orr.w	r3, r3, #2
 800577c:	7013      	strb	r3, [r2, #0]
 800577e:	4a64      	ldr	r2, [pc, #400]	; (8005910 <keyb_proc+0xa00>)
 8005780:	7813      	ldrb	r3, [r2, #0]
 8005782:	f043 0301 	orr.w	r3, r3, #1
 8005786:	7013      	strb	r3, [r2, #0]
 8005788:	e014      	b.n	80057b4 <keyb_proc+0x8a4>
 800578a:	4b58      	ldr	r3, [pc, #352]	; (80058ec <keyb_proc+0x9dc>)
 800578c:	781b      	ldrb	r3, [r3, #0]
 800578e:	b2db      	uxtb	r3, r3
 8005790:	2b01      	cmp	r3, #1
 8005792:	d10f      	bne.n	80057b4 <keyb_proc+0x8a4>
 8005794:	4b55      	ldr	r3, [pc, #340]	; (80058ec <keyb_proc+0x9dc>)
 8005796:	2205      	movs	r2, #5
 8005798:	701a      	strb	r2, [r3, #0]
 800579a:	4b55      	ldr	r3, [pc, #340]	; (80058f0 <keyb_proc+0x9e0>)
 800579c:	2200      	movs	r2, #0
 800579e:	701a      	strb	r2, [r3, #0]
 80057a0:	4a5b      	ldr	r2, [pc, #364]	; (8005910 <keyb_proc+0xa00>)
 80057a2:	7813      	ldrb	r3, [r2, #0]
 80057a4:	f043 0302 	orr.w	r3, r3, #2
 80057a8:	7013      	strb	r3, [r2, #0]
 80057aa:	4a59      	ldr	r2, [pc, #356]	; (8005910 <keyb_proc+0xa00>)
 80057ac:	7813      	ldrb	r3, [r2, #0]
 80057ae:	f043 0301 	orr.w	r3, r3, #1
 80057b2:	7013      	strb	r3, [r2, #0]
 80057b4:	687b      	ldr	r3, [r7, #4]
 80057b6:	781b      	ldrb	r3, [r3, #0]
 80057b8:	f003 0304 	and.w	r3, r3, #4
 80057bc:	b2db      	uxtb	r3, r3
 80057be:	2b00      	cmp	r3, #0
 80057c0:	f040 810b 	bne.w	80059da <keyb_proc+0xaca>
 80057c4:	4b49      	ldr	r3, [pc, #292]	; (80058ec <keyb_proc+0x9dc>)
 80057c6:	781b      	ldrb	r3, [r3, #0]
 80057c8:	b2db      	uxtb	r3, r3
 80057ca:	2b00      	cmp	r3, #0
 80057cc:	d105      	bne.n	80057da <keyb_proc+0x8ca>
 80057ce:	4b47      	ldr	r3, [pc, #284]	; (80058ec <keyb_proc+0x9dc>)
 80057d0:	2202      	movs	r2, #2
 80057d2:	701a      	strb	r2, [r3, #0]
 80057d4:	4b46      	ldr	r3, [pc, #280]	; (80058f0 <keyb_proc+0x9e0>)
 80057d6:	2201      	movs	r2, #1
 80057d8:	701a      	strb	r2, [r3, #0]
 80057da:	4b44      	ldr	r3, [pc, #272]	; (80058ec <keyb_proc+0x9dc>)
 80057dc:	781b      	ldrb	r3, [r3, #0]
 80057de:	b2db      	uxtb	r3, r3
 80057e0:	2b01      	cmp	r3, #1
 80057e2:	d105      	bne.n	80057f0 <keyb_proc+0x8e0>
 80057e4:	4b41      	ldr	r3, [pc, #260]	; (80058ec <keyb_proc+0x9dc>)
 80057e6:	2203      	movs	r2, #3
 80057e8:	701a      	strb	r2, [r3, #0]
 80057ea:	4b41      	ldr	r3, [pc, #260]	; (80058f0 <keyb_proc+0x9e0>)
 80057ec:	2201      	movs	r2, #1
 80057ee:	701a      	strb	r2, [r3, #0]
 80057f0:	4b3e      	ldr	r3, [pc, #248]	; (80058ec <keyb_proc+0x9dc>)
 80057f2:	781b      	ldrb	r3, [r3, #0]
 80057f4:	b2db      	uxtb	r3, r3
 80057f6:	2b02      	cmp	r3, #2
 80057f8:	d004      	beq.n	8005804 <keyb_proc+0x8f4>
 80057fa:	4b3c      	ldr	r3, [pc, #240]	; (80058ec <keyb_proc+0x9dc>)
 80057fc:	781b      	ldrb	r3, [r3, #0]
 80057fe:	b2db      	uxtb	r3, r3
 8005800:	2b03      	cmp	r3, #3
 8005802:	d14e      	bne.n	80058a2 <keyb_proc+0x992>
 8005804:	4b3a      	ldr	r3, [pc, #232]	; (80058f0 <keyb_proc+0x9e0>)
 8005806:	781b      	ldrb	r3, [r3, #0]
 8005808:	2b00      	cmp	r3, #0
 800580a:	d028      	beq.n	800585e <keyb_proc+0x94e>
 800580c:	4b41      	ldr	r3, [pc, #260]	; (8005914 <keyb_proc+0xa04>)
 800580e:	881b      	ldrh	r3, [r3, #0]
 8005810:	2b00      	cmp	r3, #0
 8005812:	d106      	bne.n	8005822 <keyb_proc+0x912>
 8005814:	4b36      	ldr	r3, [pc, #216]	; (80058f0 <keyb_proc+0x9e0>)
 8005816:	781b      	ldrb	r3, [r3, #0]
 8005818:	3b01      	subs	r3, #1
 800581a:	b2da      	uxtb	r2, r3
 800581c:	4b34      	ldr	r3, [pc, #208]	; (80058f0 <keyb_proc+0x9e0>)
 800581e:	701a      	strb	r2, [r3, #0]
 8005820:	e00c      	b.n	800583c <keyb_proc+0x92c>
 8005822:	4b3c      	ldr	r3, [pc, #240]	; (8005914 <keyb_proc+0xa04>)
 8005824:	881b      	ldrh	r3, [r3, #0]
 8005826:	2b78      	cmp	r3, #120	; 0x78
 8005828:	d908      	bls.n	800583c <keyb_proc+0x92c>
 800582a:	4b3a      	ldr	r3, [pc, #232]	; (8005914 <keyb_proc+0xa04>)
 800582c:	2264      	movs	r2, #100	; 0x64
 800582e:	801a      	strh	r2, [r3, #0]
 8005830:	4b2f      	ldr	r3, [pc, #188]	; (80058f0 <keyb_proc+0x9e0>)
 8005832:	781b      	ldrb	r3, [r3, #0]
 8005834:	3b01      	subs	r3, #1
 8005836:	b2da      	uxtb	r2, r3
 8005838:	4b2d      	ldr	r3, [pc, #180]	; (80058f0 <keyb_proc+0x9e0>)
 800583a:	701a      	strb	r2, [r3, #0]
 800583c:	4b35      	ldr	r3, [pc, #212]	; (8005914 <keyb_proc+0xa04>)
 800583e:	881b      	ldrh	r3, [r3, #0]
 8005840:	3301      	adds	r3, #1
 8005842:	b29a      	uxth	r2, r3
 8005844:	4b33      	ldr	r3, [pc, #204]	; (8005914 <keyb_proc+0xa04>)
 8005846:	801a      	strh	r2, [r3, #0]
 8005848:	4a31      	ldr	r2, [pc, #196]	; (8005910 <keyb_proc+0xa00>)
 800584a:	7813      	ldrb	r3, [r2, #0]
 800584c:	f043 0301 	orr.w	r3, r3, #1
 8005850:	7013      	strb	r3, [r2, #0]
 8005852:	4a2f      	ldr	r2, [pc, #188]	; (8005910 <keyb_proc+0xa00>)
 8005854:	7813      	ldrb	r3, [r2, #0]
 8005856:	f043 0302 	orr.w	r3, r3, #2
 800585a:	7013      	strb	r3, [r2, #0]
 800585c:	e021      	b.n	80058a2 <keyb_proc+0x992>
 800585e:	4b2d      	ldr	r3, [pc, #180]	; (8005914 <keyb_proc+0xa04>)
 8005860:	881b      	ldrh	r3, [r3, #0]
 8005862:	2b00      	cmp	r3, #0
 8005864:	d103      	bne.n	800586e <keyb_proc+0x95e>
 8005866:	4a22      	ldr	r2, [pc, #136]	; (80058f0 <keyb_proc+0x9e0>)
 8005868:	7d7b      	ldrb	r3, [r7, #21]
 800586a:	7013      	strb	r3, [r2, #0]
 800586c:	e009      	b.n	8005882 <keyb_proc+0x972>
 800586e:	4b29      	ldr	r3, [pc, #164]	; (8005914 <keyb_proc+0xa04>)
 8005870:	881b      	ldrh	r3, [r3, #0]
 8005872:	2b78      	cmp	r3, #120	; 0x78
 8005874:	d905      	bls.n	8005882 <keyb_proc+0x972>
 8005876:	4b27      	ldr	r3, [pc, #156]	; (8005914 <keyb_proc+0xa04>)
 8005878:	2264      	movs	r2, #100	; 0x64
 800587a:	801a      	strh	r2, [r3, #0]
 800587c:	4a1c      	ldr	r2, [pc, #112]	; (80058f0 <keyb_proc+0x9e0>)
 800587e:	7d7b      	ldrb	r3, [r7, #21]
 8005880:	7013      	strb	r3, [r2, #0]
 8005882:	4b24      	ldr	r3, [pc, #144]	; (8005914 <keyb_proc+0xa04>)
 8005884:	881b      	ldrh	r3, [r3, #0]
 8005886:	3301      	adds	r3, #1
 8005888:	b29a      	uxth	r2, r3
 800588a:	4b22      	ldr	r3, [pc, #136]	; (8005914 <keyb_proc+0xa04>)
 800588c:	801a      	strh	r2, [r3, #0]
 800588e:	4a20      	ldr	r2, [pc, #128]	; (8005910 <keyb_proc+0xa00>)
 8005890:	7813      	ldrb	r3, [r2, #0]
 8005892:	f043 0301 	orr.w	r3, r3, #1
 8005896:	7013      	strb	r3, [r2, #0]
 8005898:	4a1d      	ldr	r2, [pc, #116]	; (8005910 <keyb_proc+0xa00>)
 800589a:	7813      	ldrb	r3, [r2, #0]
 800589c:	f043 0302 	orr.w	r3, r3, #2
 80058a0:	7013      	strb	r3, [r2, #0]
 80058a2:	4b12      	ldr	r3, [pc, #72]	; (80058ec <keyb_proc+0x9dc>)
 80058a4:	781b      	ldrb	r3, [r3, #0]
 80058a6:	b2db      	uxtb	r3, r3
 80058a8:	2b04      	cmp	r3, #4
 80058aa:	d00f      	beq.n	80058cc <keyb_proc+0x9bc>
 80058ac:	4b0f      	ldr	r3, [pc, #60]	; (80058ec <keyb_proc+0x9dc>)
 80058ae:	781b      	ldrb	r3, [r3, #0]
 80058b0:	b2db      	uxtb	r3, r3
 80058b2:	2b05      	cmp	r3, #5
 80058b4:	d00a      	beq.n	80058cc <keyb_proc+0x9bc>
 80058b6:	4b0d      	ldr	r3, [pc, #52]	; (80058ec <keyb_proc+0x9dc>)
 80058b8:	781b      	ldrb	r3, [r3, #0]
 80058ba:	b2db      	uxtb	r3, r3
 80058bc:	2b06      	cmp	r3, #6
 80058be:	d005      	beq.n	80058cc <keyb_proc+0x9bc>
 80058c0:	4b0a      	ldr	r3, [pc, #40]	; (80058ec <keyb_proc+0x9dc>)
 80058c2:	781b      	ldrb	r3, [r3, #0]
 80058c4:	b2db      	uxtb	r3, r3
 80058c6:	2b07      	cmp	r3, #7
 80058c8:	f040 808a 	bne.w	80059e0 <keyb_proc+0xad0>
 80058cc:	4b08      	ldr	r3, [pc, #32]	; (80058f0 <keyb_proc+0x9e0>)
 80058ce:	781b      	ldrb	r3, [r3, #0]
 80058d0:	2b00      	cmp	r3, #0
 80058d2:	d03a      	beq.n	800594a <keyb_proc+0xa3a>
 80058d4:	4b0f      	ldr	r3, [pc, #60]	; (8005914 <keyb_proc+0xa04>)
 80058d6:	881b      	ldrh	r3, [r3, #0]
 80058d8:	2b00      	cmp	r3, #0
 80058da:	d11d      	bne.n	8005918 <keyb_proc+0xa08>
 80058dc:	4b04      	ldr	r3, [pc, #16]	; (80058f0 <keyb_proc+0x9e0>)
 80058de:	781b      	ldrb	r3, [r3, #0]
 80058e0:	3b01      	subs	r3, #1
 80058e2:	b2da      	uxtb	r2, r3
 80058e4:	4b02      	ldr	r3, [pc, #8]	; (80058f0 <keyb_proc+0x9e0>)
 80058e6:	701a      	strb	r2, [r3, #0]
 80058e8:	e023      	b.n	8005932 <keyb_proc+0xa22>
 80058ea:	bf00      	nop
 80058ec:	20000296 	.word	0x20000296
 80058f0:	200002ac 	.word	0x200002ac
 80058f4:	200002b2 	.word	0x200002b2
 80058f8:	200002ad 	.word	0x200002ad
 80058fc:	200002af 	.word	0x200002af
 8005900:	20000297 	.word	0x20000297
 8005904:	200002ae 	.word	0x200002ae
 8005908:	200002b0 	.word	0x200002b0
 800590c:	20000298 	.word	0x20000298
 8005910:	200002e0 	.word	0x200002e0
 8005914:	200002ca 	.word	0x200002ca
 8005918:	4ba1      	ldr	r3, [pc, #644]	; (8005ba0 <keyb_proc+0xc90>)
 800591a:	881b      	ldrh	r3, [r3, #0]
 800591c:	2b78      	cmp	r3, #120	; 0x78
 800591e:	d908      	bls.n	8005932 <keyb_proc+0xa22>
 8005920:	4b9f      	ldr	r3, [pc, #636]	; (8005ba0 <keyb_proc+0xc90>)
 8005922:	2264      	movs	r2, #100	; 0x64
 8005924:	801a      	strh	r2, [r3, #0]
 8005926:	4b9f      	ldr	r3, [pc, #636]	; (8005ba4 <keyb_proc+0xc94>)
 8005928:	781b      	ldrb	r3, [r3, #0]
 800592a:	3b01      	subs	r3, #1
 800592c:	b2da      	uxtb	r2, r3
 800592e:	4b9d      	ldr	r3, [pc, #628]	; (8005ba4 <keyb_proc+0xc94>)
 8005930:	701a      	strb	r2, [r3, #0]
 8005932:	4b9b      	ldr	r3, [pc, #620]	; (8005ba0 <keyb_proc+0xc90>)
 8005934:	881b      	ldrh	r3, [r3, #0]
 8005936:	3301      	adds	r3, #1
 8005938:	b29a      	uxth	r2, r3
 800593a:	4b99      	ldr	r3, [pc, #612]	; (8005ba0 <keyb_proc+0xc90>)
 800593c:	801a      	strh	r2, [r3, #0]
 800593e:	4a9a      	ldr	r2, [pc, #616]	; (8005ba8 <keyb_proc+0xc98>)
 8005940:	7813      	ldrb	r3, [r2, #0]
 8005942:	f043 0302 	orr.w	r3, r3, #2
 8005946:	7013      	strb	r3, [r2, #0]
 8005948:	e04a      	b.n	80059e0 <keyb_proc+0xad0>
 800594a:	4b95      	ldr	r3, [pc, #596]	; (8005ba0 <keyb_proc+0xc90>)
 800594c:	881b      	ldrh	r3, [r3, #0]
 800594e:	2b00      	cmp	r3, #0
 8005950:	d118      	bne.n	8005984 <keyb_proc+0xa74>
 8005952:	f7fc fa50 	bl	8001df6 <Is_Expander_Present>
 8005956:	4603      	mov	r3, r0
 8005958:	2b00      	cmp	r3, #0
 800595a:	d10f      	bne.n	800597c <keyb_proc+0xa6c>
 800595c:	4b91      	ldr	r3, [pc, #580]	; (8005ba4 <keyb_proc+0xc94>)
 800595e:	220f      	movs	r2, #15
 8005960:	701a      	strb	r2, [r3, #0]
 8005962:	4b92      	ldr	r3, [pc, #584]	; (8005bac <keyb_proc+0xc9c>)
 8005964:	781b      	ldrb	r3, [r3, #0]
 8005966:	b2db      	uxtb	r3, r3
 8005968:	2b01      	cmp	r3, #1
 800596a:	d103      	bne.n	8005974 <keyb_proc+0xa64>
 800596c:	4b8f      	ldr	r3, [pc, #572]	; (8005bac <keyb_proc+0xc9c>)
 800596e:	2202      	movs	r2, #2
 8005970:	701a      	strb	r2, [r3, #0]
 8005972:	e026      	b.n	80059c2 <keyb_proc+0xab2>
 8005974:	4b8d      	ldr	r3, [pc, #564]	; (8005bac <keyb_proc+0xc9c>)
 8005976:	2201      	movs	r2, #1
 8005978:	701a      	strb	r2, [r3, #0]
 800597a:	e022      	b.n	80059c2 <keyb_proc+0xab2>
 800597c:	4b89      	ldr	r3, [pc, #548]	; (8005ba4 <keyb_proc+0xc94>)
 800597e:	221f      	movs	r2, #31
 8005980:	701a      	strb	r2, [r3, #0]
 8005982:	e01e      	b.n	80059c2 <keyb_proc+0xab2>
 8005984:	4b86      	ldr	r3, [pc, #536]	; (8005ba0 <keyb_proc+0xc90>)
 8005986:	881b      	ldrh	r3, [r3, #0]
 8005988:	2b78      	cmp	r3, #120	; 0x78
 800598a:	d91a      	bls.n	80059c2 <keyb_proc+0xab2>
 800598c:	4b84      	ldr	r3, [pc, #528]	; (8005ba0 <keyb_proc+0xc90>)
 800598e:	2264      	movs	r2, #100	; 0x64
 8005990:	801a      	strh	r2, [r3, #0]
 8005992:	f7fc fa30 	bl	8001df6 <Is_Expander_Present>
 8005996:	4603      	mov	r3, r0
 8005998:	2b00      	cmp	r3, #0
 800599a:	d10f      	bne.n	80059bc <keyb_proc+0xaac>
 800599c:	4b81      	ldr	r3, [pc, #516]	; (8005ba4 <keyb_proc+0xc94>)
 800599e:	220f      	movs	r2, #15
 80059a0:	701a      	strb	r2, [r3, #0]
 80059a2:	4b82      	ldr	r3, [pc, #520]	; (8005bac <keyb_proc+0xc9c>)
 80059a4:	781b      	ldrb	r3, [r3, #0]
 80059a6:	b2db      	uxtb	r3, r3
 80059a8:	2b01      	cmp	r3, #1
 80059aa:	d103      	bne.n	80059b4 <keyb_proc+0xaa4>
 80059ac:	4b7f      	ldr	r3, [pc, #508]	; (8005bac <keyb_proc+0xc9c>)
 80059ae:	2202      	movs	r2, #2
 80059b0:	701a      	strb	r2, [r3, #0]
 80059b2:	e006      	b.n	80059c2 <keyb_proc+0xab2>
 80059b4:	4b7d      	ldr	r3, [pc, #500]	; (8005bac <keyb_proc+0xc9c>)
 80059b6:	2201      	movs	r2, #1
 80059b8:	701a      	strb	r2, [r3, #0]
 80059ba:	e002      	b.n	80059c2 <keyb_proc+0xab2>
 80059bc:	4b79      	ldr	r3, [pc, #484]	; (8005ba4 <keyb_proc+0xc94>)
 80059be:	221f      	movs	r2, #31
 80059c0:	701a      	strb	r2, [r3, #0]
 80059c2:	4b77      	ldr	r3, [pc, #476]	; (8005ba0 <keyb_proc+0xc90>)
 80059c4:	881b      	ldrh	r3, [r3, #0]
 80059c6:	3301      	adds	r3, #1
 80059c8:	b29a      	uxth	r2, r3
 80059ca:	4b75      	ldr	r3, [pc, #468]	; (8005ba0 <keyb_proc+0xc90>)
 80059cc:	801a      	strh	r2, [r3, #0]
 80059ce:	4a76      	ldr	r2, [pc, #472]	; (8005ba8 <keyb_proc+0xc98>)
 80059d0:	7813      	ldrb	r3, [r2, #0]
 80059d2:	f043 0302 	orr.w	r3, r3, #2
 80059d6:	7013      	strb	r3, [r2, #0]
 80059d8:	e002      	b.n	80059e0 <keyb_proc+0xad0>
 80059da:	4b71      	ldr	r3, [pc, #452]	; (8005ba0 <keyb_proc+0xc90>)
 80059dc:	2200      	movs	r2, #0
 80059de:	801a      	strh	r2, [r3, #0]
 80059e0:	687b      	ldr	r3, [r7, #4]
 80059e2:	781b      	ldrb	r3, [r3, #0]
 80059e4:	f003 0308 	and.w	r3, r3, #8
 80059e8:	b2db      	uxtb	r3, r3
 80059ea:	2b00      	cmp	r3, #0
 80059ec:	f040 80fa 	bne.w	8005be4 <keyb_proc+0xcd4>
 80059f0:	4b6f      	ldr	r3, [pc, #444]	; (8005bb0 <keyb_proc+0xca0>)
 80059f2:	781b      	ldrb	r3, [r3, #0]
 80059f4:	b2db      	uxtb	r3, r3
 80059f6:	2b00      	cmp	r3, #0
 80059f8:	d105      	bne.n	8005a06 <keyb_proc+0xaf6>
 80059fa:	4b6d      	ldr	r3, [pc, #436]	; (8005bb0 <keyb_proc+0xca0>)
 80059fc:	2202      	movs	r2, #2
 80059fe:	701a      	strb	r2, [r3, #0]
 8005a00:	4a68      	ldr	r2, [pc, #416]	; (8005ba4 <keyb_proc+0xc94>)
 8005a02:	7d7b      	ldrb	r3, [r7, #21]
 8005a04:	7013      	strb	r3, [r2, #0]
 8005a06:	4b6a      	ldr	r3, [pc, #424]	; (8005bb0 <keyb_proc+0xca0>)
 8005a08:	781b      	ldrb	r3, [r3, #0]
 8005a0a:	b2db      	uxtb	r3, r3
 8005a0c:	2b01      	cmp	r3, #1
 8005a0e:	d105      	bne.n	8005a1c <keyb_proc+0xb0c>
 8005a10:	4b67      	ldr	r3, [pc, #412]	; (8005bb0 <keyb_proc+0xca0>)
 8005a12:	2203      	movs	r2, #3
 8005a14:	701a      	strb	r2, [r3, #0]
 8005a16:	4a63      	ldr	r2, [pc, #396]	; (8005ba4 <keyb_proc+0xc94>)
 8005a18:	7d7b      	ldrb	r3, [r7, #21]
 8005a1a:	7013      	strb	r3, [r2, #0]
 8005a1c:	4b64      	ldr	r3, [pc, #400]	; (8005bb0 <keyb_proc+0xca0>)
 8005a1e:	781b      	ldrb	r3, [r3, #0]
 8005a20:	b2db      	uxtb	r3, r3
 8005a22:	2b02      	cmp	r3, #2
 8005a24:	d004      	beq.n	8005a30 <keyb_proc+0xb20>
 8005a26:	4b62      	ldr	r3, [pc, #392]	; (8005bb0 <keyb_proc+0xca0>)
 8005a28:	781b      	ldrb	r3, [r3, #0]
 8005a2a:	b2db      	uxtb	r3, r3
 8005a2c:	2b03      	cmp	r3, #3
 8005a2e:	d13f      	bne.n	8005ab0 <keyb_proc+0xba0>
 8005a30:	4b5c      	ldr	r3, [pc, #368]	; (8005ba4 <keyb_proc+0xc94>)
 8005a32:	781b      	ldrb	r3, [r3, #0]
 8005a34:	7d7a      	ldrb	r2, [r7, #21]
 8005a36:	429a      	cmp	r2, r3
 8005a38:	d918      	bls.n	8005a6c <keyb_proc+0xb5c>
 8005a3a:	4b5e      	ldr	r3, [pc, #376]	; (8005bb4 <keyb_proc+0xca4>)
 8005a3c:	881b      	ldrh	r3, [r3, #0]
 8005a3e:	2b00      	cmp	r3, #0
 8005a40:	d106      	bne.n	8005a50 <keyb_proc+0xb40>
 8005a42:	4b58      	ldr	r3, [pc, #352]	; (8005ba4 <keyb_proc+0xc94>)
 8005a44:	781b      	ldrb	r3, [r3, #0]
 8005a46:	3301      	adds	r3, #1
 8005a48:	b2da      	uxtb	r2, r3
 8005a4a:	4b56      	ldr	r3, [pc, #344]	; (8005ba4 <keyb_proc+0xc94>)
 8005a4c:	701a      	strb	r2, [r3, #0]
 8005a4e:	e01f      	b.n	8005a90 <keyb_proc+0xb80>
 8005a50:	4b58      	ldr	r3, [pc, #352]	; (8005bb4 <keyb_proc+0xca4>)
 8005a52:	881b      	ldrh	r3, [r3, #0]
 8005a54:	2b78      	cmp	r3, #120	; 0x78
 8005a56:	d91b      	bls.n	8005a90 <keyb_proc+0xb80>
 8005a58:	4b56      	ldr	r3, [pc, #344]	; (8005bb4 <keyb_proc+0xca4>)
 8005a5a:	2264      	movs	r2, #100	; 0x64
 8005a5c:	801a      	strh	r2, [r3, #0]
 8005a5e:	4b51      	ldr	r3, [pc, #324]	; (8005ba4 <keyb_proc+0xc94>)
 8005a60:	781b      	ldrb	r3, [r3, #0]
 8005a62:	3301      	adds	r3, #1
 8005a64:	b2da      	uxtb	r2, r3
 8005a66:	4b4f      	ldr	r3, [pc, #316]	; (8005ba4 <keyb_proc+0xc94>)
 8005a68:	701a      	strb	r2, [r3, #0]
 8005a6a:	e011      	b.n	8005a90 <keyb_proc+0xb80>
 8005a6c:	4b51      	ldr	r3, [pc, #324]	; (8005bb4 <keyb_proc+0xca4>)
 8005a6e:	881b      	ldrh	r3, [r3, #0]
 8005a70:	2b00      	cmp	r3, #0
 8005a72:	d103      	bne.n	8005a7c <keyb_proc+0xb6c>
 8005a74:	4b4b      	ldr	r3, [pc, #300]	; (8005ba4 <keyb_proc+0xc94>)
 8005a76:	2200      	movs	r2, #0
 8005a78:	701a      	strb	r2, [r3, #0]
 8005a7a:	e009      	b.n	8005a90 <keyb_proc+0xb80>
 8005a7c:	4b4d      	ldr	r3, [pc, #308]	; (8005bb4 <keyb_proc+0xca4>)
 8005a7e:	881b      	ldrh	r3, [r3, #0]
 8005a80:	2b78      	cmp	r3, #120	; 0x78
 8005a82:	d905      	bls.n	8005a90 <keyb_proc+0xb80>
 8005a84:	4b4b      	ldr	r3, [pc, #300]	; (8005bb4 <keyb_proc+0xca4>)
 8005a86:	2264      	movs	r2, #100	; 0x64
 8005a88:	801a      	strh	r2, [r3, #0]
 8005a8a:	4b46      	ldr	r3, [pc, #280]	; (8005ba4 <keyb_proc+0xc94>)
 8005a8c:	2200      	movs	r2, #0
 8005a8e:	701a      	strb	r2, [r3, #0]
 8005a90:	4b48      	ldr	r3, [pc, #288]	; (8005bb4 <keyb_proc+0xca4>)
 8005a92:	881b      	ldrh	r3, [r3, #0]
 8005a94:	3301      	adds	r3, #1
 8005a96:	b29a      	uxth	r2, r3
 8005a98:	4b46      	ldr	r3, [pc, #280]	; (8005bb4 <keyb_proc+0xca4>)
 8005a9a:	801a      	strh	r2, [r3, #0]
 8005a9c:	4a42      	ldr	r2, [pc, #264]	; (8005ba8 <keyb_proc+0xc98>)
 8005a9e:	7813      	ldrb	r3, [r2, #0]
 8005aa0:	f043 0301 	orr.w	r3, r3, #1
 8005aa4:	7013      	strb	r3, [r2, #0]
 8005aa6:	4a40      	ldr	r2, [pc, #256]	; (8005ba8 <keyb_proc+0xc98>)
 8005aa8:	7813      	ldrb	r3, [r2, #0]
 8005aaa:	f043 0302 	orr.w	r3, r3, #2
 8005aae:	7013      	strb	r3, [r2, #0]
 8005ab0:	4b3f      	ldr	r3, [pc, #252]	; (8005bb0 <keyb_proc+0xca0>)
 8005ab2:	781b      	ldrb	r3, [r3, #0]
 8005ab4:	b2db      	uxtb	r3, r3
 8005ab6:	2b04      	cmp	r3, #4
 8005ab8:	d00f      	beq.n	8005ada <keyb_proc+0xbca>
 8005aba:	4b3d      	ldr	r3, [pc, #244]	; (8005bb0 <keyb_proc+0xca0>)
 8005abc:	781b      	ldrb	r3, [r3, #0]
 8005abe:	b2db      	uxtb	r3, r3
 8005ac0:	2b05      	cmp	r3, #5
 8005ac2:	d00a      	beq.n	8005ada <keyb_proc+0xbca>
 8005ac4:	4b3a      	ldr	r3, [pc, #232]	; (8005bb0 <keyb_proc+0xca0>)
 8005ac6:	781b      	ldrb	r3, [r3, #0]
 8005ac8:	b2db      	uxtb	r3, r3
 8005aca:	2b06      	cmp	r3, #6
 8005acc:	d005      	beq.n	8005ada <keyb_proc+0xbca>
 8005ace:	4b38      	ldr	r3, [pc, #224]	; (8005bb0 <keyb_proc+0xca0>)
 8005ad0:	781b      	ldrb	r3, [r3, #0]
 8005ad2:	b2db      	uxtb	r3, r3
 8005ad4:	2b07      	cmp	r3, #7
 8005ad6:	f040 8088 	bne.w	8005bea <keyb_proc+0xcda>
 8005ada:	4b32      	ldr	r3, [pc, #200]	; (8005ba4 <keyb_proc+0xc94>)
 8005adc:	781b      	ldrb	r3, [r3, #0]
 8005ade:	7d7a      	ldrb	r2, [r7, #21]
 8005ae0:	429a      	cmp	r2, r3
 8005ae2:	d923      	bls.n	8005b2c <keyb_proc+0xc1c>
 8005ae4:	4b33      	ldr	r3, [pc, #204]	; (8005bb4 <keyb_proc+0xca4>)
 8005ae6:	881b      	ldrh	r3, [r3, #0]
 8005ae8:	2b00      	cmp	r3, #0
 8005aea:	d106      	bne.n	8005afa <keyb_proc+0xbea>
 8005aec:	4b2d      	ldr	r3, [pc, #180]	; (8005ba4 <keyb_proc+0xc94>)
 8005aee:	781b      	ldrb	r3, [r3, #0]
 8005af0:	3301      	adds	r3, #1
 8005af2:	b2da      	uxtb	r2, r3
 8005af4:	4b2b      	ldr	r3, [pc, #172]	; (8005ba4 <keyb_proc+0xc94>)
 8005af6:	701a      	strb	r2, [r3, #0]
 8005af8:	e00c      	b.n	8005b14 <keyb_proc+0xc04>
 8005afa:	4b2e      	ldr	r3, [pc, #184]	; (8005bb4 <keyb_proc+0xca4>)
 8005afc:	881b      	ldrh	r3, [r3, #0]
 8005afe:	2b78      	cmp	r3, #120	; 0x78
 8005b00:	d908      	bls.n	8005b14 <keyb_proc+0xc04>
 8005b02:	4b2c      	ldr	r3, [pc, #176]	; (8005bb4 <keyb_proc+0xca4>)
 8005b04:	2264      	movs	r2, #100	; 0x64
 8005b06:	801a      	strh	r2, [r3, #0]
 8005b08:	4b26      	ldr	r3, [pc, #152]	; (8005ba4 <keyb_proc+0xc94>)
 8005b0a:	781b      	ldrb	r3, [r3, #0]
 8005b0c:	3301      	adds	r3, #1
 8005b0e:	b2da      	uxtb	r2, r3
 8005b10:	4b24      	ldr	r3, [pc, #144]	; (8005ba4 <keyb_proc+0xc94>)
 8005b12:	701a      	strb	r2, [r3, #0]
 8005b14:	4b27      	ldr	r3, [pc, #156]	; (8005bb4 <keyb_proc+0xca4>)
 8005b16:	881b      	ldrh	r3, [r3, #0]
 8005b18:	3301      	adds	r3, #1
 8005b1a:	b29a      	uxth	r2, r3
 8005b1c:	4b25      	ldr	r3, [pc, #148]	; (8005bb4 <keyb_proc+0xca4>)
 8005b1e:	801a      	strh	r2, [r3, #0]
 8005b20:	4a21      	ldr	r2, [pc, #132]	; (8005ba8 <keyb_proc+0xc98>)
 8005b22:	7813      	ldrb	r3, [r2, #0]
 8005b24:	f043 0302 	orr.w	r3, r3, #2
 8005b28:	7013      	strb	r3, [r2, #0]
 8005b2a:	e05e      	b.n	8005bea <keyb_proc+0xcda>
 8005b2c:	4b21      	ldr	r3, [pc, #132]	; (8005bb4 <keyb_proc+0xca4>)
 8005b2e:	881b      	ldrh	r3, [r3, #0]
 8005b30:	2b00      	cmp	r3, #0
 8005b32:	d118      	bne.n	8005b66 <keyb_proc+0xc56>
 8005b34:	f7fc f95f 	bl	8001df6 <Is_Expander_Present>
 8005b38:	4603      	mov	r3, r0
 8005b3a:	2b00      	cmp	r3, #0
 8005b3c:	d10f      	bne.n	8005b5e <keyb_proc+0xc4e>
 8005b3e:	4b19      	ldr	r3, [pc, #100]	; (8005ba4 <keyb_proc+0xc94>)
 8005b40:	2200      	movs	r2, #0
 8005b42:	701a      	strb	r2, [r3, #0]
 8005b44:	4b19      	ldr	r3, [pc, #100]	; (8005bac <keyb_proc+0xc9c>)
 8005b46:	781b      	ldrb	r3, [r3, #0]
 8005b48:	b2db      	uxtb	r3, r3
 8005b4a:	2b01      	cmp	r3, #1
 8005b4c:	d103      	bne.n	8005b56 <keyb_proc+0xc46>
 8005b4e:	4b17      	ldr	r3, [pc, #92]	; (8005bac <keyb_proc+0xc9c>)
 8005b50:	2202      	movs	r2, #2
 8005b52:	701a      	strb	r2, [r3, #0]
 8005b54:	e033      	b.n	8005bbe <keyb_proc+0xcae>
 8005b56:	4b15      	ldr	r3, [pc, #84]	; (8005bac <keyb_proc+0xc9c>)
 8005b58:	2201      	movs	r2, #1
 8005b5a:	701a      	strb	r2, [r3, #0]
 8005b5c:	e02f      	b.n	8005bbe <keyb_proc+0xcae>
 8005b5e:	4b11      	ldr	r3, [pc, #68]	; (8005ba4 <keyb_proc+0xc94>)
 8005b60:	2200      	movs	r2, #0
 8005b62:	701a      	strb	r2, [r3, #0]
 8005b64:	e02b      	b.n	8005bbe <keyb_proc+0xcae>
 8005b66:	4b13      	ldr	r3, [pc, #76]	; (8005bb4 <keyb_proc+0xca4>)
 8005b68:	881b      	ldrh	r3, [r3, #0]
 8005b6a:	2b78      	cmp	r3, #120	; 0x78
 8005b6c:	d927      	bls.n	8005bbe <keyb_proc+0xcae>
 8005b6e:	4b11      	ldr	r3, [pc, #68]	; (8005bb4 <keyb_proc+0xca4>)
 8005b70:	2264      	movs	r2, #100	; 0x64
 8005b72:	801a      	strh	r2, [r3, #0]
 8005b74:	f7fc f93f 	bl	8001df6 <Is_Expander_Present>
 8005b78:	4603      	mov	r3, r0
 8005b7a:	2b00      	cmp	r3, #0
 8005b7c:	d11c      	bne.n	8005bb8 <keyb_proc+0xca8>
 8005b7e:	4b09      	ldr	r3, [pc, #36]	; (8005ba4 <keyb_proc+0xc94>)
 8005b80:	2200      	movs	r2, #0
 8005b82:	701a      	strb	r2, [r3, #0]
 8005b84:	4b09      	ldr	r3, [pc, #36]	; (8005bac <keyb_proc+0xc9c>)
 8005b86:	781b      	ldrb	r3, [r3, #0]
 8005b88:	b2db      	uxtb	r3, r3
 8005b8a:	2b01      	cmp	r3, #1
 8005b8c:	d103      	bne.n	8005b96 <keyb_proc+0xc86>
 8005b8e:	4b07      	ldr	r3, [pc, #28]	; (8005bac <keyb_proc+0xc9c>)
 8005b90:	2202      	movs	r2, #2
 8005b92:	701a      	strb	r2, [r3, #0]
 8005b94:	e013      	b.n	8005bbe <keyb_proc+0xcae>
 8005b96:	4b05      	ldr	r3, [pc, #20]	; (8005bac <keyb_proc+0xc9c>)
 8005b98:	2201      	movs	r2, #1
 8005b9a:	701a      	strb	r2, [r3, #0]
 8005b9c:	e00f      	b.n	8005bbe <keyb_proc+0xcae>
 8005b9e:	bf00      	nop
 8005ba0:	200002ca 	.word	0x200002ca
 8005ba4:	200002ac 	.word	0x200002ac
 8005ba8:	200002e0 	.word	0x200002e0
 8005bac:	20000276 	.word	0x20000276
 8005bb0:	20000296 	.word	0x20000296
 8005bb4:	200002cc 	.word	0x200002cc
 8005bb8:	4b07      	ldr	r3, [pc, #28]	; (8005bd8 <keyb_proc+0xcc8>)
 8005bba:	2200      	movs	r2, #0
 8005bbc:	701a      	strb	r2, [r3, #0]
 8005bbe:	4b07      	ldr	r3, [pc, #28]	; (8005bdc <keyb_proc+0xccc>)
 8005bc0:	881b      	ldrh	r3, [r3, #0]
 8005bc2:	3301      	adds	r3, #1
 8005bc4:	b29a      	uxth	r2, r3
 8005bc6:	4b05      	ldr	r3, [pc, #20]	; (8005bdc <keyb_proc+0xccc>)
 8005bc8:	801a      	strh	r2, [r3, #0]
 8005bca:	4a05      	ldr	r2, [pc, #20]	; (8005be0 <keyb_proc+0xcd0>)
 8005bcc:	7813      	ldrb	r3, [r2, #0]
 8005bce:	f043 0302 	orr.w	r3, r3, #2
 8005bd2:	7013      	strb	r3, [r2, #0]
 8005bd4:	e009      	b.n	8005bea <keyb_proc+0xcda>
 8005bd6:	bf00      	nop
 8005bd8:	200002ac 	.word	0x200002ac
 8005bdc:	200002cc 	.word	0x200002cc
 8005be0:	200002e0 	.word	0x200002e0
 8005be4:	4baf      	ldr	r3, [pc, #700]	; (8005ea4 <keyb_proc+0xf94>)
 8005be6:	2200      	movs	r2, #0
 8005be8:	801a      	strh	r2, [r3, #0]
 8005bea:	4baf      	ldr	r3, [pc, #700]	; (8005ea8 <keyb_proc+0xf98>)
 8005bec:	2201      	movs	r2, #1
 8005bee:	701a      	strb	r2, [r3, #0]
 8005bf0:	4bae      	ldr	r3, [pc, #696]	; (8005eac <keyb_proc+0xf9c>)
 8005bf2:	781b      	ldrb	r3, [r3, #0]
 8005bf4:	b2db      	uxtb	r3, r3
 8005bf6:	2b00      	cmp	r3, #0
 8005bf8:	d120      	bne.n	8005c3c <keyb_proc+0xd2c>
 8005bfa:	687b      	ldr	r3, [r7, #4]
 8005bfc:	795b      	ldrb	r3, [r3, #5]
 8005bfe:	f003 0304 	and.w	r3, r3, #4
 8005c02:	b2db      	uxtb	r3, r3
 8005c04:	2b00      	cmp	r3, #0
 8005c06:	d107      	bne.n	8005c18 <keyb_proc+0xd08>
 8005c08:	4ba9      	ldr	r3, [pc, #676]	; (8005eb0 <keyb_proc+0xfa0>)
 8005c0a:	781b      	ldrb	r3, [r3, #0]
 8005c0c:	b2db      	uxtb	r3, r3
 8005c0e:	2b00      	cmp	r3, #0
 8005c10:	d002      	beq.n	8005c18 <keyb_proc+0xd08>
 8005c12:	4ba7      	ldr	r3, [pc, #668]	; (8005eb0 <keyb_proc+0xfa0>)
 8005c14:	2200      	movs	r2, #0
 8005c16:	701a      	strb	r2, [r3, #0]
 8005c18:	687b      	ldr	r3, [r7, #4]
 8005c1a:	791b      	ldrb	r3, [r3, #4]
 8005c1c:	f003 0340 	and.w	r3, r3, #64	; 0x40
 8005c20:	b2db      	uxtb	r3, r3
 8005c22:	2b00      	cmp	r3, #0
 8005c24:	d10a      	bne.n	8005c3c <keyb_proc+0xd2c>
 8005c26:	4ba2      	ldr	r3, [pc, #648]	; (8005eb0 <keyb_proc+0xfa0>)
 8005c28:	781b      	ldrb	r3, [r3, #0]
 8005c2a:	b2db      	uxtb	r3, r3
 8005c2c:	2b01      	cmp	r3, #1
 8005c2e:	d005      	beq.n	8005c3c <keyb_proc+0xd2c>
 8005c30:	4b9f      	ldr	r3, [pc, #636]	; (8005eb0 <keyb_proc+0xfa0>)
 8005c32:	2201      	movs	r2, #1
 8005c34:	701a      	strb	r2, [r3, #0]
 8005c36:	4b9c      	ldr	r3, [pc, #624]	; (8005ea8 <keyb_proc+0xf98>)
 8005c38:	2200      	movs	r2, #0
 8005c3a:	701a      	strb	r2, [r3, #0]
 8005c3c:	687b      	ldr	r3, [r7, #4]
 8005c3e:	795b      	ldrb	r3, [r3, #5]
 8005c40:	f003 0302 	and.w	r3, r3, #2
 8005c44:	b2db      	uxtb	r3, r3
 8005c46:	2b00      	cmp	r3, #0
 8005c48:	d120      	bne.n	8005c8c <keyb_proc+0xd7c>
 8005c4a:	4b9a      	ldr	r3, [pc, #616]	; (8005eb4 <keyb_proc+0xfa4>)
 8005c4c:	781b      	ldrb	r3, [r3, #0]
 8005c4e:	b2db      	uxtb	r3, r3
 8005c50:	2b01      	cmp	r3, #1
 8005c52:	d01b      	beq.n	8005c8c <keyb_proc+0xd7c>
 8005c54:	4b98      	ldr	r3, [pc, #608]	; (8005eb8 <keyb_proc+0xfa8>)
 8005c56:	2200      	movs	r2, #0
 8005c58:	701a      	strb	r2, [r3, #0]
 8005c5a:	4a98      	ldr	r2, [pc, #608]	; (8005ebc <keyb_proc+0xfac>)
 8005c5c:	7813      	ldrb	r3, [r2, #0]
 8005c5e:	f043 0301 	orr.w	r3, r3, #1
 8005c62:	7013      	strb	r3, [r2, #0]
 8005c64:	4a95      	ldr	r2, [pc, #596]	; (8005ebc <keyb_proc+0xfac>)
 8005c66:	7813      	ldrb	r3, [r2, #0]
 8005c68:	f043 0302 	orr.w	r3, r3, #2
 8005c6c:	7013      	strb	r3, [r2, #0]
 8005c6e:	4b91      	ldr	r3, [pc, #580]	; (8005eb4 <keyb_proc+0xfa4>)
 8005c70:	781b      	ldrb	r3, [r3, #0]
 8005c72:	b2db      	uxtb	r3, r3
 8005c74:	2b04      	cmp	r3, #4
 8005c76:	d004      	beq.n	8005c82 <keyb_proc+0xd72>
 8005c78:	4b8e      	ldr	r3, [pc, #568]	; (8005eb4 <keyb_proc+0xfa4>)
 8005c7a:	781b      	ldrb	r3, [r3, #0]
 8005c7c:	b2db      	uxtb	r3, r3
 8005c7e:	2b05      	cmp	r3, #5
 8005c80:	d104      	bne.n	8005c8c <keyb_proc+0xd7c>
 8005c82:	4b8f      	ldr	r3, [pc, #572]	; (8005ec0 <keyb_proc+0xfb0>)
 8005c84:	781b      	ldrb	r3, [r3, #0]
 8005c86:	b2da      	uxtb	r2, r3
 8005c88:	4b8a      	ldr	r3, [pc, #552]	; (8005eb4 <keyb_proc+0xfa4>)
 8005c8a:	701a      	strb	r2, [r3, #0]
 8005c8c:	687b      	ldr	r3, [r7, #4]
 8005c8e:	791b      	ldrb	r3, [r3, #4]
 8005c90:	f003 0320 	and.w	r3, r3, #32
 8005c94:	b2db      	uxtb	r3, r3
 8005c96:	2b00      	cmp	r3, #0
 8005c98:	d120      	bne.n	8005cdc <keyb_proc+0xdcc>
 8005c9a:	4b8a      	ldr	r3, [pc, #552]	; (8005ec4 <keyb_proc+0xfb4>)
 8005c9c:	781b      	ldrb	r3, [r3, #0]
 8005c9e:	b2db      	uxtb	r3, r3
 8005ca0:	2b01      	cmp	r3, #1
 8005ca2:	d01b      	beq.n	8005cdc <keyb_proc+0xdcc>
 8005ca4:	4b88      	ldr	r3, [pc, #544]	; (8005ec8 <keyb_proc+0xfb8>)
 8005ca6:	2200      	movs	r2, #0
 8005ca8:	701a      	strb	r2, [r3, #0]
 8005caa:	4a84      	ldr	r2, [pc, #528]	; (8005ebc <keyb_proc+0xfac>)
 8005cac:	7813      	ldrb	r3, [r2, #0]
 8005cae:	f043 0301 	orr.w	r3, r3, #1
 8005cb2:	7013      	strb	r3, [r2, #0]
 8005cb4:	4a81      	ldr	r2, [pc, #516]	; (8005ebc <keyb_proc+0xfac>)
 8005cb6:	7813      	ldrb	r3, [r2, #0]
 8005cb8:	f043 0302 	orr.w	r3, r3, #2
 8005cbc:	7013      	strb	r3, [r2, #0]
 8005cbe:	4b81      	ldr	r3, [pc, #516]	; (8005ec4 <keyb_proc+0xfb4>)
 8005cc0:	781b      	ldrb	r3, [r3, #0]
 8005cc2:	b2db      	uxtb	r3, r3
 8005cc4:	2b04      	cmp	r3, #4
 8005cc6:	d004      	beq.n	8005cd2 <keyb_proc+0xdc2>
 8005cc8:	4b7e      	ldr	r3, [pc, #504]	; (8005ec4 <keyb_proc+0xfb4>)
 8005cca:	781b      	ldrb	r3, [r3, #0]
 8005ccc:	b2db      	uxtb	r3, r3
 8005cce:	2b05      	cmp	r3, #5
 8005cd0:	d104      	bne.n	8005cdc <keyb_proc+0xdcc>
 8005cd2:	4b7e      	ldr	r3, [pc, #504]	; (8005ecc <keyb_proc+0xfbc>)
 8005cd4:	781b      	ldrb	r3, [r3, #0]
 8005cd6:	b2da      	uxtb	r2, r3
 8005cd8:	4b7a      	ldr	r3, [pc, #488]	; (8005ec4 <keyb_proc+0xfb4>)
 8005cda:	701a      	strb	r2, [r3, #0]
 8005cdc:	687b      	ldr	r3, [r7, #4]
 8005cde:	791b      	ldrb	r3, [r3, #4]
 8005ce0:	f003 0310 	and.w	r3, r3, #16
 8005ce4:	b2db      	uxtb	r3, r3
 8005ce6:	2b00      	cmp	r3, #0
 8005ce8:	d04c      	beq.n	8005d84 <keyb_proc+0xe74>
 8005cea:	4b79      	ldr	r3, [pc, #484]	; (8005ed0 <keyb_proc+0xfc0>)
 8005cec:	781b      	ldrb	r3, [r3, #0]
 8005cee:	b2db      	uxtb	r3, r3
 8005cf0:	2b00      	cmp	r3, #0
 8005cf2:	d147      	bne.n	8005d84 <keyb_proc+0xe74>
 8005cf4:	4b76      	ldr	r3, [pc, #472]	; (8005ed0 <keyb_proc+0xfc0>)
 8005cf6:	2201      	movs	r2, #1
 8005cf8:	701a      	strb	r2, [r3, #0]
 8005cfa:	4b76      	ldr	r3, [pc, #472]	; (8005ed4 <keyb_proc+0xfc4>)
 8005cfc:	781b      	ldrb	r3, [r3, #0]
 8005cfe:	b2db      	uxtb	r3, r3
 8005d00:	3b01      	subs	r3, #1
 8005d02:	b2da      	uxtb	r2, r3
 8005d04:	4b6c      	ldr	r3, [pc, #432]	; (8005eb8 <keyb_proc+0xfa8>)
 8005d06:	701a      	strb	r2, [r3, #0]
 8005d08:	4b69      	ldr	r3, [pc, #420]	; (8005eb0 <keyb_proc+0xfa0>)
 8005d0a:	781b      	ldrb	r3, [r3, #0]
 8005d0c:	b2db      	uxtb	r3, r3
 8005d0e:	2b00      	cmp	r3, #0
 8005d10:	d109      	bne.n	8005d26 <keyb_proc+0xe16>
 8005d12:	4a6a      	ldr	r2, [pc, #424]	; (8005ebc <keyb_proc+0xfac>)
 8005d14:	7813      	ldrb	r3, [r2, #0]
 8005d16:	f043 0301 	orr.w	r3, r3, #1
 8005d1a:	7013      	strb	r3, [r2, #0]
 8005d1c:	4a67      	ldr	r2, [pc, #412]	; (8005ebc <keyb_proc+0xfac>)
 8005d1e:	7813      	ldrb	r3, [r2, #0]
 8005d20:	f043 0302 	orr.w	r3, r3, #2
 8005d24:	7013      	strb	r3, [r2, #0]
 8005d26:	f44f 7100 	mov.w	r1, #512	; 0x200
 8005d2a:	486b      	ldr	r0, [pc, #428]	; (8005ed8 <keyb_proc+0xfc8>)
 8005d2c:	f7fb f9cd 	bl	80010ca <GPIO_ResetBits>
 8005d30:	4b61      	ldr	r3, [pc, #388]	; (8005eb8 <keyb_proc+0xfa8>)
 8005d32:	781b      	ldrb	r3, [r3, #0]
 8005d34:	b2db      	uxtb	r3, r3
 8005d36:	4a69      	ldr	r2, [pc, #420]	; (8005edc <keyb_proc+0xfcc>)
 8005d38:	00db      	lsls	r3, r3, #3
 8005d3a:	4413      	add	r3, r2
 8005d3c:	685b      	ldr	r3, [r3, #4]
 8005d3e:	f3c3 23c0 	ubfx	r3, r3, #11, #1
 8005d42:	b2db      	uxtb	r3, r3
 8005d44:	2b00      	cmp	r3, #0
 8005d46:	d004      	beq.n	8005d52 <keyb_proc+0xe42>
 8005d48:	f44f 6100 	mov.w	r1, #2048	; 0x800
 8005d4c:	4862      	ldr	r0, [pc, #392]	; (8005ed8 <keyb_proc+0xfc8>)
 8005d4e:	f7fb f9bc 	bl	80010ca <GPIO_ResetBits>
 8005d52:	4b59      	ldr	r3, [pc, #356]	; (8005eb8 <keyb_proc+0xfa8>)
 8005d54:	781b      	ldrb	r3, [r3, #0]
 8005d56:	b2db      	uxtb	r3, r3
 8005d58:	4a60      	ldr	r2, [pc, #384]	; (8005edc <keyb_proc+0xfcc>)
 8005d5a:	00db      	lsls	r3, r3, #3
 8005d5c:	4413      	add	r3, r2
 8005d5e:	685b      	ldr	r3, [r3, #4]
 8005d60:	f3c3 3300 	ubfx	r3, r3, #12, #1
 8005d64:	b2db      	uxtb	r3, r3
 8005d66:	2b00      	cmp	r3, #0
 8005d68:	d004      	beq.n	8005d74 <keyb_proc+0xe64>
 8005d6a:	f44f 6180 	mov.w	r1, #1024	; 0x400
 8005d6e:	485a      	ldr	r0, [pc, #360]	; (8005ed8 <keyb_proc+0xfc8>)
 8005d70:	f7fb f9ab 	bl	80010ca <GPIO_ResetBits>
 8005d74:	2101      	movs	r1, #1
 8005d76:	485a      	ldr	r0, [pc, #360]	; (8005ee0 <keyb_proc+0xfd0>)
 8005d78:	f7fb fb4d 	bl	8001416 <TIM_Cmd>
 8005d7c:	2100      	movs	r1, #0
 8005d7e:	4858      	ldr	r0, [pc, #352]	; (8005ee0 <keyb_proc+0xfd0>)
 8005d80:	f7fb fb3c 	bl	80013fc <TIM_SetCounter>
 8005d84:	687b      	ldr	r3, [r7, #4]
 8005d86:	791b      	ldrb	r3, [r3, #4]
 8005d88:	f003 0310 	and.w	r3, r3, #16
 8005d8c:	b2db      	uxtb	r3, r3
 8005d8e:	2b00      	cmp	r3, #0
 8005d90:	d102      	bne.n	8005d98 <keyb_proc+0xe88>
 8005d92:	4b4f      	ldr	r3, [pc, #316]	; (8005ed0 <keyb_proc+0xfc0>)
 8005d94:	2200      	movs	r2, #0
 8005d96:	701a      	strb	r2, [r3, #0]
 8005d98:	687b      	ldr	r3, [r7, #4]
 8005d9a:	795b      	ldrb	r3, [r3, #5]
 8005d9c:	f003 0310 	and.w	r3, r3, #16
 8005da0:	b2db      	uxtb	r3, r3
 8005da2:	2b00      	cmp	r3, #0
 8005da4:	d144      	bne.n	8005e30 <keyb_proc+0xf20>
 8005da6:	4b4b      	ldr	r3, [pc, #300]	; (8005ed4 <keyb_proc+0xfc4>)
 8005da8:	781b      	ldrb	r3, [r3, #0]
 8005daa:	b2db      	uxtb	r3, r3
 8005dac:	3b01      	subs	r3, #1
 8005dae:	b2da      	uxtb	r2, r3
 8005db0:	4b41      	ldr	r3, [pc, #260]	; (8005eb8 <keyb_proc+0xfa8>)
 8005db2:	701a      	strb	r2, [r3, #0]
 8005db4:	4b3e      	ldr	r3, [pc, #248]	; (8005eb0 <keyb_proc+0xfa0>)
 8005db6:	781b      	ldrb	r3, [r3, #0]
 8005db8:	b2db      	uxtb	r3, r3
 8005dba:	2b00      	cmp	r3, #0
 8005dbc:	d109      	bne.n	8005dd2 <keyb_proc+0xec2>
 8005dbe:	4a3f      	ldr	r2, [pc, #252]	; (8005ebc <keyb_proc+0xfac>)
 8005dc0:	7813      	ldrb	r3, [r2, #0]
 8005dc2:	f043 0301 	orr.w	r3, r3, #1
 8005dc6:	7013      	strb	r3, [r2, #0]
 8005dc8:	4a3c      	ldr	r2, [pc, #240]	; (8005ebc <keyb_proc+0xfac>)
 8005dca:	7813      	ldrb	r3, [r2, #0]
 8005dcc:	f043 0302 	orr.w	r3, r3, #2
 8005dd0:	7013      	strb	r3, [r2, #0]
 8005dd2:	f44f 7100 	mov.w	r1, #512	; 0x200
 8005dd6:	4840      	ldr	r0, [pc, #256]	; (8005ed8 <keyb_proc+0xfc8>)
 8005dd8:	f7fb f977 	bl	80010ca <GPIO_ResetBits>
 8005ddc:	4b36      	ldr	r3, [pc, #216]	; (8005eb8 <keyb_proc+0xfa8>)
 8005dde:	781b      	ldrb	r3, [r3, #0]
 8005de0:	b2db      	uxtb	r3, r3
 8005de2:	4a3e      	ldr	r2, [pc, #248]	; (8005edc <keyb_proc+0xfcc>)
 8005de4:	00db      	lsls	r3, r3, #3
 8005de6:	4413      	add	r3, r2
 8005de8:	685b      	ldr	r3, [r3, #4]
 8005dea:	f3c3 23c0 	ubfx	r3, r3, #11, #1
 8005dee:	b2db      	uxtb	r3, r3
 8005df0:	2b00      	cmp	r3, #0
 8005df2:	d004      	beq.n	8005dfe <keyb_proc+0xeee>
 8005df4:	f44f 6100 	mov.w	r1, #2048	; 0x800
 8005df8:	4837      	ldr	r0, [pc, #220]	; (8005ed8 <keyb_proc+0xfc8>)
 8005dfa:	f7fb f966 	bl	80010ca <GPIO_ResetBits>
 8005dfe:	4b2e      	ldr	r3, [pc, #184]	; (8005eb8 <keyb_proc+0xfa8>)
 8005e00:	781b      	ldrb	r3, [r3, #0]
 8005e02:	b2db      	uxtb	r3, r3
 8005e04:	4a35      	ldr	r2, [pc, #212]	; (8005edc <keyb_proc+0xfcc>)
 8005e06:	00db      	lsls	r3, r3, #3
 8005e08:	4413      	add	r3, r2
 8005e0a:	685b      	ldr	r3, [r3, #4]
 8005e0c:	f3c3 3300 	ubfx	r3, r3, #12, #1
 8005e10:	b2db      	uxtb	r3, r3
 8005e12:	2b00      	cmp	r3, #0
 8005e14:	d004      	beq.n	8005e20 <keyb_proc+0xf10>
 8005e16:	f44f 6180 	mov.w	r1, #1024	; 0x400
 8005e1a:	482f      	ldr	r0, [pc, #188]	; (8005ed8 <keyb_proc+0xfc8>)
 8005e1c:	f7fb f955 	bl	80010ca <GPIO_ResetBits>
 8005e20:	2101      	movs	r1, #1
 8005e22:	482f      	ldr	r0, [pc, #188]	; (8005ee0 <keyb_proc+0xfd0>)
 8005e24:	f7fb faf7 	bl	8001416 <TIM_Cmd>
 8005e28:	2100      	movs	r1, #0
 8005e2a:	482d      	ldr	r0, [pc, #180]	; (8005ee0 <keyb_proc+0xfd0>)
 8005e2c:	f7fb fae6 	bl	80013fc <TIM_SetCounter>
 8005e30:	687b      	ldr	r3, [r7, #4]
 8005e32:	78db      	ldrb	r3, [r3, #3]
 8005e34:	f003 0308 	and.w	r3, r3, #8
 8005e38:	b2db      	uxtb	r3, r3
 8005e3a:	2b00      	cmp	r3, #0
 8005e3c:	d06f      	beq.n	8005f1e <keyb_proc+0x100e>
 8005e3e:	4b29      	ldr	r3, [pc, #164]	; (8005ee4 <keyb_proc+0xfd4>)
 8005e40:	781b      	ldrb	r3, [r3, #0]
 8005e42:	b2db      	uxtb	r3, r3
 8005e44:	2b00      	cmp	r3, #0
 8005e46:	d16a      	bne.n	8005f1e <keyb_proc+0x100e>
 8005e48:	4b26      	ldr	r3, [pc, #152]	; (8005ee4 <keyb_proc+0xfd4>)
 8005e4a:	2201      	movs	r2, #1
 8005e4c:	701a      	strb	r2, [r3, #0]
 8005e4e:	4b21      	ldr	r3, [pc, #132]	; (8005ed4 <keyb_proc+0xfc4>)
 8005e50:	785b      	ldrb	r3, [r3, #1]
 8005e52:	b2db      	uxtb	r3, r3
 8005e54:	3b01      	subs	r3, #1
 8005e56:	b2da      	uxtb	r2, r3
 8005e58:	4b1b      	ldr	r3, [pc, #108]	; (8005ec8 <keyb_proc+0xfb8>)
 8005e5a:	701a      	strb	r2, [r3, #0]
 8005e5c:	4b14      	ldr	r3, [pc, #80]	; (8005eb0 <keyb_proc+0xfa0>)
 8005e5e:	781b      	ldrb	r3, [r3, #0]
 8005e60:	b2db      	uxtb	r3, r3
 8005e62:	2b01      	cmp	r3, #1
 8005e64:	d109      	bne.n	8005e7a <keyb_proc+0xf6a>
 8005e66:	4a15      	ldr	r2, [pc, #84]	; (8005ebc <keyb_proc+0xfac>)
 8005e68:	7813      	ldrb	r3, [r2, #0]
 8005e6a:	f043 0301 	orr.w	r3, r3, #1
 8005e6e:	7013      	strb	r3, [r2, #0]
 8005e70:	4a12      	ldr	r2, [pc, #72]	; (8005ebc <keyb_proc+0xfac>)
 8005e72:	7813      	ldrb	r3, [r2, #0]
 8005e74:	f043 0302 	orr.w	r3, r3, #2
 8005e78:	7013      	strb	r3, [r2, #0]
 8005e7a:	2104      	movs	r1, #4
 8005e7c:	481a      	ldr	r0, [pc, #104]	; (8005ee8 <keyb_proc+0xfd8>)
 8005e7e:	f7fb f924 	bl	80010ca <GPIO_ResetBits>
 8005e82:	4b0d      	ldr	r3, [pc, #52]	; (8005eb8 <keyb_proc+0xfa8>)
 8005e84:	781b      	ldrb	r3, [r3, #0]
 8005e86:	b2db      	uxtb	r3, r3
 8005e88:	4a14      	ldr	r2, [pc, #80]	; (8005edc <keyb_proc+0xfcc>)
 8005e8a:	00db      	lsls	r3, r3, #3
 8005e8c:	4413      	add	r3, r2
 8005e8e:	685b      	ldr	r3, [r3, #4]
 8005e90:	f3c3 23c0 	ubfx	r3, r3, #11, #1
 8005e94:	b2db      	uxtb	r3, r3
 8005e96:	2b00      	cmp	r3, #0
 8005e98:	d028      	beq.n	8005eec <keyb_proc+0xfdc>
 8005e9a:	2108      	movs	r1, #8
 8005e9c:	4812      	ldr	r0, [pc, #72]	; (8005ee8 <keyb_proc+0xfd8>)
 8005e9e:	f7fb f914 	bl	80010ca <GPIO_ResetBits>
 8005ea2:	e023      	b.n	8005eec <keyb_proc+0xfdc>
 8005ea4:	200002cc 	.word	0x200002cc
 8005ea8:	200002b1 	.word	0x200002b1
 8005eac:	200002b2 	.word	0x200002b2
 8005eb0:	20000296 	.word	0x20000296
 8005eb4:	200002ad 	.word	0x200002ad
 8005eb8:	20000297 	.word	0x20000297
 8005ebc:	200002e0 	.word	0x200002e0
 8005ec0:	200002af 	.word	0x200002af
 8005ec4:	200002ae 	.word	0x200002ae
 8005ec8:	20000298 	.word	0x20000298
 8005ecc:	200002b0 	.word	0x200002b0
 8005ed0:	200002bc 	.word	0x200002bc
 8005ed4:	20000270 	.word	0x20000270
 8005ed8:	40020400 	.word	0x40020400
 8005edc:	20000948 	.word	0x20000948
 8005ee0:	40002000 	.word	0x40002000
 8005ee4:	200002bd 	.word	0x200002bd
 8005ee8:	40020000 	.word	0x40020000
 8005eec:	4bab      	ldr	r3, [pc, #684]	; (800619c <keyb_proc+0x128c>)
 8005eee:	781b      	ldrb	r3, [r3, #0]
 8005ef0:	b2db      	uxtb	r3, r3
 8005ef2:	4aab      	ldr	r2, [pc, #684]	; (80061a0 <keyb_proc+0x1290>)
 8005ef4:	00db      	lsls	r3, r3, #3
 8005ef6:	4413      	add	r3, r2
 8005ef8:	685b      	ldr	r3, [r3, #4]
 8005efa:	f3c3 3300 	ubfx	r3, r3, #12, #1
 8005efe:	b2db      	uxtb	r3, r3
 8005f00:	2b00      	cmp	r3, #0
 8005f02:	d004      	beq.n	8005f0e <keyb_proc+0xffe>
 8005f04:	f44f 5180 	mov.w	r1, #4096	; 0x1000
 8005f08:	48a6      	ldr	r0, [pc, #664]	; (80061a4 <keyb_proc+0x1294>)
 8005f0a:	f7fb f8de 	bl	80010ca <GPIO_ResetBits>
 8005f0e:	2101      	movs	r1, #1
 8005f10:	48a5      	ldr	r0, [pc, #660]	; (80061a8 <keyb_proc+0x1298>)
 8005f12:	f7fb fa80 	bl	8001416 <TIM_Cmd>
 8005f16:	2100      	movs	r1, #0
 8005f18:	48a3      	ldr	r0, [pc, #652]	; (80061a8 <keyb_proc+0x1298>)
 8005f1a:	f7fb fa6f 	bl	80013fc <TIM_SetCounter>
 8005f1e:	687b      	ldr	r3, [r7, #4]
 8005f20:	78db      	ldrb	r3, [r3, #3]
 8005f22:	f003 0308 	and.w	r3, r3, #8
 8005f26:	b2db      	uxtb	r3, r3
 8005f28:	2b00      	cmp	r3, #0
 8005f2a:	d102      	bne.n	8005f32 <keyb_proc+0x1022>
 8005f2c:	4b9f      	ldr	r3, [pc, #636]	; (80061ac <keyb_proc+0x129c>)
 8005f2e:	2200      	movs	r2, #0
 8005f30:	701a      	strb	r2, [r3, #0]
 8005f32:	687b      	ldr	r3, [r7, #4]
 8005f34:	78db      	ldrb	r3, [r3, #3]
 8005f36:	f003 0302 	and.w	r3, r3, #2
 8005f3a:	b2db      	uxtb	r3, r3
 8005f3c:	2b00      	cmp	r3, #0
 8005f3e:	d144      	bne.n	8005fca <keyb_proc+0x10ba>
 8005f40:	4b9b      	ldr	r3, [pc, #620]	; (80061b0 <keyb_proc+0x12a0>)
 8005f42:	785b      	ldrb	r3, [r3, #1]
 8005f44:	b2db      	uxtb	r3, r3
 8005f46:	3b01      	subs	r3, #1
 8005f48:	b2da      	uxtb	r2, r3
 8005f4a:	4b9a      	ldr	r3, [pc, #616]	; (80061b4 <keyb_proc+0x12a4>)
 8005f4c:	701a      	strb	r2, [r3, #0]
 8005f4e:	4b9a      	ldr	r3, [pc, #616]	; (80061b8 <keyb_proc+0x12a8>)
 8005f50:	781b      	ldrb	r3, [r3, #0]
 8005f52:	b2db      	uxtb	r3, r3
 8005f54:	2b01      	cmp	r3, #1
 8005f56:	d109      	bne.n	8005f6c <keyb_proc+0x105c>
 8005f58:	4a98      	ldr	r2, [pc, #608]	; (80061bc <keyb_proc+0x12ac>)
 8005f5a:	7813      	ldrb	r3, [r2, #0]
 8005f5c:	f043 0301 	orr.w	r3, r3, #1
 8005f60:	7013      	strb	r3, [r2, #0]
 8005f62:	4a96      	ldr	r2, [pc, #600]	; (80061bc <keyb_proc+0x12ac>)
 8005f64:	7813      	ldrb	r3, [r2, #0]
 8005f66:	f043 0302 	orr.w	r3, r3, #2
 8005f6a:	7013      	strb	r3, [r2, #0]
 8005f6c:	2104      	movs	r1, #4
 8005f6e:	488d      	ldr	r0, [pc, #564]	; (80061a4 <keyb_proc+0x1294>)
 8005f70:	f7fb f8ab 	bl	80010ca <GPIO_ResetBits>
 8005f74:	4b8f      	ldr	r3, [pc, #572]	; (80061b4 <keyb_proc+0x12a4>)
 8005f76:	781b      	ldrb	r3, [r3, #0]
 8005f78:	b2db      	uxtb	r3, r3
 8005f7a:	4a89      	ldr	r2, [pc, #548]	; (80061a0 <keyb_proc+0x1290>)
 8005f7c:	3320      	adds	r3, #32
 8005f7e:	00db      	lsls	r3, r3, #3
 8005f80:	4413      	add	r3, r2
 8005f82:	685b      	ldr	r3, [r3, #4]
 8005f84:	f3c3 23c0 	ubfx	r3, r3, #11, #1
 8005f88:	b2db      	uxtb	r3, r3
 8005f8a:	2b00      	cmp	r3, #0
 8005f8c:	d003      	beq.n	8005f96 <keyb_proc+0x1086>
 8005f8e:	2108      	movs	r1, #8
 8005f90:	4884      	ldr	r0, [pc, #528]	; (80061a4 <keyb_proc+0x1294>)
 8005f92:	f7fb f89a 	bl	80010ca <GPIO_ResetBits>
 8005f96:	4b87      	ldr	r3, [pc, #540]	; (80061b4 <keyb_proc+0x12a4>)
 8005f98:	781b      	ldrb	r3, [r3, #0]
 8005f9a:	b2db      	uxtb	r3, r3
 8005f9c:	4a80      	ldr	r2, [pc, #512]	; (80061a0 <keyb_proc+0x1290>)
 8005f9e:	3320      	adds	r3, #32
 8005fa0:	00db      	lsls	r3, r3, #3
 8005fa2:	4413      	add	r3, r2
 8005fa4:	685b      	ldr	r3, [r3, #4]
 8005fa6:	f3c3 3300 	ubfx	r3, r3, #12, #1
 8005faa:	b2db      	uxtb	r3, r3
 8005fac:	2b00      	cmp	r3, #0
 8005fae:	d004      	beq.n	8005fba <keyb_proc+0x10aa>
 8005fb0:	f44f 5180 	mov.w	r1, #4096	; 0x1000
 8005fb4:	487b      	ldr	r0, [pc, #492]	; (80061a4 <keyb_proc+0x1294>)
 8005fb6:	f7fb f888 	bl	80010ca <GPIO_ResetBits>
 8005fba:	2101      	movs	r1, #1
 8005fbc:	487a      	ldr	r0, [pc, #488]	; (80061a8 <keyb_proc+0x1298>)
 8005fbe:	f7fb fa2a 	bl	8001416 <TIM_Cmd>
 8005fc2:	2100      	movs	r1, #0
 8005fc4:	4878      	ldr	r0, [pc, #480]	; (80061a8 <keyb_proc+0x1298>)
 8005fc6:	f7fb fa19 	bl	80013fc <TIM_SetCounter>
 8005fca:	687b      	ldr	r3, [r7, #4]
 8005fcc:	795b      	ldrb	r3, [r3, #5]
 8005fce:	f003 0320 	and.w	r3, r3, #32
 8005fd2:	b2db      	uxtb	r3, r3
 8005fd4:	2b00      	cmp	r3, #0
 8005fd6:	d115      	bne.n	8006004 <keyb_proc+0x10f4>
 8005fd8:	4b79      	ldr	r3, [pc, #484]	; (80061c0 <keyb_proc+0x12b0>)
 8005fda:	781b      	ldrb	r3, [r3, #0]
 8005fdc:	b2db      	uxtb	r3, r3
 8005fde:	2b01      	cmp	r3, #1
 8005fe0:	d027      	beq.n	8006032 <keyb_proc+0x1122>
 8005fe2:	4b77      	ldr	r3, [pc, #476]	; (80061c0 <keyb_proc+0x12b0>)
 8005fe4:	781b      	ldrb	r3, [r3, #0]
 8005fe6:	b2da      	uxtb	r2, r3
 8005fe8:	4b76      	ldr	r3, [pc, #472]	; (80061c4 <keyb_proc+0x12b4>)
 8005fea:	701a      	strb	r2, [r3, #0]
 8005fec:	4b74      	ldr	r3, [pc, #464]	; (80061c0 <keyb_proc+0x12b0>)
 8005fee:	2201      	movs	r2, #1
 8005ff0:	701a      	strb	r2, [r3, #0]
 8005ff2:	4a72      	ldr	r2, [pc, #456]	; (80061bc <keyb_proc+0x12ac>)
 8005ff4:	7813      	ldrb	r3, [r2, #0]
 8005ff6:	f043 0301 	orr.w	r3, r3, #1
 8005ffa:	7013      	strb	r3, [r2, #0]
 8005ffc:	4b72      	ldr	r3, [pc, #456]	; (80061c8 <keyb_proc+0x12b8>)
 8005ffe:	2200      	movs	r2, #0
 8006000:	701a      	strb	r2, [r3, #0]
 8006002:	e016      	b.n	8006032 <keyb_proc+0x1122>
 8006004:	4b6e      	ldr	r3, [pc, #440]	; (80061c0 <keyb_proc+0x12b0>)
 8006006:	781b      	ldrb	r3, [r3, #0]
 8006008:	b2db      	uxtb	r3, r3
 800600a:	2b01      	cmp	r3, #1
 800600c:	d111      	bne.n	8006032 <keyb_proc+0x1122>
 800600e:	4b6d      	ldr	r3, [pc, #436]	; (80061c4 <keyb_proc+0x12b4>)
 8006010:	781b      	ldrb	r3, [r3, #0]
 8006012:	b2da      	uxtb	r2, r3
 8006014:	4b6a      	ldr	r3, [pc, #424]	; (80061c0 <keyb_proc+0x12b0>)
 8006016:	701a      	strb	r2, [r3, #0]
 8006018:	4a68      	ldr	r2, [pc, #416]	; (80061bc <keyb_proc+0x12ac>)
 800601a:	7813      	ldrb	r3, [r2, #0]
 800601c:	f043 0301 	orr.w	r3, r3, #1
 8006020:	7013      	strb	r3, [r2, #0]
 8006022:	4a66      	ldr	r2, [pc, #408]	; (80061bc <keyb_proc+0x12ac>)
 8006024:	7813      	ldrb	r3, [r2, #0]
 8006026:	f043 0302 	orr.w	r3, r3, #2
 800602a:	7013      	strb	r3, [r2, #0]
 800602c:	4b66      	ldr	r3, [pc, #408]	; (80061c8 <keyb_proc+0x12b8>)
 800602e:	2200      	movs	r2, #0
 8006030:	701a      	strb	r2, [r3, #0]
 8006032:	687b      	ldr	r3, [r7, #4]
 8006034:	78db      	ldrb	r3, [r3, #3]
 8006036:	f003 0304 	and.w	r3, r3, #4
 800603a:	b2db      	uxtb	r3, r3
 800603c:	2b00      	cmp	r3, #0
 800603e:	d115      	bne.n	800606c <keyb_proc+0x115c>
 8006040:	4b62      	ldr	r3, [pc, #392]	; (80061cc <keyb_proc+0x12bc>)
 8006042:	781b      	ldrb	r3, [r3, #0]
 8006044:	b2db      	uxtb	r3, r3
 8006046:	2b01      	cmp	r3, #1
 8006048:	d027      	beq.n	800609a <keyb_proc+0x118a>
 800604a:	4b60      	ldr	r3, [pc, #384]	; (80061cc <keyb_proc+0x12bc>)
 800604c:	781b      	ldrb	r3, [r3, #0]
 800604e:	b2da      	uxtb	r2, r3
 8006050:	4b5f      	ldr	r3, [pc, #380]	; (80061d0 <keyb_proc+0x12c0>)
 8006052:	701a      	strb	r2, [r3, #0]
 8006054:	4b5d      	ldr	r3, [pc, #372]	; (80061cc <keyb_proc+0x12bc>)
 8006056:	2201      	movs	r2, #1
 8006058:	701a      	strb	r2, [r3, #0]
 800605a:	4a58      	ldr	r2, [pc, #352]	; (80061bc <keyb_proc+0x12ac>)
 800605c:	7813      	ldrb	r3, [r2, #0]
 800605e:	f043 0301 	orr.w	r3, r3, #1
 8006062:	7013      	strb	r3, [r2, #0]
 8006064:	4b58      	ldr	r3, [pc, #352]	; (80061c8 <keyb_proc+0x12b8>)
 8006066:	2200      	movs	r2, #0
 8006068:	701a      	strb	r2, [r3, #0]
 800606a:	e016      	b.n	800609a <keyb_proc+0x118a>
 800606c:	4b57      	ldr	r3, [pc, #348]	; (80061cc <keyb_proc+0x12bc>)
 800606e:	781b      	ldrb	r3, [r3, #0]
 8006070:	b2db      	uxtb	r3, r3
 8006072:	2b01      	cmp	r3, #1
 8006074:	d111      	bne.n	800609a <keyb_proc+0x118a>
 8006076:	4b56      	ldr	r3, [pc, #344]	; (80061d0 <keyb_proc+0x12c0>)
 8006078:	781b      	ldrb	r3, [r3, #0]
 800607a:	b2da      	uxtb	r2, r3
 800607c:	4b53      	ldr	r3, [pc, #332]	; (80061cc <keyb_proc+0x12bc>)
 800607e:	701a      	strb	r2, [r3, #0]
 8006080:	4a4e      	ldr	r2, [pc, #312]	; (80061bc <keyb_proc+0x12ac>)
 8006082:	7813      	ldrb	r3, [r2, #0]
 8006084:	f043 0301 	orr.w	r3, r3, #1
 8006088:	7013      	strb	r3, [r2, #0]
 800608a:	4a4c      	ldr	r2, [pc, #304]	; (80061bc <keyb_proc+0x12ac>)
 800608c:	7813      	ldrb	r3, [r2, #0]
 800608e:	f043 0302 	orr.w	r3, r3, #2
 8006092:	7013      	strb	r3, [r2, #0]
 8006094:	4b4c      	ldr	r3, [pc, #304]	; (80061c8 <keyb_proc+0x12b8>)
 8006096:	2200      	movs	r2, #0
 8006098:	701a      	strb	r2, [r3, #0]
 800609a:	687b      	ldr	r3, [r7, #4]
 800609c:	795b      	ldrb	r3, [r3, #5]
 800609e:	f003 0301 	and.w	r3, r3, #1
 80060a2:	b2db      	uxtb	r3, r3
 80060a4:	2b00      	cmp	r3, #0
 80060a6:	f040 809f 	bne.w	80061e8 <keyb_proc+0x12d8>
 80060aa:	4b4a      	ldr	r3, [pc, #296]	; (80061d4 <keyb_proc+0x12c4>)
 80060ac:	781b      	ldrb	r3, [r3, #0]
 80060ae:	b2db      	uxtb	r3, r3
 80060b0:	3301      	adds	r3, #1
 80060b2:	b2da      	uxtb	r2, r3
 80060b4:	4b47      	ldr	r3, [pc, #284]	; (80061d4 <keyb_proc+0x12c4>)
 80060b6:	701a      	strb	r2, [r3, #0]
 80060b8:	4b41      	ldr	r3, [pc, #260]	; (80061c0 <keyb_proc+0x12b0>)
 80060ba:	781b      	ldrb	r3, [r3, #0]
 80060bc:	b2db      	uxtb	r3, r3
 80060be:	2b01      	cmp	r3, #1
 80060c0:	f000 8095 	beq.w	80061ee <keyb_proc+0x12de>
 80060c4:	4b3e      	ldr	r3, [pc, #248]	; (80061c0 <keyb_proc+0x12b0>)
 80060c6:	781b      	ldrb	r3, [r3, #0]
 80060c8:	b2db      	uxtb	r3, r3
 80060ca:	2b00      	cmp	r3, #0
 80060cc:	d118      	bne.n	8006100 <keyb_proc+0x11f0>
 80060ce:	4b33      	ldr	r3, [pc, #204]	; (800619c <keyb_proc+0x128c>)
 80060d0:	781b      	ldrb	r3, [r3, #0]
 80060d2:	b2db      	uxtb	r3, r3
 80060d4:	4619      	mov	r1, r3
 80060d6:	2000      	movs	r0, #0
 80060d8:	f7fd fa22 	bl	8003520 <GetStepVoltage>
 80060dc:	4602      	mov	r2, r0
 80060de:	4b3e      	ldr	r3, [pc, #248]	; (80061d8 <keyb_proc+0x12c8>)
 80060e0:	601a      	str	r2, [r3, #0]
 80060e2:	4b2e      	ldr	r3, [pc, #184]	; (800619c <keyb_proc+0x128c>)
 80060e4:	781b      	ldrb	r3, [r3, #0]
 80060e6:	b2db      	uxtb	r3, r3
 80060e8:	4619      	mov	r1, r3
 80060ea:	2000      	movs	r0, #0
 80060ec:	f7fd fc1a 	bl	8003924 <GetNextStep>
 80060f0:	4603      	mov	r3, r0
 80060f2:	461a      	mov	r2, r3
 80060f4:	4b29      	ldr	r3, [pc, #164]	; (800619c <keyb_proc+0x128c>)
 80060f6:	701a      	strb	r2, [r3, #0]
 80060f8:	4b38      	ldr	r3, [pc, #224]	; (80061dc <keyb_proc+0x12cc>)
 80060fa:	2200      	movs	r2, #0
 80060fc:	601a      	str	r2, [r3, #0]
 80060fe:	e019      	b.n	8006134 <keyb_proc+0x1224>
 8006100:	4b2f      	ldr	r3, [pc, #188]	; (80061c0 <keyb_proc+0x12b0>)
 8006102:	781b      	ldrb	r3, [r3, #0]
 8006104:	b2db      	uxtb	r3, r3
 8006106:	2b05      	cmp	r3, #5
 8006108:	d009      	beq.n	800611e <keyb_proc+0x120e>
 800610a:	4b2d      	ldr	r3, [pc, #180]	; (80061c0 <keyb_proc+0x12b0>)
 800610c:	781b      	ldrb	r3, [r3, #0]
 800610e:	b2db      	uxtb	r3, r3
 8006110:	2b04      	cmp	r3, #4
 8006112:	d004      	beq.n	800611e <keyb_proc+0x120e>
 8006114:	4b2a      	ldr	r3, [pc, #168]	; (80061c0 <keyb_proc+0x12b0>)
 8006116:	781b      	ldrb	r3, [r3, #0]
 8006118:	b2da      	uxtb	r2, r3
 800611a:	4b2a      	ldr	r3, [pc, #168]	; (80061c4 <keyb_proc+0x12b4>)
 800611c:	701a      	strb	r2, [r3, #0]
 800611e:	4b1f      	ldr	r3, [pc, #124]	; (800619c <keyb_proc+0x128c>)
 8006120:	781b      	ldrb	r3, [r3, #0]
 8006122:	b2db      	uxtb	r3, r3
 8006124:	4619      	mov	r1, r3
 8006126:	2000      	movs	r0, #0
 8006128:	f7fd fbfc 	bl	8003924 <GetNextStep>
 800612c:	4603      	mov	r3, r0
 800612e:	461a      	mov	r2, r3
 8006130:	4b1a      	ldr	r3, [pc, #104]	; (800619c <keyb_proc+0x128c>)
 8006132:	701a      	strb	r2, [r3, #0]
 8006134:	4b22      	ldr	r3, [pc, #136]	; (80061c0 <keyb_proc+0x12b0>)
 8006136:	2202      	movs	r2, #2
 8006138:	701a      	strb	r2, [r3, #0]
 800613a:	f44f 7100 	mov.w	r1, #512	; 0x200
 800613e:	4828      	ldr	r0, [pc, #160]	; (80061e0 <keyb_proc+0x12d0>)
 8006140:	f7fa ffc3 	bl	80010ca <GPIO_ResetBits>
 8006144:	4b15      	ldr	r3, [pc, #84]	; (800619c <keyb_proc+0x128c>)
 8006146:	781b      	ldrb	r3, [r3, #0]
 8006148:	b2db      	uxtb	r3, r3
 800614a:	4a15      	ldr	r2, [pc, #84]	; (80061a0 <keyb_proc+0x1290>)
 800614c:	00db      	lsls	r3, r3, #3
 800614e:	4413      	add	r3, r2
 8006150:	685b      	ldr	r3, [r3, #4]
 8006152:	f3c3 23c0 	ubfx	r3, r3, #11, #1
 8006156:	b2db      	uxtb	r3, r3
 8006158:	2b00      	cmp	r3, #0
 800615a:	d004      	beq.n	8006166 <keyb_proc+0x1256>
 800615c:	f44f 6100 	mov.w	r1, #2048	; 0x800
 8006160:	481f      	ldr	r0, [pc, #124]	; (80061e0 <keyb_proc+0x12d0>)
 8006162:	f7fa ffb2 	bl	80010ca <GPIO_ResetBits>
 8006166:	4b0d      	ldr	r3, [pc, #52]	; (800619c <keyb_proc+0x128c>)
 8006168:	781b      	ldrb	r3, [r3, #0]
 800616a:	b2db      	uxtb	r3, r3
 800616c:	4a0c      	ldr	r2, [pc, #48]	; (80061a0 <keyb_proc+0x1290>)
 800616e:	00db      	lsls	r3, r3, #3
 8006170:	4413      	add	r3, r2
 8006172:	685b      	ldr	r3, [r3, #4]
 8006174:	f3c3 3300 	ubfx	r3, r3, #12, #1
 8006178:	b2db      	uxtb	r3, r3
 800617a:	2b00      	cmp	r3, #0
 800617c:	d004      	beq.n	8006188 <keyb_proc+0x1278>
 800617e:	f44f 6180 	mov.w	r1, #1024	; 0x400
 8006182:	4817      	ldr	r0, [pc, #92]	; (80061e0 <keyb_proc+0x12d0>)
 8006184:	f7fa ffa1 	bl	80010ca <GPIO_ResetBits>
 8006188:	2101      	movs	r1, #1
 800618a:	4816      	ldr	r0, [pc, #88]	; (80061e4 <keyb_proc+0x12d4>)
 800618c:	f7fb f943 	bl	8001416 <TIM_Cmd>
 8006190:	2100      	movs	r1, #0
 8006192:	4814      	ldr	r0, [pc, #80]	; (80061e4 <keyb_proc+0x12d4>)
 8006194:	f7fb f932 	bl	80013fc <TIM_SetCounter>
 8006198:	e029      	b.n	80061ee <keyb_proc+0x12de>
 800619a:	bf00      	nop
 800619c:	20000297 	.word	0x20000297
 80061a0:	20000948 	.word	0x20000948
 80061a4:	40020000 	.word	0x40020000
 80061a8:	40010400 	.word	0x40010400
 80061ac:	200002bd 	.word	0x200002bd
 80061b0:	20000270 	.word	0x20000270
 80061b4:	20000298 	.word	0x20000298
 80061b8:	20000296 	.word	0x20000296
 80061bc:	200002e0 	.word	0x200002e0
 80061c0:	200002ad 	.word	0x200002ad
 80061c4:	200002af 	.word	0x200002af
 80061c8:	200002b1 	.word	0x200002b1
 80061cc:	200002ae 	.word	0x200002ae
 80061d0:	200002b0 	.word	0x200002b0
 80061d4:	200002c8 	.word	0x200002c8
 80061d8:	200002b4 	.word	0x200002b4
 80061dc:	200002a4 	.word	0x200002a4
 80061e0:	40020400 	.word	0x40020400
 80061e4:	40002000 	.word	0x40002000
 80061e8:	4b51      	ldr	r3, [pc, #324]	; (8006330 <keyb_proc+0x1420>)
 80061ea:	2200      	movs	r2, #0
 80061ec:	701a      	strb	r2, [r3, #0]
 80061ee:	687b      	ldr	r3, [r7, #4]
 80061f0:	795b      	ldrb	r3, [r3, #5]
 80061f2:	f003 0308 	and.w	r3, r3, #8
 80061f6:	b2db      	uxtb	r3, r3
 80061f8:	2b00      	cmp	r3, #0
 80061fa:	d176      	bne.n	80062ea <keyb_proc+0x13da>
 80061fc:	4b4d      	ldr	r3, [pc, #308]	; (8006334 <keyb_proc+0x1424>)
 80061fe:	781b      	ldrb	r3, [r3, #0]
 8006200:	b2db      	uxtb	r3, r3
 8006202:	3301      	adds	r3, #1
 8006204:	b2da      	uxtb	r2, r3
 8006206:	4b4b      	ldr	r3, [pc, #300]	; (8006334 <keyb_proc+0x1424>)
 8006208:	701a      	strb	r2, [r3, #0]
 800620a:	4b4b      	ldr	r3, [pc, #300]	; (8006338 <keyb_proc+0x1428>)
 800620c:	781b      	ldrb	r3, [r3, #0]
 800620e:	b2db      	uxtb	r3, r3
 8006210:	2b01      	cmp	r3, #1
 8006212:	d06d      	beq.n	80062f0 <keyb_proc+0x13e0>
 8006214:	4b48      	ldr	r3, [pc, #288]	; (8006338 <keyb_proc+0x1428>)
 8006216:	781b      	ldrb	r3, [r3, #0]
 8006218:	b2db      	uxtb	r3, r3
 800621a:	2b00      	cmp	r3, #0
 800621c:	d118      	bne.n	8006250 <keyb_proc+0x1340>
 800621e:	4b47      	ldr	r3, [pc, #284]	; (800633c <keyb_proc+0x142c>)
 8006220:	781b      	ldrb	r3, [r3, #0]
 8006222:	b2db      	uxtb	r3, r3
 8006224:	4619      	mov	r1, r3
 8006226:	2001      	movs	r0, #1
 8006228:	f7fd f97a 	bl	8003520 <GetStepVoltage>
 800622c:	4602      	mov	r2, r0
 800622e:	4b44      	ldr	r3, [pc, #272]	; (8006340 <keyb_proc+0x1430>)
 8006230:	601a      	str	r2, [r3, #0]
 8006232:	4b42      	ldr	r3, [pc, #264]	; (800633c <keyb_proc+0x142c>)
 8006234:	781b      	ldrb	r3, [r3, #0]
 8006236:	b2db      	uxtb	r3, r3
 8006238:	4619      	mov	r1, r3
 800623a:	2001      	movs	r0, #1
 800623c:	f7fd fb72 	bl	8003924 <GetNextStep>
 8006240:	4603      	mov	r3, r0
 8006242:	461a      	mov	r2, r3
 8006244:	4b3d      	ldr	r3, [pc, #244]	; (800633c <keyb_proc+0x142c>)
 8006246:	701a      	strb	r2, [r3, #0]
 8006248:	4b3e      	ldr	r3, [pc, #248]	; (8006344 <keyb_proc+0x1434>)
 800624a:	2200      	movs	r2, #0
 800624c:	601a      	str	r2, [r3, #0]
 800624e:	e019      	b.n	8006284 <keyb_proc+0x1374>
 8006250:	4b39      	ldr	r3, [pc, #228]	; (8006338 <keyb_proc+0x1428>)
 8006252:	781b      	ldrb	r3, [r3, #0]
 8006254:	b2db      	uxtb	r3, r3
 8006256:	2b05      	cmp	r3, #5
 8006258:	d009      	beq.n	800626e <keyb_proc+0x135e>
 800625a:	4b37      	ldr	r3, [pc, #220]	; (8006338 <keyb_proc+0x1428>)
 800625c:	781b      	ldrb	r3, [r3, #0]
 800625e:	b2db      	uxtb	r3, r3
 8006260:	2b04      	cmp	r3, #4
 8006262:	d004      	beq.n	800626e <keyb_proc+0x135e>
 8006264:	4b34      	ldr	r3, [pc, #208]	; (8006338 <keyb_proc+0x1428>)
 8006266:	781b      	ldrb	r3, [r3, #0]
 8006268:	b2da      	uxtb	r2, r3
 800626a:	4b37      	ldr	r3, [pc, #220]	; (8006348 <keyb_proc+0x1438>)
 800626c:	701a      	strb	r2, [r3, #0]
 800626e:	4b33      	ldr	r3, [pc, #204]	; (800633c <keyb_proc+0x142c>)
 8006270:	781b      	ldrb	r3, [r3, #0]
 8006272:	b2db      	uxtb	r3, r3
 8006274:	4619      	mov	r1, r3
 8006276:	2001      	movs	r0, #1
 8006278:	f7fd fb54 	bl	8003924 <GetNextStep>
 800627c:	4603      	mov	r3, r0
 800627e:	461a      	mov	r2, r3
 8006280:	4b2e      	ldr	r3, [pc, #184]	; (800633c <keyb_proc+0x142c>)
 8006282:	701a      	strb	r2, [r3, #0]
 8006284:	4b2c      	ldr	r3, [pc, #176]	; (8006338 <keyb_proc+0x1428>)
 8006286:	2202      	movs	r2, #2
 8006288:	701a      	strb	r2, [r3, #0]
 800628a:	2104      	movs	r1, #4
 800628c:	482f      	ldr	r0, [pc, #188]	; (800634c <keyb_proc+0x143c>)
 800628e:	f7fa ff1c 	bl	80010ca <GPIO_ResetBits>
 8006292:	4b2a      	ldr	r3, [pc, #168]	; (800633c <keyb_proc+0x142c>)
 8006294:	781b      	ldrb	r3, [r3, #0]
 8006296:	b2db      	uxtb	r3, r3
 8006298:	4a2d      	ldr	r2, [pc, #180]	; (8006350 <keyb_proc+0x1440>)
 800629a:	3320      	adds	r3, #32
 800629c:	00db      	lsls	r3, r3, #3
 800629e:	4413      	add	r3, r2
 80062a0:	685b      	ldr	r3, [r3, #4]
 80062a2:	f3c3 23c0 	ubfx	r3, r3, #11, #1
 80062a6:	b2db      	uxtb	r3, r3
 80062a8:	2b00      	cmp	r3, #0
 80062aa:	d003      	beq.n	80062b4 <keyb_proc+0x13a4>
 80062ac:	2108      	movs	r1, #8
 80062ae:	4827      	ldr	r0, [pc, #156]	; (800634c <keyb_proc+0x143c>)
 80062b0:	f7fa ff0b 	bl	80010ca <GPIO_ResetBits>
 80062b4:	4b21      	ldr	r3, [pc, #132]	; (800633c <keyb_proc+0x142c>)
 80062b6:	781b      	ldrb	r3, [r3, #0]
 80062b8:	b2db      	uxtb	r3, r3
 80062ba:	4a25      	ldr	r2, [pc, #148]	; (8006350 <keyb_proc+0x1440>)
 80062bc:	3320      	adds	r3, #32
 80062be:	00db      	lsls	r3, r3, #3
 80062c0:	4413      	add	r3, r2
 80062c2:	685b      	ldr	r3, [r3, #4]
 80062c4:	f3c3 3300 	ubfx	r3, r3, #12, #1
 80062c8:	b2db      	uxtb	r3, r3
 80062ca:	2b00      	cmp	r3, #0
 80062cc:	d004      	beq.n	80062d8 <keyb_proc+0x13c8>
 80062ce:	f44f 5180 	mov.w	r1, #4096	; 0x1000
 80062d2:	481e      	ldr	r0, [pc, #120]	; (800634c <keyb_proc+0x143c>)
 80062d4:	f7fa fef9 	bl	80010ca <GPIO_ResetBits>
 80062d8:	2101      	movs	r1, #1
 80062da:	481e      	ldr	r0, [pc, #120]	; (8006354 <keyb_proc+0x1444>)
 80062dc:	f7fb f89b 	bl	8001416 <TIM_Cmd>
 80062e0:	2100      	movs	r1, #0
 80062e2:	481c      	ldr	r0, [pc, #112]	; (8006354 <keyb_proc+0x1444>)
 80062e4:	f7fb f88a 	bl	80013fc <TIM_SetCounter>
 80062e8:	e002      	b.n	80062f0 <keyb_proc+0x13e0>
 80062ea:	4b12      	ldr	r3, [pc, #72]	; (8006334 <keyb_proc+0x1424>)
 80062ec:	2200      	movs	r2, #0
 80062ee:	701a      	strb	r2, [r3, #0]
 80062f0:	4b19      	ldr	r3, [pc, #100]	; (8006358 <keyb_proc+0x1448>)
 80062f2:	781b      	ldrb	r3, [r3, #0]
 80062f4:	b2db      	uxtb	r3, r3
 80062f6:	2b00      	cmp	r3, #0
 80062f8:	d112      	bne.n	8006320 <keyb_proc+0x1410>
 80062fa:	7dba      	ldrb	r2, [r7, #22]
 80062fc:	7dfb      	ldrb	r3, [r7, #23]
 80062fe:	4914      	ldr	r1, [pc, #80]	; (8006350 <keyb_proc+0x1440>)
 8006300:	0152      	lsls	r2, r2, #5
 8006302:	4413      	add	r3, r2
 8006304:	00db      	lsls	r3, r3, #3
 8006306:	440b      	add	r3, r1
 8006308:	f107 020c 	add.w	r2, r7, #12
 800630c:	e892 0003 	ldmia.w	r2, {r0, r1}
 8006310:	e883 0003 	stmia.w	r3, {r0, r1}
 8006314:	4a11      	ldr	r2, [pc, #68]	; (800635c <keyb_proc+0x144c>)
 8006316:	7813      	ldrb	r3, [r2, #0]
 8006318:	f043 0301 	orr.w	r3, r3, #1
 800631c:	7013      	strb	r3, [r2, #0]
 800631e:	e002      	b.n	8006326 <keyb_proc+0x1416>
 8006320:	4b0d      	ldr	r3, [pc, #52]	; (8006358 <keyb_proc+0x1448>)
 8006322:	2200      	movs	r2, #0
 8006324:	701a      	strb	r2, [r3, #0]
 8006326:	2301      	movs	r3, #1
 8006328:	4618      	mov	r0, r3
 800632a:	3718      	adds	r7, #24
 800632c:	46bd      	mov	sp, r7
 800632e:	bd80      	pop	{r7, pc}
 8006330:	200002c8 	.word	0x200002c8
 8006334:	200002c9 	.word	0x200002c9
 8006338:	200002ae 	.word	0x200002ae
 800633c:	20000298 	.word	0x20000298
 8006340:	200002b8 	.word	0x200002b8
 8006344:	200002a8 	.word	0x200002a8
 8006348:	200002b0 	.word	0x200002b0
 800634c:	40020000 	.word	0x40020000
 8006350:	20000948 	.word	0x20000948
 8006354:	40010400 	.word	0x40010400
 8006358:	200002b2 	.word	0x200002b2
 800635c:	200002e0 	.word	0x200002e0

08006360 <UpdateModeSection>:
 8006360:	b580      	push	{r7, lr}
 8006362:	b084      	sub	sp, #16
 8006364:	af00      	add	r7, sp, #0
 8006366:	2300      	movs	r3, #0
 8006368:	73fb      	strb	r3, [r7, #15]
 800636a:	2300      	movs	r3, #0
 800636c:	73bb      	strb	r3, [r7, #14]
 800636e:	23ff      	movs	r3, #255	; 0xff
 8006370:	713b      	strb	r3, [r7, #4]
 8006372:	23ff      	movs	r3, #255	; 0xff
 8006374:	717b      	strb	r3, [r7, #5]
 8006376:	23ff      	movs	r3, #255	; 0xff
 8006378:	71bb      	strb	r3, [r7, #6]
 800637a:	23ff      	movs	r3, #255	; 0xff
 800637c:	71fb      	strb	r3, [r7, #7]
 800637e:	4b7c      	ldr	r3, [pc, #496]	; (8006570 <UpdateModeSection+0x210>)
 8006380:	781b      	ldrb	r3, [r3, #0]
 8006382:	b2db      	uxtb	r3, r3
 8006384:	2b00      	cmp	r3, #0
 8006386:	d004      	beq.n	8006392 <UpdateModeSection+0x32>
 8006388:	4b79      	ldr	r3, [pc, #484]	; (8006570 <UpdateModeSection+0x210>)
 800638a:	781b      	ldrb	r3, [r3, #0]
 800638c:	b2db      	uxtb	r3, r3
 800638e:	2b06      	cmp	r3, #6
 8006390:	d103      	bne.n	800639a <UpdateModeSection+0x3a>
 8006392:	793b      	ldrb	r3, [r7, #4]
 8006394:	f36f 0382 	bfc	r3, #2, #1
 8006398:	713b      	strb	r3, [r7, #4]
 800639a:	4b75      	ldr	r3, [pc, #468]	; (8006570 <UpdateModeSection+0x210>)
 800639c:	781b      	ldrb	r3, [r3, #0]
 800639e:	b2db      	uxtb	r3, r3
 80063a0:	2b01      	cmp	r3, #1
 80063a2:	d009      	beq.n	80063b8 <UpdateModeSection+0x58>
 80063a4:	4b72      	ldr	r3, [pc, #456]	; (8006570 <UpdateModeSection+0x210>)
 80063a6:	781b      	ldrb	r3, [r3, #0]
 80063a8:	b2db      	uxtb	r3, r3
 80063aa:	2b04      	cmp	r3, #4
 80063ac:	d004      	beq.n	80063b8 <UpdateModeSection+0x58>
 80063ae:	4b70      	ldr	r3, [pc, #448]	; (8006570 <UpdateModeSection+0x210>)
 80063b0:	781b      	ldrb	r3, [r3, #0]
 80063b2:	b2db      	uxtb	r3, r3
 80063b4:	2b05      	cmp	r3, #5
 80063b6:	d103      	bne.n	80063c0 <UpdateModeSection+0x60>
 80063b8:	793b      	ldrb	r3, [r7, #4]
 80063ba:	f36f 0341 	bfc	r3, #1, #1
 80063be:	713b      	strb	r3, [r7, #4]
 80063c0:	4b6b      	ldr	r3, [pc, #428]	; (8006570 <UpdateModeSection+0x210>)
 80063c2:	781b      	ldrb	r3, [r3, #0]
 80063c4:	b2db      	uxtb	r3, r3
 80063c6:	2b02      	cmp	r3, #2
 80063c8:	d103      	bne.n	80063d2 <UpdateModeSection+0x72>
 80063ca:	793b      	ldrb	r3, [r7, #4]
 80063cc:	f36f 0300 	bfc	r3, #0, #1
 80063d0:	713b      	strb	r3, [r7, #4]
 80063d2:	4b68      	ldr	r3, [pc, #416]	; (8006574 <UpdateModeSection+0x214>)
 80063d4:	781b      	ldrb	r3, [r3, #0]
 80063d6:	b2db      	uxtb	r3, r3
 80063d8:	2b00      	cmp	r3, #0
 80063da:	d004      	beq.n	80063e6 <UpdateModeSection+0x86>
 80063dc:	4b65      	ldr	r3, [pc, #404]	; (8006574 <UpdateModeSection+0x214>)
 80063de:	781b      	ldrb	r3, [r3, #0]
 80063e0:	b2db      	uxtb	r3, r3
 80063e2:	2b06      	cmp	r3, #6
 80063e4:	d103      	bne.n	80063ee <UpdateModeSection+0x8e>
 80063e6:	793b      	ldrb	r3, [r7, #4]
 80063e8:	f36f 1345 	bfc	r3, #5, #1
 80063ec:	713b      	strb	r3, [r7, #4]
 80063ee:	4b61      	ldr	r3, [pc, #388]	; (8006574 <UpdateModeSection+0x214>)
 80063f0:	781b      	ldrb	r3, [r3, #0]
 80063f2:	b2db      	uxtb	r3, r3
 80063f4:	2b01      	cmp	r3, #1
 80063f6:	d009      	beq.n	800640c <UpdateModeSection+0xac>
 80063f8:	4b5e      	ldr	r3, [pc, #376]	; (8006574 <UpdateModeSection+0x214>)
 80063fa:	781b      	ldrb	r3, [r3, #0]
 80063fc:	b2db      	uxtb	r3, r3
 80063fe:	2b04      	cmp	r3, #4
 8006400:	d004      	beq.n	800640c <UpdateModeSection+0xac>
 8006402:	4b5c      	ldr	r3, [pc, #368]	; (8006574 <UpdateModeSection+0x214>)
 8006404:	781b      	ldrb	r3, [r3, #0]
 8006406:	b2db      	uxtb	r3, r3
 8006408:	2b05      	cmp	r3, #5
 800640a:	d103      	bne.n	8006414 <UpdateModeSection+0xb4>
 800640c:	793b      	ldrb	r3, [r7, #4]
 800640e:	f36f 1304 	bfc	r3, #4, #1
 8006412:	713b      	strb	r3, [r7, #4]
 8006414:	4b57      	ldr	r3, [pc, #348]	; (8006574 <UpdateModeSection+0x214>)
 8006416:	781b      	ldrb	r3, [r3, #0]
 8006418:	b2db      	uxtb	r3, r3
 800641a:	2b02      	cmp	r3, #2
 800641c:	d103      	bne.n	8006426 <UpdateModeSection+0xc6>
 800641e:	793b      	ldrb	r3, [r7, #4]
 8006420:	f36f 03c3 	bfc	r3, #3, #1
 8006424:	713b      	strb	r3, [r7, #4]
 8006426:	4b54      	ldr	r3, [pc, #336]	; (8006578 <UpdateModeSection+0x218>)
 8006428:	781b      	ldrb	r3, [r3, #0]
 800642a:	b2db      	uxtb	r3, r3
 800642c:	2b00      	cmp	r3, #0
 800642e:	d104      	bne.n	800643a <UpdateModeSection+0xda>
 8006430:	4b52      	ldr	r3, [pc, #328]	; (800657c <UpdateModeSection+0x21c>)
 8006432:	781b      	ldrb	r3, [r3, #0]
 8006434:	73fb      	strb	r3, [r7, #15]
 8006436:	2300      	movs	r3, #0
 8006438:	73bb      	strb	r3, [r7, #14]
 800643a:	4b4f      	ldr	r3, [pc, #316]	; (8006578 <UpdateModeSection+0x218>)
 800643c:	781b      	ldrb	r3, [r3, #0]
 800643e:	b2db      	uxtb	r3, r3
 8006440:	2b01      	cmp	r3, #1
 8006442:	d104      	bne.n	800644e <UpdateModeSection+0xee>
 8006444:	4b4e      	ldr	r3, [pc, #312]	; (8006580 <UpdateModeSection+0x220>)
 8006446:	781b      	ldrb	r3, [r3, #0]
 8006448:	73fb      	strb	r3, [r7, #15]
 800644a:	2301      	movs	r3, #1
 800644c:	73bb      	strb	r3, [r7, #14]
 800644e:	4b4a      	ldr	r3, [pc, #296]	; (8006578 <UpdateModeSection+0x218>)
 8006450:	781b      	ldrb	r3, [r3, #0]
 8006452:	b2db      	uxtb	r3, r3
 8006454:	2b02      	cmp	r3, #2
 8006456:	d104      	bne.n	8006462 <UpdateModeSection+0x102>
 8006458:	4b4a      	ldr	r3, [pc, #296]	; (8006584 <UpdateModeSection+0x224>)
 800645a:	781b      	ldrb	r3, [r3, #0]
 800645c:	73fb      	strb	r3, [r7, #15]
 800645e:	2300      	movs	r3, #0
 8006460:	73bb      	strb	r3, [r7, #14]
 8006462:	4b45      	ldr	r3, [pc, #276]	; (8006578 <UpdateModeSection+0x218>)
 8006464:	781b      	ldrb	r3, [r3, #0]
 8006466:	b2db      	uxtb	r3, r3
 8006468:	2b03      	cmp	r3, #3
 800646a:	d104      	bne.n	8006476 <UpdateModeSection+0x116>
 800646c:	4b45      	ldr	r3, [pc, #276]	; (8006584 <UpdateModeSection+0x224>)
 800646e:	781b      	ldrb	r3, [r3, #0]
 8006470:	73fb      	strb	r3, [r7, #15]
 8006472:	2301      	movs	r3, #1
 8006474:	73bb      	strb	r3, [r7, #14]
 8006476:	7bba      	ldrb	r2, [r7, #14]
 8006478:	7bfb      	ldrb	r3, [r7, #15]
 800647a:	0152      	lsls	r2, r2, #5
 800647c:	4413      	add	r3, r2
 800647e:	00db      	lsls	r3, r3, #3
 8006480:	4a41      	ldr	r2, [pc, #260]	; (8006588 <UpdateModeSection+0x228>)
 8006482:	4413      	add	r3, r2
 8006484:	60bb      	str	r3, [r7, #8]
 8006486:	68bb      	ldr	r3, [r7, #8]
 8006488:	78db      	ldrb	r3, [r3, #3]
 800648a:	f3c3 0380 	ubfx	r3, r3, #2, #1
 800648e:	b2db      	uxtb	r3, r3
 8006490:	43db      	mvns	r3, r3
 8006492:	b2db      	uxtb	r3, r3
 8006494:	f003 0301 	and.w	r3, r3, #1
 8006498:	b2da      	uxtb	r2, r3
 800649a:	79fb      	ldrb	r3, [r7, #7]
 800649c:	f362 0382 	bfi	r3, r2, #2, #1
 80064a0:	71fb      	strb	r3, [r7, #7]
 80064a2:	68bb      	ldr	r3, [r7, #8]
 80064a4:	78db      	ldrb	r3, [r3, #3]
 80064a6:	f3c3 1300 	ubfx	r3, r3, #4, #1
 80064aa:	b2db      	uxtb	r3, r3
 80064ac:	43db      	mvns	r3, r3
 80064ae:	b2db      	uxtb	r3, r3
 80064b0:	f003 0301 	and.w	r3, r3, #1
 80064b4:	b2da      	uxtb	r2, r3
 80064b6:	79fb      	ldrb	r3, [r7, #7]
 80064b8:	f362 1304 	bfi	r3, r2, #4, #1
 80064bc:	71fb      	strb	r3, [r7, #7]
 80064be:	68bb      	ldr	r3, [r7, #8]
 80064c0:	78db      	ldrb	r3, [r3, #3]
 80064c2:	f3c3 1340 	ubfx	r3, r3, #5, #1
 80064c6:	b2db      	uxtb	r3, r3
 80064c8:	43db      	mvns	r3, r3
 80064ca:	b2db      	uxtb	r3, r3
 80064cc:	f003 0301 	and.w	r3, r3, #1
 80064d0:	b2da      	uxtb	r2, r3
 80064d2:	79fb      	ldrb	r3, [r7, #7]
 80064d4:	f362 1345 	bfi	r3, r2, #5, #1
 80064d8:	71fb      	strb	r3, [r7, #7]
 80064da:	68bb      	ldr	r3, [r7, #8]
 80064dc:	78db      	ldrb	r3, [r3, #3]
 80064de:	f3c3 1380 	ubfx	r3, r3, #6, #1
 80064e2:	b2db      	uxtb	r3, r3
 80064e4:	43db      	mvns	r3, r3
 80064e6:	b2db      	uxtb	r3, r3
 80064e8:	f003 0301 	and.w	r3, r3, #1
 80064ec:	b2da      	uxtb	r2, r3
 80064ee:	79fb      	ldrb	r3, [r7, #7]
 80064f0:	f362 1386 	bfi	r3, r2, #6, #1
 80064f4:	71fb      	strb	r3, [r7, #7]
 80064f6:	68bb      	ldr	r3, [r7, #8]
 80064f8:	78db      	ldrb	r3, [r3, #3]
 80064fa:	f3c3 13c0 	ubfx	r3, r3, #7, #1
 80064fe:	b2db      	uxtb	r3, r3
 8006500:	43db      	mvns	r3, r3
 8006502:	b2db      	uxtb	r3, r3
 8006504:	f003 0301 	and.w	r3, r3, #1
 8006508:	b2da      	uxtb	r2, r3
 800650a:	79fb      	ldrb	r3, [r7, #7]
 800650c:	f362 13c7 	bfi	r3, r2, #7, #1
 8006510:	71fb      	strb	r3, [r7, #7]
 8006512:	68bb      	ldr	r3, [r7, #8]
 8006514:	791b      	ldrb	r3, [r3, #4]
 8006516:	f3c3 0300 	ubfx	r3, r3, #0, #1
 800651a:	b2db      	uxtb	r3, r3
 800651c:	43db      	mvns	r3, r3
 800651e:	b2db      	uxtb	r3, r3
 8006520:	f003 0301 	and.w	r3, r3, #1
 8006524:	b2da      	uxtb	r2, r3
 8006526:	79bb      	ldrb	r3, [r7, #6]
 8006528:	f362 0300 	bfi	r3, r2, #0, #1
 800652c:	71bb      	strb	r3, [r7, #6]
 800652e:	4b17      	ldr	r3, [pc, #92]	; (800658c <UpdateModeSection+0x22c>)
 8006530:	781b      	ldrb	r3, [r3, #0]
 8006532:	2b00      	cmp	r3, #0
 8006534:	d02c      	beq.n	8006590 <UpdateModeSection+0x230>
 8006536:	68bb      	ldr	r3, [r7, #8]
 8006538:	795b      	ldrb	r3, [r3, #5]
 800653a:	f3c3 1300 	ubfx	r3, r3, #4, #1
 800653e:	b2db      	uxtb	r3, r3
 8006540:	43db      	mvns	r3, r3
 8006542:	b2db      	uxtb	r3, r3
 8006544:	f003 0301 	and.w	r3, r3, #1
 8006548:	b2da      	uxtb	r2, r3
 800654a:	793b      	ldrb	r3, [r7, #4]
 800654c:	f362 1386 	bfi	r3, r2, #6, #1
 8006550:	713b      	strb	r3, [r7, #4]
 8006552:	68bb      	ldr	r3, [r7, #8]
 8006554:	795b      	ldrb	r3, [r3, #5]
 8006556:	f3c3 03c0 	ubfx	r3, r3, #3, #1
 800655a:	b2db      	uxtb	r3, r3
 800655c:	43db      	mvns	r3, r3
 800655e:	b2db      	uxtb	r3, r3
 8006560:	f003 0301 	and.w	r3, r3, #1
 8006564:	b2da      	uxtb	r2, r3
 8006566:	793b      	ldrb	r3, [r7, #4]
 8006568:	f362 13c7 	bfi	r3, r2, #7, #1
 800656c:	713b      	strb	r3, [r7, #4]
 800656e:	e02b      	b.n	80065c8 <UpdateModeSection+0x268>
 8006570:	200002ad 	.word	0x200002ad
 8006574:	200002ae 	.word	0x200002ae
 8006578:	20000296 	.word	0x20000296
 800657c:	20000297 	.word	0x20000297
 8006580:	20000298 	.word	0x20000298
 8006584:	200002ac 	.word	0x200002ac
 8006588:	20000948 	.word	0x20000948
 800658c:	20000295 	.word	0x20000295
 8006590:	68bb      	ldr	r3, [r7, #8]
 8006592:	795b      	ldrb	r3, [r3, #5]
 8006594:	f3c3 03c0 	ubfx	r3, r3, #3, #1
 8006598:	b2db      	uxtb	r3, r3
 800659a:	43db      	mvns	r3, r3
 800659c:	b2db      	uxtb	r3, r3
 800659e:	f003 0301 	and.w	r3, r3, #1
 80065a2:	b2da      	uxtb	r2, r3
 80065a4:	793b      	ldrb	r3, [r7, #4]
 80065a6:	f362 1386 	bfi	r3, r2, #6, #1
 80065aa:	713b      	strb	r3, [r7, #4]
 80065ac:	68bb      	ldr	r3, [r7, #8]
 80065ae:	795b      	ldrb	r3, [r3, #5]
 80065b0:	f3c3 1300 	ubfx	r3, r3, #4, #1
 80065b4:	b2db      	uxtb	r3, r3
 80065b6:	43db      	mvns	r3, r3
 80065b8:	b2db      	uxtb	r3, r3
 80065ba:	f003 0301 	and.w	r3, r3, #1
 80065be:	b2da      	uxtb	r2, r3
 80065c0:	793b      	ldrb	r3, [r7, #4]
 80065c2:	f362 13c7 	bfi	r3, r2, #7, #1
 80065c6:	713b      	strb	r3, [r7, #4]
 80065c8:	68bb      	ldr	r3, [r7, #8]
 80065ca:	791b      	ldrb	r3, [r3, #4]
 80065cc:	f3c3 1300 	ubfx	r3, r3, #4, #1
 80065d0:	b2db      	uxtb	r3, r3
 80065d2:	43db      	mvns	r3, r3
 80065d4:	b2db      	uxtb	r3, r3
 80065d6:	f003 0301 	and.w	r3, r3, #1
 80065da:	b2da      	uxtb	r2, r3
 80065dc:	79bb      	ldrb	r3, [r7, #6]
 80065de:	f362 1304 	bfi	r3, r2, #4, #1
 80065e2:	71bb      	strb	r3, [r7, #6]
 80065e4:	68bb      	ldr	r3, [r7, #8]
 80065e6:	791b      	ldrb	r3, [r3, #4]
 80065e8:	f3c3 1340 	ubfx	r3, r3, #5, #1
 80065ec:	b2db      	uxtb	r3, r3
 80065ee:	43db      	mvns	r3, r3
 80065f0:	b2db      	uxtb	r3, r3
 80065f2:	f003 0301 	and.w	r3, r3, #1
 80065f6:	b2da      	uxtb	r2, r3
 80065f8:	79bb      	ldrb	r3, [r7, #6]
 80065fa:	f362 1345 	bfi	r3, r2, #5, #1
 80065fe:	71bb      	strb	r3, [r7, #6]
 8006600:	68bb      	ldr	r3, [r7, #8]
 8006602:	78db      	ldrb	r3, [r3, #3]
 8006604:	f3c3 03c0 	ubfx	r3, r3, #3, #1
 8006608:	b2db      	uxtb	r3, r3
 800660a:	43db      	mvns	r3, r3
 800660c:	b2db      	uxtb	r3, r3
 800660e:	f003 0301 	and.w	r3, r3, #1
 8006612:	b2da      	uxtb	r2, r3
 8006614:	79fb      	ldrb	r3, [r7, #7]
 8006616:	f362 03c3 	bfi	r3, r2, #3, #1
 800661a:	71fb      	strb	r3, [r7, #7]
 800661c:	68bb      	ldr	r3, [r7, #8]
 800661e:	78db      	ldrb	r3, [r3, #3]
 8006620:	f3c3 0340 	ubfx	r3, r3, #1, #1
 8006624:	b2db      	uxtb	r3, r3
 8006626:	43db      	mvns	r3, r3
 8006628:	b2db      	uxtb	r3, r3
 800662a:	f003 0301 	and.w	r3, r3, #1
 800662e:	b2da      	uxtb	r2, r3
 8006630:	79fb      	ldrb	r3, [r7, #7]
 8006632:	f362 0341 	bfi	r3, r2, #1, #1
 8006636:	71fb      	strb	r3, [r7, #7]
 8006638:	68bb      	ldr	r3, [r7, #8]
 800663a:	78db      	ldrb	r3, [r3, #3]
 800663c:	f3c3 0300 	ubfx	r3, r3, #0, #1
 8006640:	b2db      	uxtb	r3, r3
 8006642:	43db      	mvns	r3, r3
 8006644:	b2db      	uxtb	r3, r3
 8006646:	f003 0301 	and.w	r3, r3, #1
 800664a:	b2da      	uxtb	r2, r3
 800664c:	79fb      	ldrb	r3, [r7, #7]
 800664e:	f362 0300 	bfi	r3, r2, #0, #1
 8006652:	71fb      	strb	r3, [r7, #7]
 8006654:	68bb      	ldr	r3, [r7, #8]
 8006656:	791b      	ldrb	r3, [r3, #4]
 8006658:	f3c3 1380 	ubfx	r3, r3, #6, #1
 800665c:	b2db      	uxtb	r3, r3
 800665e:	43db      	mvns	r3, r3
 8006660:	b2db      	uxtb	r3, r3
 8006662:	f003 0301 	and.w	r3, r3, #1
 8006666:	b2da      	uxtb	r2, r3
 8006668:	79bb      	ldrb	r3, [r7, #6]
 800666a:	f362 1386 	bfi	r3, r2, #6, #1
 800666e:	71bb      	strb	r3, [r7, #6]
 8006670:	68bb      	ldr	r3, [r7, #8]
 8006672:	791b      	ldrb	r3, [r3, #4]
 8006674:	f3c3 13c0 	ubfx	r3, r3, #7, #1
 8006678:	b2db      	uxtb	r3, r3
 800667a:	43db      	mvns	r3, r3
 800667c:	b2db      	uxtb	r3, r3
 800667e:	f003 0301 	and.w	r3, r3, #1
 8006682:	b2da      	uxtb	r2, r3
 8006684:	79bb      	ldrb	r3, [r7, #6]
 8006686:	f362 13c7 	bfi	r3, r2, #7, #1
 800668a:	71bb      	strb	r3, [r7, #6]
 800668c:	68bb      	ldr	r3, [r7, #8]
 800668e:	795b      	ldrb	r3, [r3, #5]
 8006690:	f3c3 0300 	ubfx	r3, r3, #0, #1
 8006694:	b2db      	uxtb	r3, r3
 8006696:	43db      	mvns	r3, r3
 8006698:	b2db      	uxtb	r3, r3
 800669a:	f003 0301 	and.w	r3, r3, #1
 800669e:	b2da      	uxtb	r2, r3
 80066a0:	797b      	ldrb	r3, [r7, #5]
 80066a2:	f362 0300 	bfi	r3, r2, #0, #1
 80066a6:	717b      	strb	r3, [r7, #5]
 80066a8:	68bb      	ldr	r3, [r7, #8]
 80066aa:	795b      	ldrb	r3, [r3, #5]
 80066ac:	f3c3 0340 	ubfx	r3, r3, #1, #1
 80066b0:	b2db      	uxtb	r3, r3
 80066b2:	43db      	mvns	r3, r3
 80066b4:	b2db      	uxtb	r3, r3
 80066b6:	f003 0301 	and.w	r3, r3, #1
 80066ba:	b2da      	uxtb	r2, r3
 80066bc:	797b      	ldrb	r3, [r7, #5]
 80066be:	f362 0341 	bfi	r3, r2, #1, #1
 80066c2:	717b      	strb	r3, [r7, #5]
 80066c4:	68bb      	ldr	r3, [r7, #8]
 80066c6:	795b      	ldrb	r3, [r3, #5]
 80066c8:	f3c3 0380 	ubfx	r3, r3, #2, #1
 80066cc:	b2db      	uxtb	r3, r3
 80066ce:	43db      	mvns	r3, r3
 80066d0:	b2db      	uxtb	r3, r3
 80066d2:	f003 0301 	and.w	r3, r3, #1
 80066d6:	b2da      	uxtb	r2, r3
 80066d8:	797b      	ldrb	r3, [r7, #5]
 80066da:	f362 0382 	bfi	r3, r2, #2, #1
 80066de:	717b      	strb	r3, [r7, #5]
 80066e0:	68bb      	ldr	r3, [r7, #8]
 80066e2:	791b      	ldrb	r3, [r3, #4]
 80066e4:	f3c3 0340 	ubfx	r3, r3, #1, #1
 80066e8:	b2db      	uxtb	r3, r3
 80066ea:	43db      	mvns	r3, r3
 80066ec:	b2db      	uxtb	r3, r3
 80066ee:	f003 0301 	and.w	r3, r3, #1
 80066f2:	b2da      	uxtb	r2, r3
 80066f4:	79bb      	ldrb	r3, [r7, #6]
 80066f6:	f362 0341 	bfi	r3, r2, #1, #1
 80066fa:	71bb      	strb	r3, [r7, #6]
 80066fc:	68bb      	ldr	r3, [r7, #8]
 80066fe:	791b      	ldrb	r3, [r3, #4]
 8006700:	f3c3 0380 	ubfx	r3, r3, #2, #1
 8006704:	b2db      	uxtb	r3, r3
 8006706:	43db      	mvns	r3, r3
 8006708:	b2db      	uxtb	r3, r3
 800670a:	f003 0301 	and.w	r3, r3, #1
 800670e:	b2da      	uxtb	r2, r3
 8006710:	79bb      	ldrb	r3, [r7, #6]
 8006712:	f362 0382 	bfi	r3, r2, #2, #1
 8006716:	71bb      	strb	r3, [r7, #6]
 8006718:	68bb      	ldr	r3, [r7, #8]
 800671a:	791b      	ldrb	r3, [r3, #4]
 800671c:	f3c3 03c0 	ubfx	r3, r3, #3, #1
 8006720:	b2db      	uxtb	r3, r3
 8006722:	43db      	mvns	r3, r3
 8006724:	b2db      	uxtb	r3, r3
 8006726:	f003 0301 	and.w	r3, r3, #1
 800672a:	b2da      	uxtb	r2, r3
 800672c:	79bb      	ldrb	r3, [r7, #6]
 800672e:	f362 03c3 	bfi	r3, r2, #3, #1
 8006732:	71bb      	strb	r3, [r7, #6]
 8006734:	4b5a      	ldr	r3, [pc, #360]	; (80068a0 <UpdateModeSection+0x540>)
 8006736:	781b      	ldrb	r3, [r3, #0]
 8006738:	b2db      	uxtb	r3, r3
 800673a:	2b04      	cmp	r3, #4
 800673c:	d00e      	beq.n	800675c <UpdateModeSection+0x3fc>
 800673e:	4b58      	ldr	r3, [pc, #352]	; (80068a0 <UpdateModeSection+0x540>)
 8006740:	781b      	ldrb	r3, [r3, #0]
 8006742:	b2db      	uxtb	r3, r3
 8006744:	2b05      	cmp	r3, #5
 8006746:	d009      	beq.n	800675c <UpdateModeSection+0x3fc>
 8006748:	4b55      	ldr	r3, [pc, #340]	; (80068a0 <UpdateModeSection+0x540>)
 800674a:	781b      	ldrb	r3, [r3, #0]
 800674c:	b2db      	uxtb	r3, r3
 800674e:	2b06      	cmp	r3, #6
 8006750:	d004      	beq.n	800675c <UpdateModeSection+0x3fc>
 8006752:	4b53      	ldr	r3, [pc, #332]	; (80068a0 <UpdateModeSection+0x540>)
 8006754:	781b      	ldrb	r3, [r3, #0]
 8006756:	b2db      	uxtb	r3, r3
 8006758:	2b07      	cmp	r3, #7
 800675a:	d175      	bne.n	8006848 <UpdateModeSection+0x4e8>
 800675c:	23ff      	movs	r3, #255	; 0xff
 800675e:	713b      	strb	r3, [r7, #4]
 8006760:	23ff      	movs	r3, #255	; 0xff
 8006762:	717b      	strb	r3, [r7, #5]
 8006764:	23ff      	movs	r3, #255	; 0xff
 8006766:	71bb      	strb	r3, [r7, #6]
 8006768:	23ff      	movs	r3, #255	; 0xff
 800676a:	71fb      	strb	r3, [r7, #7]
 800676c:	4b4c      	ldr	r3, [pc, #304]	; (80068a0 <UpdateModeSection+0x540>)
 800676e:	781b      	ldrb	r3, [r3, #0]
 8006770:	b2db      	uxtb	r3, r3
 8006772:	2b04      	cmp	r3, #4
 8006774:	d004      	beq.n	8006780 <UpdateModeSection+0x420>
 8006776:	4b4a      	ldr	r3, [pc, #296]	; (80068a0 <UpdateModeSection+0x540>)
 8006778:	781b      	ldrb	r3, [r3, #0]
 800677a:	b2db      	uxtb	r3, r3
 800677c:	2b05      	cmp	r3, #5
 800677e:	d122      	bne.n	80067c6 <UpdateModeSection+0x466>
 8006780:	793b      	ldrb	r3, [r7, #4]
 8006782:	f043 0310 	orr.w	r3, r3, #16
 8006786:	713b      	strb	r3, [r7, #4]
 8006788:	4b46      	ldr	r3, [pc, #280]	; (80068a4 <UpdateModeSection+0x544>)
 800678a:	681b      	ldr	r3, [r3, #0]
 800678c:	3301      	adds	r3, #1
 800678e:	4a45      	ldr	r2, [pc, #276]	; (80068a4 <UpdateModeSection+0x544>)
 8006790:	6013      	str	r3, [r2, #0]
 8006792:	4b44      	ldr	r3, [pc, #272]	; (80068a4 <UpdateModeSection+0x544>)
 8006794:	681b      	ldr	r3, [r3, #0]
 8006796:	f240 52db 	movw	r2, #1499	; 0x5db
 800679a:	4293      	cmp	r3, r2
 800679c:	d804      	bhi.n	80067a8 <UpdateModeSection+0x448>
 800679e:	793b      	ldrb	r3, [r7, #4]
 80067a0:	f36f 0341 	bfc	r3, #1, #1
 80067a4:	713b      	strb	r3, [r7, #4]
 80067a6:	e03a      	b.n	800681e <UpdateModeSection+0x4be>
 80067a8:	4b3e      	ldr	r3, [pc, #248]	; (80068a4 <UpdateModeSection+0x544>)
 80067aa:	681b      	ldr	r3, [r3, #0]
 80067ac:	f640 32b7 	movw	r2, #2999	; 0xbb7
 80067b0:	4293      	cmp	r3, r2
 80067b2:	d804      	bhi.n	80067be <UpdateModeSection+0x45e>
 80067b4:	793b      	ldrb	r3, [r7, #4]
 80067b6:	f043 0302 	orr.w	r3, r3, #2
 80067ba:	713b      	strb	r3, [r7, #4]
 80067bc:	e02f      	b.n	800681e <UpdateModeSection+0x4be>
 80067be:	4b39      	ldr	r3, [pc, #228]	; (80068a4 <UpdateModeSection+0x544>)
 80067c0:	2200      	movs	r2, #0
 80067c2:	601a      	str	r2, [r3, #0]
 80067c4:	e02b      	b.n	800681e <UpdateModeSection+0x4be>
 80067c6:	4b36      	ldr	r3, [pc, #216]	; (80068a0 <UpdateModeSection+0x540>)
 80067c8:	781b      	ldrb	r3, [r3, #0]
 80067ca:	b2db      	uxtb	r3, r3
 80067cc:	2b06      	cmp	r3, #6
 80067ce:	d004      	beq.n	80067da <UpdateModeSection+0x47a>
 80067d0:	4b33      	ldr	r3, [pc, #204]	; (80068a0 <UpdateModeSection+0x540>)
 80067d2:	781b      	ldrb	r3, [r3, #0]
 80067d4:	b2db      	uxtb	r3, r3
 80067d6:	2b07      	cmp	r3, #7
 80067d8:	d121      	bne.n	800681e <UpdateModeSection+0x4be>
 80067da:	793b      	ldrb	r3, [r7, #4]
 80067dc:	f043 0302 	orr.w	r3, r3, #2
 80067e0:	713b      	strb	r3, [r7, #4]
 80067e2:	4b31      	ldr	r3, [pc, #196]	; (80068a8 <UpdateModeSection+0x548>)
 80067e4:	681b      	ldr	r3, [r3, #0]
 80067e6:	3301      	adds	r3, #1
 80067e8:	4a2f      	ldr	r2, [pc, #188]	; (80068a8 <UpdateModeSection+0x548>)
 80067ea:	6013      	str	r3, [r2, #0]
 80067ec:	4b2e      	ldr	r3, [pc, #184]	; (80068a8 <UpdateModeSection+0x548>)
 80067ee:	681b      	ldr	r3, [r3, #0]
 80067f0:	f240 52db 	movw	r2, #1499	; 0x5db
 80067f4:	4293      	cmp	r3, r2
 80067f6:	d804      	bhi.n	8006802 <UpdateModeSection+0x4a2>
 80067f8:	793b      	ldrb	r3, [r7, #4]
 80067fa:	f36f 1304 	bfc	r3, #4, #1
 80067fe:	713b      	strb	r3, [r7, #4]
 8006800:	e00d      	b.n	800681e <UpdateModeSection+0x4be>
 8006802:	4b29      	ldr	r3, [pc, #164]	; (80068a8 <UpdateModeSection+0x548>)
 8006804:	681b      	ldr	r3, [r3, #0]
 8006806:	f640 32b7 	movw	r2, #2999	; 0xbb7
 800680a:	4293      	cmp	r3, r2
 800680c:	d804      	bhi.n	8006818 <UpdateModeSection+0x4b8>
 800680e:	793b      	ldrb	r3, [r7, #4]
 8006810:	f043 0310 	orr.w	r3, r3, #16
 8006814:	713b      	strb	r3, [r7, #4]
 8006816:	e002      	b.n	800681e <UpdateModeSection+0x4be>
 8006818:	4b23      	ldr	r3, [pc, #140]	; (80068a8 <UpdateModeSection+0x548>)
 800681a:	2200      	movs	r2, #0
 800681c:	601a      	str	r2, [r3, #0]
 800681e:	f7fb faea 	bl	8001df6 <Is_Expander_Present>
 8006822:	4603      	mov	r3, r0
 8006824:	2b00      	cmp	r3, #0
 8006826:	d10f      	bne.n	8006848 <UpdateModeSection+0x4e8>
 8006828:	4b20      	ldr	r3, [pc, #128]	; (80068ac <UpdateModeSection+0x54c>)
 800682a:	781b      	ldrb	r3, [r3, #0]
 800682c:	b2db      	uxtb	r3, r3
 800682e:	2b01      	cmp	r3, #1
 8006830:	d105      	bne.n	800683e <UpdateModeSection+0x4de>
 8006832:	793b      	ldrb	r3, [r7, #4]
 8006834:	f023 0340 	bic.w	r3, r3, #64	; 0x40
 8006838:	b2db      	uxtb	r3, r3
 800683a:	713b      	strb	r3, [r7, #4]
 800683c:	e004      	b.n	8006848 <UpdateModeSection+0x4e8>
 800683e:	793b      	ldrb	r3, [r7, #4]
 8006840:	f003 037f 	and.w	r3, r3, #127	; 0x7f
 8006844:	b2db      	uxtb	r3, r3
 8006846:	713b      	strb	r3, [r7, #4]
 8006848:	1d3b      	adds	r3, r7, #4
 800684a:	4618      	mov	r0, r3
 800684c:	f7fb fb3a 	bl	8001ec4 <LEDS_modes_SendStruct>
 8006850:	4b13      	ldr	r3, [pc, #76]	; (80068a0 <UpdateModeSection+0x540>)
 8006852:	781b      	ldrb	r3, [r3, #0]
 8006854:	b2db      	uxtb	r3, r3
 8006856:	2b00      	cmp	r3, #0
 8006858:	d004      	beq.n	8006864 <UpdateModeSection+0x504>
 800685a:	4b11      	ldr	r3, [pc, #68]	; (80068a0 <UpdateModeSection+0x540>)
 800685c:	781b      	ldrb	r3, [r3, #0]
 800685e:	b2db      	uxtb	r3, r3
 8006860:	2b02      	cmp	r3, #2
 8006862:	d107      	bne.n	8006874 <UpdateModeSection+0x514>
 8006864:	2140      	movs	r1, #64	; 0x40
 8006866:	4812      	ldr	r0, [pc, #72]	; (80068b0 <UpdateModeSection+0x550>)
 8006868:	f7fa fc2d 	bl	80010c6 <GPIO_SetBits>
 800686c:	2180      	movs	r1, #128	; 0x80
 800686e:	4810      	ldr	r0, [pc, #64]	; (80068b0 <UpdateModeSection+0x550>)
 8006870:	f7fa fc2b 	bl	80010ca <GPIO_ResetBits>
 8006874:	4b0a      	ldr	r3, [pc, #40]	; (80068a0 <UpdateModeSection+0x540>)
 8006876:	781b      	ldrb	r3, [r3, #0]
 8006878:	b2db      	uxtb	r3, r3
 800687a:	2b01      	cmp	r3, #1
 800687c:	d004      	beq.n	8006888 <UpdateModeSection+0x528>
 800687e:	4b08      	ldr	r3, [pc, #32]	; (80068a0 <UpdateModeSection+0x540>)
 8006880:	781b      	ldrb	r3, [r3, #0]
 8006882:	b2db      	uxtb	r3, r3
 8006884:	2b03      	cmp	r3, #3
 8006886:	d107      	bne.n	8006898 <UpdateModeSection+0x538>
 8006888:	2180      	movs	r1, #128	; 0x80
 800688a:	4809      	ldr	r0, [pc, #36]	; (80068b0 <UpdateModeSection+0x550>)
 800688c:	f7fa fc1b 	bl	80010c6 <GPIO_SetBits>
 8006890:	2140      	movs	r1, #64	; 0x40
 8006892:	4807      	ldr	r0, [pc, #28]	; (80068b0 <UpdateModeSection+0x550>)
 8006894:	f7fa fc19 	bl	80010ca <GPIO_ResetBits>
 8006898:	bf00      	nop
 800689a:	3710      	adds	r7, #16
 800689c:	46bd      	mov	sp, r7
 800689e:	bd80      	pop	{r7, pc}
 80068a0:	20000296 	.word	0x20000296
 80068a4:	200002c0 	.word	0x200002c0
 80068a8:	200002c4 	.word	0x200002c4
 80068ac:	20000276 	.word	0x20000276
 80068b0:	40020000 	.word	0x40020000

080068b4 <UpdateStepSection>:
 80068b4:	b580      	push	{r7, lr}
 80068b6:	af00      	add	r7, sp, #0
 80068b8:	4b1d      	ldr	r3, [pc, #116]	; (8006930 <UpdateStepSection+0x7c>)
 80068ba:	781b      	ldrb	r3, [r3, #0]
 80068bc:	b2db      	uxtb	r3, r3
 80068be:	2b00      	cmp	r3, #0
 80068c0:	d105      	bne.n	80068ce <UpdateStepSection+0x1a>
 80068c2:	4b1c      	ldr	r3, [pc, #112]	; (8006934 <UpdateStepSection+0x80>)
 80068c4:	781b      	ldrb	r3, [r3, #0]
 80068c6:	b2db      	uxtb	r3, r3
 80068c8:	4618      	mov	r0, r3
 80068ca:	f7fb fb91 	bl	8001ff0 <LED_STEP_LightStep>
 80068ce:	4b18      	ldr	r3, [pc, #96]	; (8006930 <UpdateStepSection+0x7c>)
 80068d0:	781b      	ldrb	r3, [r3, #0]
 80068d2:	b2db      	uxtb	r3, r3
 80068d4:	2b01      	cmp	r3, #1
 80068d6:	d105      	bne.n	80068e4 <UpdateStepSection+0x30>
 80068d8:	4b17      	ldr	r3, [pc, #92]	; (8006938 <UpdateStepSection+0x84>)
 80068da:	781b      	ldrb	r3, [r3, #0]
 80068dc:	b2db      	uxtb	r3, r3
 80068de:	4618      	mov	r0, r3
 80068e0:	f7fb fb86 	bl	8001ff0 <LED_STEP_LightStep>
 80068e4:	4b12      	ldr	r3, [pc, #72]	; (8006930 <UpdateStepSection+0x7c>)
 80068e6:	781b      	ldrb	r3, [r3, #0]
 80068e8:	b2db      	uxtb	r3, r3
 80068ea:	2b02      	cmp	r3, #2
 80068ec:	d018      	beq.n	8006920 <UpdateStepSection+0x6c>
 80068ee:	4b10      	ldr	r3, [pc, #64]	; (8006930 <UpdateStepSection+0x7c>)
 80068f0:	781b      	ldrb	r3, [r3, #0]
 80068f2:	b2db      	uxtb	r3, r3
 80068f4:	2b03      	cmp	r3, #3
 80068f6:	d013      	beq.n	8006920 <UpdateStepSection+0x6c>
 80068f8:	4b0d      	ldr	r3, [pc, #52]	; (8006930 <UpdateStepSection+0x7c>)
 80068fa:	781b      	ldrb	r3, [r3, #0]
 80068fc:	b2db      	uxtb	r3, r3
 80068fe:	2b04      	cmp	r3, #4
 8006900:	d00e      	beq.n	8006920 <UpdateStepSection+0x6c>
 8006902:	4b0b      	ldr	r3, [pc, #44]	; (8006930 <UpdateStepSection+0x7c>)
 8006904:	781b      	ldrb	r3, [r3, #0]
 8006906:	b2db      	uxtb	r3, r3
 8006908:	2b05      	cmp	r3, #5
 800690a:	d009      	beq.n	8006920 <UpdateStepSection+0x6c>
 800690c:	4b08      	ldr	r3, [pc, #32]	; (8006930 <UpdateStepSection+0x7c>)
 800690e:	781b      	ldrb	r3, [r3, #0]
 8006910:	b2db      	uxtb	r3, r3
 8006912:	2b06      	cmp	r3, #6
 8006914:	d004      	beq.n	8006920 <UpdateStepSection+0x6c>
 8006916:	4b06      	ldr	r3, [pc, #24]	; (8006930 <UpdateStepSection+0x7c>)
 8006918:	781b      	ldrb	r3, [r3, #0]
 800691a:	b2db      	uxtb	r3, r3
 800691c:	2b07      	cmp	r3, #7
 800691e:	d104      	bne.n	800692a <UpdateStepSection+0x76>
 8006920:	4b06      	ldr	r3, [pc, #24]	; (800693c <UpdateStepSection+0x88>)
 8006922:	781b      	ldrb	r3, [r3, #0]
 8006924:	4618      	mov	r0, r3
 8006926:	f7fb fb63 	bl	8001ff0 <LED_STEP_LightStep>
 800692a:	bf00      	nop
 800692c:	bd80      	pop	{r7, pc}
 800692e:	bf00      	nop
 8006930:	20000296 	.word	0x20000296
 8006934:	20000297 	.word	0x20000297
 8006938:	20000298 	.word	0x20000298
 800693c:	200002ac 	.word	0x200002ac

08006940 <PermutePulses>:
 8006940:	b590      	push	{r4, r7, lr}
 8006942:	b087      	sub	sp, #28
 8006944:	af00      	add	r7, sp, #0
 8006946:	2300      	movs	r3, #0
 8006948:	617b      	str	r3, [r7, #20]
 800694a:	23ff      	movs	r3, #255	; 0xff
 800694c:	713b      	strb	r3, [r7, #4]
 800694e:	23ff      	movs	r3, #255	; 0xff
 8006950:	717b      	strb	r3, [r7, #5]
 8006952:	23ff      	movs	r3, #255	; 0xff
 8006954:	71bb      	strb	r3, [r7, #6]
 8006956:	23ff      	movs	r3, #255	; 0xff
 8006958:	71fb      	strb	r3, [r7, #7]
 800695a:	2140      	movs	r1, #64	; 0x40
 800695c:	4836      	ldr	r0, [pc, #216]	; (8006a38 <PermutePulses+0xf8>)
 800695e:	f7fa fbb4 	bl	80010ca <GPIO_ResetBits>
 8006962:	2180      	movs	r1, #128	; 0x80
 8006964:	4834      	ldr	r0, [pc, #208]	; (8006a38 <PermutePulses+0xf8>)
 8006966:	f7fa fbb0 	bl	80010ca <GPIO_ResetBits>
 800696a:	f7fb f809 	bl	8001980 <GetButton>
 800696e:	4603      	mov	r3, r0
 8006970:	460c      	mov	r4, r1
 8006972:	e9c7 3402 	strd	r3, r4, [r7, #8]
 8006976:	e020      	b.n	80069ba <PermutePulses+0x7a>
 8006978:	697b      	ldr	r3, [r7, #20]
 800697a:	3301      	adds	r3, #1
 800697c:	617b      	str	r3, [r7, #20]
 800697e:	697b      	ldr	r3, [r7, #20]
 8006980:	f5b3 6f96 	cmp.w	r3, #1200	; 0x4b0
 8006984:	d204      	bcs.n	8006990 <PermutePulses+0x50>
 8006986:	793b      	ldrb	r3, [r7, #4]
 8006988:	f043 0340 	orr.w	r3, r3, #64	; 0x40
 800698c:	713b      	strb	r3, [r7, #4]
 800698e:	e00a      	b.n	80069a6 <PermutePulses+0x66>
 8006990:	697b      	ldr	r3, [r7, #20]
 8006992:	f5b3 6f16 	cmp.w	r3, #2400	; 0x960
 8006996:	d204      	bcs.n	80069a2 <PermutePulses+0x62>
 8006998:	793b      	ldrb	r3, [r7, #4]
 800699a:	f36f 1386 	bfc	r3, #6, #1
 800699e:	713b      	strb	r3, [r7, #4]
 80069a0:	e001      	b.n	80069a6 <PermutePulses+0x66>
 80069a2:	2300      	movs	r3, #0
 80069a4:	617b      	str	r3, [r7, #20]
 80069a6:	1d3b      	adds	r3, r7, #4
 80069a8:	4618      	mov	r0, r3
 80069aa:	f7fb fa8b 	bl	8001ec4 <LEDS_modes_SendStruct>
 80069ae:	f7fa ffe7 	bl	8001980 <GetButton>
 80069b2:	4603      	mov	r3, r0
 80069b4:	460c      	mov	r4, r1
 80069b6:	e9c7 3402 	strd	r3, r4, [r7, #8]
 80069ba:	7afb      	ldrb	r3, [r7, #11]
 80069bc:	f003 0310 	and.w	r3, r3, #16
 80069c0:	b2db      	uxtb	r3, r3
 80069c2:	2b00      	cmp	r3, #0
 80069c4:	d005      	beq.n	80069d2 <PermutePulses+0x92>
 80069c6:	7afb      	ldrb	r3, [r7, #11]
 80069c8:	f003 0340 	and.w	r3, r3, #64	; 0x40
 80069cc:	b2db      	uxtb	r3, r3
 80069ce:	2b00      	cmp	r3, #0
 80069d0:	d1d2      	bne.n	8006978 <PermutePulses+0x38>
 80069d2:	7afb      	ldrb	r3, [r7, #11]
 80069d4:	f003 0310 	and.w	r3, r3, #16
 80069d8:	b2db      	uxtb	r3, r3
 80069da:	2b00      	cmp	r3, #0
 80069dc:	d103      	bne.n	80069e6 <PermutePulses+0xa6>
 80069de:	4b17      	ldr	r3, [pc, #92]	; (8006a3c <PermutePulses+0xfc>)
 80069e0:	2200      	movs	r2, #0
 80069e2:	701a      	strb	r2, [r3, #0]
 80069e4:	e002      	b.n	80069ec <PermutePulses+0xac>
 80069e6:	4b15      	ldr	r3, [pc, #84]	; (8006a3c <PermutePulses+0xfc>)
 80069e8:	2201      	movs	r2, #1
 80069ea:	701a      	strb	r2, [r3, #0]
 80069ec:	2201      	movs	r2, #1
 80069ee:	4913      	ldr	r1, [pc, #76]	; (8006a3c <PermutePulses+0xfc>)
 80069f0:	f64c 0020 	movw	r0, #51232	; 0xc820
 80069f4:	f7fa fe42 	bl	800167c <CAT25512_write_block>
 80069f8:	793b      	ldrb	r3, [r7, #4]
 80069fa:	f36f 1386 	bfc	r3, #6, #1
 80069fe:	713b      	strb	r3, [r7, #4]
 8006a00:	1d3b      	adds	r3, r7, #4
 8006a02:	4618      	mov	r0, r3
 8006a04:	f7fb fa5e 	bl	8001ec4 <LEDS_modes_SendStruct>
 8006a08:	e005      	b.n	8006a16 <PermutePulses+0xd6>
 8006a0a:	f7fa ffb9 	bl	8001980 <GetButton>
 8006a0e:	4603      	mov	r3, r0
 8006a10:	460c      	mov	r4, r1
 8006a12:	e9c7 3402 	strd	r3, r4, [r7, #8]
 8006a16:	7afb      	ldrb	r3, [r7, #11]
 8006a18:	f003 0310 	and.w	r3, r3, #16
 8006a1c:	b2db      	uxtb	r3, r3
 8006a1e:	2b00      	cmp	r3, #0
 8006a20:	d0f3      	beq.n	8006a0a <PermutePulses+0xca>
 8006a22:	7afb      	ldrb	r3, [r7, #11]
 8006a24:	f003 0340 	and.w	r3, r3, #64	; 0x40
 8006a28:	b2db      	uxtb	r3, r3
 8006a2a:	2b00      	cmp	r3, #0
 8006a2c:	d0ed      	beq.n	8006a0a <PermutePulses+0xca>
 8006a2e:	bf00      	nop
 8006a30:	371c      	adds	r7, #28
 8006a32:	46bd      	mov	sp, r7
 8006a34:	bd90      	pop	{r4, r7, pc}
 8006a36:	bf00      	nop
 8006a38:	40020000 	.word	0x40020000
 8006a3c:	20000295 	.word	0x20000295

08006a40 <Calibration>:
 8006a40:	b590      	push	{r4, r7, lr}
 8006a42:	b087      	sub	sp, #28
 8006a44:	af00      	add	r7, sp, #0
 8006a46:	2300      	movs	r3, #0
 8006a48:	617b      	str	r3, [r7, #20]
 8006a4a:	f7fa ff99 	bl	8001980 <GetButton>
 8006a4e:	4603      	mov	r3, r0
 8006a50:	460c      	mov	r4, r1
 8006a52:	e9c7 3402 	strd	r3, r4, [r7, #8]
 8006a56:	23ff      	movs	r3, #255	; 0xff
 8006a58:	713b      	strb	r3, [r7, #4]
 8006a5a:	23ff      	movs	r3, #255	; 0xff
 8006a5c:	717b      	strb	r3, [r7, #5]
 8006a5e:	23ff      	movs	r3, #255	; 0xff
 8006a60:	71bb      	strb	r3, [r7, #6]
 8006a62:	23ff      	movs	r3, #255	; 0xff
 8006a64:	71fb      	strb	r3, [r7, #7]
 8006a66:	2180      	movs	r1, #128	; 0x80
 8006a68:	4850      	ldr	r0, [pc, #320]	; (8006bac <Calibration+0x16c>)
 8006a6a:	f7fa fb2e 	bl	80010ca <GPIO_ResetBits>
 8006a6e:	2140      	movs	r1, #64	; 0x40
 8006a70:	484e      	ldr	r0, [pc, #312]	; (8006bac <Calibration+0x16c>)
 8006a72:	f7fa fb2a 	bl	80010ca <GPIO_ResetBits>
 8006a76:	e066      	b.n	8006b46 <Calibration+0x106>
 8006a78:	697b      	ldr	r3, [r7, #20]
 8006a7a:	3301      	adds	r3, #1
 8006a7c:	617b      	str	r3, [r7, #20]
 8006a7e:	697b      	ldr	r3, [r7, #20]
 8006a80:	f5b3 6ffa 	cmp.w	r3, #2000	; 0x7d0
 8006a84:	d218      	bcs.n	8006ab8 <Calibration+0x78>
 8006a86:	793b      	ldrb	r3, [r7, #4]
 8006a88:	f043 0304 	orr.w	r3, r3, #4
 8006a8c:	713b      	strb	r3, [r7, #4]
 8006a8e:	793b      	ldrb	r3, [r7, #4]
 8006a90:	f043 0302 	orr.w	r3, r3, #2
 8006a94:	713b      	strb	r3, [r7, #4]
 8006a96:	793b      	ldrb	r3, [r7, #4]
 8006a98:	f36f 0300 	bfc	r3, #0, #1
 8006a9c:	713b      	strb	r3, [r7, #4]
 8006a9e:	793b      	ldrb	r3, [r7, #4]
 8006aa0:	f043 0320 	orr.w	r3, r3, #32
 8006aa4:	713b      	strb	r3, [r7, #4]
 8006aa6:	793b      	ldrb	r3, [r7, #4]
 8006aa8:	f043 0310 	orr.w	r3, r3, #16
 8006aac:	713b      	strb	r3, [r7, #4]
 8006aae:	793b      	ldrb	r3, [r7, #4]
 8006ab0:	f36f 03c3 	bfc	r3, #3, #1
 8006ab4:	713b      	strb	r3, [r7, #4]
 8006ab6:	e03c      	b.n	8006b32 <Calibration+0xf2>
 8006ab8:	697b      	ldr	r3, [r7, #20]
 8006aba:	f5b3 6f7a 	cmp.w	r3, #4000	; 0xfa0
 8006abe:	d218      	bcs.n	8006af2 <Calibration+0xb2>
 8006ac0:	793b      	ldrb	r3, [r7, #4]
 8006ac2:	f36f 0382 	bfc	r3, #2, #1
 8006ac6:	713b      	strb	r3, [r7, #4]
 8006ac8:	793b      	ldrb	r3, [r7, #4]
 8006aca:	f043 0302 	orr.w	r3, r3, #2
 8006ace:	713b      	strb	r3, [r7, #4]
 8006ad0:	793b      	ldrb	r3, [r7, #4]
 8006ad2:	f043 0301 	orr.w	r3, r3, #1
 8006ad6:	713b      	strb	r3, [r7, #4]
 8006ad8:	793b      	ldrb	r3, [r7, #4]
 8006ada:	f36f 1345 	bfc	r3, #5, #1
 8006ade:	713b      	strb	r3, [r7, #4]
 8006ae0:	793b      	ldrb	r3, [r7, #4]
 8006ae2:	f043 0310 	orr.w	r3, r3, #16
 8006ae6:	713b      	strb	r3, [r7, #4]
 8006ae8:	793b      	ldrb	r3, [r7, #4]
 8006aea:	f043 0308 	orr.w	r3, r3, #8
 8006aee:	713b      	strb	r3, [r7, #4]
 8006af0:	e01f      	b.n	8006b32 <Calibration+0xf2>
 8006af2:	697b      	ldr	r3, [r7, #20]
 8006af4:	f241 726f 	movw	r2, #5999	; 0x176f
 8006af8:	4293      	cmp	r3, r2
 8006afa:	d818      	bhi.n	8006b2e <Calibration+0xee>
 8006afc:	793b      	ldrb	r3, [r7, #4]
 8006afe:	f043 0304 	orr.w	r3, r3, #4
 8006b02:	713b      	strb	r3, [r7, #4]
 8006b04:	793b      	ldrb	r3, [r7, #4]
 8006b06:	f36f 0341 	bfc	r3, #1, #1
 8006b0a:	713b      	strb	r3, [r7, #4]
 8006b0c:	793b      	ldrb	r3, [r7, #4]
 8006b0e:	f043 0301 	orr.w	r3, r3, #1
 8006b12:	713b      	strb	r3, [r7, #4]
 8006b14:	793b      	ldrb	r3, [r7, #4]
 8006b16:	f043 0320 	orr.w	r3, r3, #32
 8006b1a:	713b      	strb	r3, [r7, #4]
 8006b1c:	793b      	ldrb	r3, [r7, #4]
 8006b1e:	f36f 1304 	bfc	r3, #4, #1
 8006b22:	713b      	strb	r3, [r7, #4]
 8006b24:	793b      	ldrb	r3, [r7, #4]
 8006b26:	f043 0308 	orr.w	r3, r3, #8
 8006b2a:	713b      	strb	r3, [r7, #4]
 8006b2c:	e001      	b.n	8006b32 <Calibration+0xf2>
 8006b2e:	2300      	movs	r3, #0
 8006b30:	617b      	str	r3, [r7, #20]
 8006b32:	1d3b      	adds	r3, r7, #4
 8006b34:	4618      	mov	r0, r3
 8006b36:	f7fb f9c5 	bl	8001ec4 <LEDS_modes_SendStruct>
 8006b3a:	f7fa ff21 	bl	8001980 <GetButton>
 8006b3e:	4603      	mov	r3, r0
 8006b40:	460c      	mov	r4, r1
 8006b42:	e9c7 3402 	strd	r3, r4, [r7, #8]
 8006b46:	7b7b      	ldrb	r3, [r7, #13]
 8006b48:	f003 0308 	and.w	r3, r3, #8
 8006b4c:	b2db      	uxtb	r3, r3
 8006b4e:	2b00      	cmp	r3, #0
 8006b50:	d192      	bne.n	8006a78 <Calibration+0x38>
 8006b52:	2300      	movs	r3, #0
 8006b54:	617b      	str	r3, [r7, #20]
 8006b56:	e018      	b.n	8006b8a <Calibration+0x14a>
 8006b58:	4a15      	ldr	r2, [pc, #84]	; (8006bb0 <Calibration+0x170>)
 8006b5a:	697b      	ldr	r3, [r7, #20]
 8006b5c:	f832 3013 	ldrh.w	r3, [r2, r3, lsl #1]
 8006b60:	b29b      	uxth	r3, r3
 8006b62:	4619      	mov	r1, r3
 8006b64:	4a13      	ldr	r2, [pc, #76]	; (8006bb4 <Calibration+0x174>)
 8006b66:	697b      	ldr	r3, [r7, #20]
 8006b68:	f842 1023 	str.w	r1, [r2, r3, lsl #2]
 8006b6c:	4a11      	ldr	r2, [pc, #68]	; (8006bb4 <Calibration+0x174>)
 8006b6e:	697b      	ldr	r3, [r7, #20]
 8006b70:	f852 3023 	ldr.w	r3, [r2, r3, lsl #2]
 8006b74:	2b63      	cmp	r3, #99	; 0x63
 8006b76:	d805      	bhi.n	8006b84 <Calibration+0x144>
 8006b78:	4a0e      	ldr	r2, [pc, #56]	; (8006bb4 <Calibration+0x174>)
 8006b7a:	697b      	ldr	r3, [r7, #20]
 8006b7c:	f640 71ff 	movw	r1, #4095	; 0xfff
 8006b80:	f842 1023 	str.w	r1, [r2, r3, lsl #2]
 8006b84:	697b      	ldr	r3, [r7, #20]
 8006b86:	3301      	adds	r3, #1
 8006b88:	617b      	str	r3, [r7, #20]
 8006b8a:	697b      	ldr	r3, [r7, #20]
 8006b8c:	2b07      	cmp	r3, #7
 8006b8e:	d9e3      	bls.n	8006b58 <Calibration+0x118>
 8006b90:	f7fb febe 	bl	8002910 <ADCPause>
 8006b94:	2220      	movs	r2, #32
 8006b96:	4907      	ldr	r1, [pc, #28]	; (8006bb4 <Calibration+0x174>)
 8006b98:	f44f 4048 	mov.w	r0, #51200	; 0xc800
 8006b9c:	f7fa fd6e 	bl	800167c <CAT25512_write_block>
 8006ba0:	f7fb fde4 	bl	800276c <mADC_init>
 8006ba4:	371c      	adds	r7, #28
 8006ba6:	46bd      	mov	sp, r7
 8006ba8:	bd90      	pop	{r4, r7, pc}
 8006baa:	bf00      	nop
 8006bac:	40020000 	.word	0x40020000
 8006bb0:	20000828 	.word	0x20000828
 8006bb4:	20000250 	.word	0x20000250

08006bb8 <main>:
 8006bb8:	b590      	push	{r4, r7, lr}
 8006bba:	b093      	sub	sp, #76	; 0x4c
 8006bbc:	af00      	add	r7, sp, #0
 8006bbe:	2300      	movs	r3, #0
 8006bc0:	643b      	str	r3, [r7, #64]	; 0x40
 8006bc2:	2300      	movs	r3, #0
 8006bc4:	87fb      	strh	r3, [r7, #62]	; 0x3e
 8006bc6:	2300      	movs	r3, #0
 8006bc8:	f887 303d 	strb.w	r3, [r7, #61]	; 0x3d
 8006bcc:	2300      	movs	r3, #0
 8006bce:	877b      	strh	r3, [r7, #58]	; 0x3a
 8006bd0:	2300      	movs	r3, #0
 8006bd2:	873b      	strh	r3, [r7, #56]	; 0x38
 8006bd4:	4ba4      	ldr	r3, [pc, #656]	; (8006e68 <main+0x2b0>)
 8006bd6:	2200      	movs	r2, #0
 8006bd8:	701a      	strb	r2, [r3, #0]
 8006bda:	4aa3      	ldr	r2, [pc, #652]	; (8006e68 <main+0x2b0>)
 8006bdc:	7813      	ldrb	r3, [r2, #0]
 8006bde:	f043 0301 	orr.w	r3, r3, #1
 8006be2:	7013      	strb	r3, [r2, #0]
 8006be4:	4aa0      	ldr	r2, [pc, #640]	; (8006e68 <main+0x2b0>)
 8006be6:	7813      	ldrb	r3, [r2, #0]
 8006be8:	f043 0302 	orr.w	r3, r3, #2
 8006bec:	7013      	strb	r3, [r2, #0]
 8006bee:	4a9f      	ldr	r2, [pc, #636]	; (8006e6c <main+0x2b4>)
 8006bf0:	6853      	ldr	r3, [r2, #4]
 8006bf2:	f043 0380 	orr.w	r3, r3, #128	; 0x80
 8006bf6:	6053      	str	r3, [r2, #4]
 8006bf8:	4a9c      	ldr	r2, [pc, #624]	; (8006e6c <main+0x2b4>)
 8006bfa:	6813      	ldr	r3, [r2, #0]
 8006bfc:	f043 6380 	orr.w	r3, r3, #67108864	; 0x4000000
 8006c00:	6013      	str	r3, [r2, #0]
 8006c02:	4b9a      	ldr	r3, [pc, #616]	; (8006e6c <main+0x2b4>)
 8006c04:	4a99      	ldr	r2, [pc, #612]	; (8006e6c <main+0x2b4>)
 8006c06:	f503 7380 	add.w	r3, r3, #256	; 0x100
 8006c0a:	e892 0003 	ldmia.w	r2, {r0, r1}
 8006c0e:	e883 0003 	stmia.w	r3, {r0, r1}
 8006c12:	2301      	movs	r3, #1
 8006c14:	f887 3047 	strb.w	r3, [r7, #71]	; 0x47
 8006c18:	e01b      	b.n	8006c52 <main+0x9a>
 8006c1a:	f897 3047 	ldrb.w	r3, [r7, #71]	; 0x47
 8006c1e:	4a93      	ldr	r2, [pc, #588]	; (8006e6c <main+0x2b4>)
 8006c20:	4992      	ldr	r1, [pc, #584]	; (8006e6c <main+0x2b4>)
 8006c22:	00db      	lsls	r3, r3, #3
 8006c24:	4413      	add	r3, r2
 8006c26:	460a      	mov	r2, r1
 8006c28:	e892 0003 	ldmia.w	r2, {r0, r1}
 8006c2c:	e883 0003 	stmia.w	r3, {r0, r1}
 8006c30:	f897 3047 	ldrb.w	r3, [r7, #71]	; 0x47
 8006c34:	4a8d      	ldr	r2, [pc, #564]	; (8006e6c <main+0x2b4>)
 8006c36:	3320      	adds	r3, #32
 8006c38:	498c      	ldr	r1, [pc, #560]	; (8006e6c <main+0x2b4>)
 8006c3a:	00db      	lsls	r3, r3, #3
 8006c3c:	4413      	add	r3, r2
 8006c3e:	460a      	mov	r2, r1
 8006c40:	e892 0003 	ldmia.w	r2, {r0, r1}
 8006c44:	e883 0003 	stmia.w	r3, {r0, r1}
 8006c48:	f897 3047 	ldrb.w	r3, [r7, #71]	; 0x47
 8006c4c:	3301      	adds	r3, #1
 8006c4e:	f887 3047 	strb.w	r3, [r7, #71]	; 0x47
 8006c52:	f897 3047 	ldrb.w	r3, [r7, #71]	; 0x47
 8006c56:	2b1f      	cmp	r3, #31
 8006c58:	d9df      	bls.n	8006c1a <main+0x62>
 8006c5a:	4885      	ldr	r0, [pc, #532]	; (8006e70 <main+0x2b8>)
 8006c5c:	f7fa fa4a 	bl	80010f4 <RCC_GetClocksFreq>
 8006c60:	f44f 707a 	mov.w	r0, #1000	; 0x3e8
 8006c64:	f7fb fa76 	bl	8002154 <systickInit>
 8006c68:	f7fe f898 	bl	8004d9c <PulsesInit>
 8006c6c:	f7fe f8f2 	bl	8004e54 <DisplayLedsIOInit>
 8006c70:	f7fb f882 	bl	8001d78 <DipConfig_init>
 8006c74:	f7fb f89a 	bl	8001dac <GetDipConfig>
 8006c78:	4602      	mov	r2, r0
 8006c7a:	4b7e      	ldr	r3, [pc, #504]	; (8006e74 <main+0x2bc>)
 8006c7c:	701a      	strb	r2, [r3, #0]
 8006c7e:	f7fb f93d 	bl	8001efc <LED_STEP_init>
 8006c82:	f64f 70ff 	movw	r0, #65535	; 0xffff
 8006c86:	f7fb f99b 	bl	8001fc0 <LED_STEP_SendWord>
 8006c8a:	f44f 707a 	mov.w	r0, #1000	; 0x3e8
 8006c8e:	f000 fa5b 	bl	8007148 <delay_ms>
 8006c92:	4b78      	ldr	r3, [pc, #480]	; (8006e74 <main+0x2bc>)
 8006c94:	781b      	ldrb	r3, [r3, #0]
 8006c96:	f443 437f 	orr.w	r3, r3, #65280	; 0xff00
 8006c9a:	f043 03f0 	orr.w	r3, r3, #240	; 0xf0
 8006c9e:	4618      	mov	r0, r3
 8006ca0:	f7fb f98e 	bl	8001fc0 <LED_STEP_SendWord>
 8006ca4:	f44f 707a 	mov.w	r0, #1000	; 0x3e8
 8006ca8:	f000 fa4e 	bl	8007148 <delay_ms>
 8006cac:	f7fa fc26 	bl	80014fc <CAT25512_init>
 8006cb0:	f7fb f8a8 	bl	8001e04 <LEDS_modes_init>
 8006cb4:	23ff      	movs	r3, #255	; 0xff
 8006cb6:	773b      	strb	r3, [r7, #28]
 8006cb8:	23ff      	movs	r3, #255	; 0xff
 8006cba:	777b      	strb	r3, [r7, #29]
 8006cbc:	23ff      	movs	r3, #255	; 0xff
 8006cbe:	77bb      	strb	r3, [r7, #30]
 8006cc0:	23ff      	movs	r3, #255	; 0xff
 8006cc2:	77fb      	strb	r3, [r7, #31]
 8006cc4:	7f3b      	ldrb	r3, [r7, #28]
 8006cc6:	f36f 0300 	bfc	r3, #0, #1
 8006cca:	773b      	strb	r3, [r7, #28]
 8006ccc:	7f3b      	ldrb	r3, [r7, #28]
 8006cce:	f36f 03c3 	bfc	r3, #3, #1
 8006cd2:	773b      	strb	r3, [r7, #28]
 8006cd4:	f107 031c 	add.w	r3, r7, #28
 8006cd8:	4618      	mov	r0, r3
 8006cda:	f7fb f8f3 	bl	8001ec4 <LEDS_modes_SendStruct>
 8006cde:	f7fa fd4d 	bl	800177c <init_HC165>
 8006ce2:	f7fa fe4d 	bl	8001980 <GetButton>
 8006ce6:	4603      	mov	r3, r0
 8006ce8:	460c      	mov	r4, r1
 8006cea:	e9c7 3404 	strd	r3, r4, [r7, #16]
 8006cee:	a45c      	add	r4, pc, #368	; (adr r4, 8006e60 <main+0x2a8>)
 8006cf0:	e9d4 3400 	ldrd	r3, r4, [r4]
 8006cf4:	e9c7 3402 	strd	r3, r4, [r7, #8]
 8006cf8:	f7fa fe92 	bl	8001a20 <MAX5135init>
 8006cfc:	f7fa ff0e 	bl	8001b1c <ADC_POTS_selector_init>
 8006d00:	2000      	movs	r0, #0
 8006d02:	f7fa ffb7 	bl	8001c74 <ADC_POTS_selector_Ch>
 8006d06:	f7fb fd31 	bl	800276c <mADC_init>
 8006d0a:	f7fd fca1 	bl	8004650 <mTimersInit>
 8006d0e:	f7fb fe07 	bl	8002920 <mInterruptInit>
 8006d12:	f7fe f8b9 	bl	8004e88 <InternalDACInit>
 8006d16:	f7fb f86d 	bl	8001df4 <Init_Expander_GPIO>
 8006d1a:	4b57      	ldr	r3, [pc, #348]	; (8006e78 <main+0x2c0>)
 8006d1c:	2202      	movs	r2, #2
 8006d1e:	701a      	strb	r2, [r3, #0]
 8006d20:	4b56      	ldr	r3, [pc, #344]	; (8006e7c <main+0x2c4>)
 8006d22:	2202      	movs	r2, #2
 8006d24:	701a      	strb	r2, [r3, #0]
 8006d26:	f000 fb53 	bl	80073d0 <versionInit>
 8006d2a:	f000 fb6d 	bl	8007408 <versionRevised>
 8006d2e:	4603      	mov	r3, r0
 8006d30:	461a      	mov	r2, r3
 8006d32:	4b53      	ldr	r3, [pc, #332]	; (8006e80 <main+0x2c8>)
 8006d34:	701a      	strb	r2, [r3, #0]
 8006d36:	f7fa fe23 	bl	8001980 <GetButton>
 8006d3a:	4603      	mov	r3, r0
 8006d3c:	460c      	mov	r4, r1
 8006d3e:	e9c7 3404 	strd	r3, r4, [r7, #16]
 8006d42:	e9d7 3404 	ldrd	r3, r4, [r7, #16]
 8006d46:	e9c7 3408 	strd	r3, r4, [r7, #32]
 8006d4a:	f897 3025 	ldrb.w	r3, [r7, #37]	; 0x25
 8006d4e:	f003 0301 	and.w	r3, r3, #1
 8006d52:	b2db      	uxtb	r3, r3
 8006d54:	2b00      	cmp	r3, #0
 8006d56:	d102      	bne.n	8006d5e <main+0x1a6>
 8006d58:	f7ff fe72 	bl	8006a40 <Calibration>
 8006d5c:	e033      	b.n	8006dc6 <main+0x20e>
 8006d5e:	f897 3023 	ldrb.w	r3, [r7, #35]	; 0x23
 8006d62:	f003 0320 	and.w	r3, r3, #32
 8006d66:	b2db      	uxtb	r3, r3
 8006d68:	2b00      	cmp	r3, #0
 8006d6a:	d109      	bne.n	8006d80 <main+0x1c8>
 8006d6c:	f897 3023 	ldrb.w	r3, [r7, #35]	; 0x23
 8006d70:	f023 037f 	bic.w	r3, r3, #127	; 0x7f
 8006d74:	b2db      	uxtb	r3, r3
 8006d76:	2b00      	cmp	r3, #0
 8006d78:	d102      	bne.n	8006d80 <main+0x1c8>
 8006d7a:	f7ff fde1 	bl	8006940 <PermutePulses>
 8006d7e:	e022      	b.n	8006dc6 <main+0x20e>
 8006d80:	2220      	movs	r2, #32
 8006d82:	4940      	ldr	r1, [pc, #256]	; (8006e84 <main+0x2cc>)
 8006d84:	f44f 4048 	mov.w	r0, #51200	; 0xc800
 8006d88:	f7fa fcd2 	bl	8001730 <CAT25512_read_block>
 8006d8c:	2300      	movs	r3, #0
 8006d8e:	633b      	str	r3, [r7, #48]	; 0x30
 8006d90:	e00e      	b.n	8006db0 <main+0x1f8>
 8006d92:	4a3c      	ldr	r2, [pc, #240]	; (8006e84 <main+0x2cc>)
 8006d94:	6b3b      	ldr	r3, [r7, #48]	; 0x30
 8006d96:	f852 3023 	ldr.w	r3, [r2, r3, lsl #2]
 8006d9a:	2b63      	cmp	r3, #99	; 0x63
 8006d9c:	d805      	bhi.n	8006daa <main+0x1f2>
 8006d9e:	4a39      	ldr	r2, [pc, #228]	; (8006e84 <main+0x2cc>)
 8006da0:	6b3b      	ldr	r3, [r7, #48]	; 0x30
 8006da2:	f640 71ff 	movw	r1, #4095	; 0xfff
 8006da6:	f842 1023 	str.w	r1, [r2, r3, lsl #2]
 8006daa:	6b3b      	ldr	r3, [r7, #48]	; 0x30
 8006dac:	3301      	adds	r3, #1
 8006dae:	633b      	str	r3, [r7, #48]	; 0x30
 8006db0:	6b3b      	ldr	r3, [r7, #48]	; 0x30
 8006db2:	2b07      	cmp	r3, #7
 8006db4:	dded      	ble.n	8006d92 <main+0x1da>
 8006db6:	f64c 0020 	movw	r0, #51232	; 0xc820
 8006dba:	f7fa fc41 	bl	8001640 <CAT25512_ReadByte>
 8006dbe:	4603      	mov	r3, r0
 8006dc0:	461a      	mov	r2, r3
 8006dc2:	4b31      	ldr	r3, [pc, #196]	; (8006e88 <main+0x2d0>)
 8006dc4:	701a      	strb	r2, [r3, #0]
 8006dc6:	4b2b      	ldr	r3, [pc, #172]	; (8006e74 <main+0x2bc>)
 8006dc8:	781b      	ldrb	r3, [r3, #0]
 8006dca:	f3c3 0340 	ubfx	r3, r3, #1, #1
 8006dce:	b2db      	uxtb	r3, r3
 8006dd0:	2b01      	cmp	r3, #1
 8006dd2:	d107      	bne.n	8006de4 <main+0x22c>
 8006dd4:	4b2d      	ldr	r3, [pc, #180]	; (8006e8c <main+0x2d4>)
 8006dd6:	f240 1299 	movw	r2, #409	; 0x199
 8006dda:	601a      	str	r2, [r3, #0]
 8006ddc:	4b2c      	ldr	r3, [pc, #176]	; (8006e90 <main+0x2d8>)
 8006dde:	4a2d      	ldr	r2, [pc, #180]	; (8006e94 <main+0x2dc>)
 8006de0:	601a      	str	r2, [r3, #0]
 8006de2:	e015      	b.n	8006e10 <main+0x258>
 8006de4:	4b23      	ldr	r3, [pc, #140]	; (8006e74 <main+0x2bc>)
 8006de6:	781b      	ldrb	r3, [r3, #0]
 8006de8:	f3c3 0300 	ubfx	r3, r3, #0, #1
 8006dec:	b2db      	uxtb	r3, r3
 8006dee:	2b01      	cmp	r3, #1
 8006df0:	d107      	bne.n	8006e02 <main+0x24a>
 8006df2:	4b26      	ldr	r3, [pc, #152]	; (8006e8c <main+0x2d4>)
 8006df4:	f240 12ed 	movw	r2, #493	; 0x1ed
 8006df8:	601a      	str	r2, [r3, #0]
 8006dfa:	4b25      	ldr	r3, [pc, #148]	; (8006e90 <main+0x2d8>)
 8006dfc:	4a26      	ldr	r2, [pc, #152]	; (8006e98 <main+0x2e0>)
 8006dfe:	601a      	str	r2, [r3, #0]
 8006e00:	e006      	b.n	8006e10 <main+0x258>
 8006e02:	4b22      	ldr	r3, [pc, #136]	; (8006e8c <main+0x2d4>)
 8006e04:	f240 3233 	movw	r2, #819	; 0x333
 8006e08:	601a      	str	r2, [r3, #0]
 8006e0a:	4b21      	ldr	r3, [pc, #132]	; (8006e90 <main+0x2d8>)
 8006e0c:	4a23      	ldr	r2, [pc, #140]	; (8006e9c <main+0x2e4>)
 8006e0e:	601a      	str	r2, [r3, #0]
 8006e10:	4b23      	ldr	r3, [pc, #140]	; (8006ea0 <main+0x2e8>)
 8006e12:	681b      	ldr	r3, [r3, #0]
 8006e14:	b29a      	uxth	r2, r3
 8006e16:	6c3b      	ldr	r3, [r7, #64]	; 0x40
 8006e18:	b29b      	uxth	r3, r3
 8006e1a:	1ad3      	subs	r3, r2, r3
 8006e1c:	b29b      	uxth	r3, r3
 8006e1e:	2b05      	cmp	r3, #5
 8006e20:	d976      	bls.n	8006f10 <main+0x358>
 8006e22:	f7fa fdad 	bl	8001980 <GetButton>
 8006e26:	4603      	mov	r3, r0
 8006e28:	460c      	mov	r4, r1
 8006e2a:	e9c7 3400 	strd	r3, r4, [r7]
 8006e2e:	4b1c      	ldr	r3, [pc, #112]	; (8006ea0 <main+0x2e8>)
 8006e30:	681b      	ldr	r3, [r3, #0]
 8006e32:	643b      	str	r3, [r7, #64]	; 0x40
 8006e34:	e9d7 1200 	ldrd	r1, r2, [r7]
 8006e38:	e9d7 3404 	ldrd	r3, r4, [r7, #16]
 8006e3c:	42a2      	cmp	r2, r4
 8006e3e:	bf08      	it	eq
 8006e40:	4299      	cmpeq	r1, r3
 8006e42:	d12f      	bne.n	8006ea4 <main+0x2ec>
 8006e44:	8ffb      	ldrh	r3, [r7, #62]	; 0x3e
 8006e46:	3b01      	subs	r3, #1
 8006e48:	87fb      	strh	r3, [r7, #62]	; 0x3e
 8006e4a:	8ffb      	ldrh	r3, [r7, #62]	; 0x3e
 8006e4c:	2b00      	cmp	r3, #0
 8006e4e:	d132      	bne.n	8006eb6 <main+0x2fe>
 8006e50:	2301      	movs	r3, #1
 8006e52:	f887 303d 	strb.w	r3, [r7, #61]	; 0x3d
 8006e56:	2303      	movs	r3, #3
 8006e58:	87fb      	strh	r3, [r7, #62]	; 0x3e
 8006e5a:	e02c      	b.n	8006eb6 <main+0x2fe>
 8006e5c:	f3af 8000 	nop.w
 8006e60:	f7fffdff 	.word	0xf7fffdff
 8006e64:	007fbf67 	.word	0x007fbf67
 8006e68:	200002e0 	.word	0x200002e0
 8006e6c:	20000948 	.word	0x20000948
 8006e70:	20000bc8 	.word	0x20000bc8
 8006e74:	200002d8 	.word	0x200002d8
 8006e78:	200002ad 	.word	0x200002ad
 8006e7c:	200002ae 	.word	0x200002ae
 8006e80:	200008c2 	.word	0x200008c2
 8006e84:	20000250 	.word	0x20000250
 8006e88:	20000295 	.word	0x20000295
 8006e8c:	20000944 	.word	0x20000944
 8006e90:	200008bc 	.word	0x200008bc
 8006e94:	41200000 	.word	0x41200000
 8006e98:	4104a3d7 	.word	0x4104a3d7
 8006e9c:	40a00000 	.word	0x40a00000
 8006ea0:	20000c1c 	.word	0x20000c1c
 8006ea4:	2303      	movs	r3, #3
 8006ea6:	87fb      	strh	r3, [r7, #62]	; 0x3e
 8006ea8:	e9d7 3400 	ldrd	r3, r4, [r7]
 8006eac:	e9c7 3404 	strd	r3, r4, [r7, #16]
 8006eb0:	2300      	movs	r3, #0
 8006eb2:	f887 303d 	strb.w	r3, [r7, #61]	; 0x3d
 8006eb6:	f897 303d 	ldrb.w	r3, [r7, #61]	; 0x3d
 8006eba:	2b00      	cmp	r3, #0
 8006ebc:	d028      	beq.n	8006f10 <main+0x358>
 8006ebe:	e9d7 3404 	ldrd	r3, r4, [r7, #16]
 8006ec2:	e9c7 3408 	strd	r3, r4, [r7, #32]
 8006ec6:	e9d7 1204 	ldrd	r1, r2, [r7, #16]
 8006eca:	e9d7 3402 	ldrd	r3, r4, [r7, #8]
 8006ece:	42a2      	cmp	r2, r4
 8006ed0:	bf08      	it	eq
 8006ed2:	4299      	cmpeq	r1, r3
 8006ed4:	d10d      	bne.n	8006ef2 <main+0x33a>
 8006ed6:	f897 3020 	ldrb.w	r3, [r7, #32]
 8006eda:	f003 0308 	and.w	r3, r3, #8
 8006ede:	b2db      	uxtb	r3, r3
 8006ee0:	2b00      	cmp	r3, #0
 8006ee2:	d006      	beq.n	8006ef2 <main+0x33a>
 8006ee4:	f897 3020 	ldrb.w	r3, [r7, #32]
 8006ee8:	f003 0304 	and.w	r3, r3, #4
 8006eec:	b2db      	uxtb	r3, r3
 8006eee:	2b00      	cmp	r3, #0
 8006ef0:	d10e      	bne.n	8006f10 <main+0x358>
 8006ef2:	4b8d      	ldr	r3, [pc, #564]	; (8007128 <main+0x570>)
 8006ef4:	2200      	movs	r2, #0
 8006ef6:	801a      	strh	r2, [r3, #0]
 8006ef8:	f107 0320 	add.w	r3, r7, #32
 8006efc:	4618      	mov	r0, r3
 8006efe:	f7fe f807 	bl	8004f10 <keyb_proc>
 8006f02:	4b89      	ldr	r3, [pc, #548]	; (8007128 <main+0x570>)
 8006f04:	2201      	movs	r2, #1
 8006f06:	801a      	strh	r2, [r3, #0]
 8006f08:	e9d7 3404 	ldrd	r3, r4, [r7, #16]
 8006f0c:	e9c7 3402 	strd	r3, r4, [r7, #8]
 8006f10:	4b86      	ldr	r3, [pc, #536]	; (800712c <main+0x574>)
 8006f12:	781b      	ldrb	r3, [r3, #0]
 8006f14:	f3c3 0300 	ubfx	r3, r3, #0, #1
 8006f18:	b2db      	uxtb	r3, r3
 8006f1a:	2b00      	cmp	r3, #0
 8006f1c:	d01f      	beq.n	8006f5e <main+0x3a6>
 8006f1e:	f7ff fa1f 	bl	8006360 <UpdateModeSection>
 8006f22:	4a82      	ldr	r2, [pc, #520]	; (800712c <main+0x574>)
 8006f24:	7813      	ldrb	r3, [r2, #0]
 8006f26:	f36f 0300 	bfc	r3, #0, #1
 8006f2a:	7013      	strb	r3, [r2, #0]
 8006f2c:	4b80      	ldr	r3, [pc, #512]	; (8007130 <main+0x578>)
 8006f2e:	781b      	ldrb	r3, [r3, #0]
 8006f30:	b2db      	uxtb	r3, r3
 8006f32:	2b04      	cmp	r3, #4
 8006f34:	d00e      	beq.n	8006f54 <main+0x39c>
 8006f36:	4b7e      	ldr	r3, [pc, #504]	; (8007130 <main+0x578>)
 8006f38:	781b      	ldrb	r3, [r3, #0]
 8006f3a:	b2db      	uxtb	r3, r3
 8006f3c:	2b05      	cmp	r3, #5
 8006f3e:	d009      	beq.n	8006f54 <main+0x39c>
 8006f40:	4b7b      	ldr	r3, [pc, #492]	; (8007130 <main+0x578>)
 8006f42:	781b      	ldrb	r3, [r3, #0]
 8006f44:	b2db      	uxtb	r3, r3
 8006f46:	2b06      	cmp	r3, #6
 8006f48:	d004      	beq.n	8006f54 <main+0x39c>
 8006f4a:	4b79      	ldr	r3, [pc, #484]	; (8007130 <main+0x578>)
 8006f4c:	781b      	ldrb	r3, [r3, #0]
 8006f4e:	b2db      	uxtb	r3, r3
 8006f50:	2b07      	cmp	r3, #7
 8006f52:	d104      	bne.n	8006f5e <main+0x3a6>
 8006f54:	4a75      	ldr	r2, [pc, #468]	; (800712c <main+0x574>)
 8006f56:	7813      	ldrb	r3, [r2, #0]
 8006f58:	f043 0301 	orr.w	r3, r3, #1
 8006f5c:	7013      	strb	r3, [r2, #0]
 8006f5e:	4b73      	ldr	r3, [pc, #460]	; (800712c <main+0x574>)
 8006f60:	781b      	ldrb	r3, [r3, #0]
 8006f62:	f3c3 0340 	ubfx	r3, r3, #1, #1
 8006f66:	b2db      	uxtb	r3, r3
 8006f68:	2b00      	cmp	r3, #0
 8006f6a:	d006      	beq.n	8006f7a <main+0x3c2>
 8006f6c:	f7ff fca2 	bl	80068b4 <UpdateStepSection>
 8006f70:	4a6e      	ldr	r2, [pc, #440]	; (800712c <main+0x574>)
 8006f72:	7813      	ldrb	r3, [r2, #0]
 8006f74:	f36f 0341 	bfc	r3, #1, #1
 8006f78:	7013      	strb	r3, [r2, #0]
 8006f7a:	2300      	movs	r3, #0
 8006f7c:	62fb      	str	r3, [r7, #44]	; 0x2c
 8006f7e:	e0ce      	b.n	800711e <main+0x566>
 8006f80:	f7fa ff39 	bl	8001df6 <Is_Expander_Present>
 8006f84:	4603      	mov	r3, r0
 8006f86:	2b00      	cmp	r3, #0
 8006f88:	d003      	beq.n	8006f92 <main+0x3da>
 8006f8a:	231f      	movs	r3, #31
 8006f8c:	f887 303c 	strb.w	r3, [r7, #60]	; 0x3c
 8006f90:	e00e      	b.n	8006fb0 <main+0x3f8>
 8006f92:	230f      	movs	r3, #15
 8006f94:	f887 303c 	strb.w	r3, [r7, #60]	; 0x3c
 8006f98:	4a66      	ldr	r2, [pc, #408]	; (8007134 <main+0x57c>)
 8006f9a:	6afb      	ldr	r3, [r7, #44]	; 0x2c
 8006f9c:	4413      	add	r3, r2
 8006f9e:	781b      	ldrb	r3, [r3, #0]
 8006fa0:	b2db      	uxtb	r3, r3
 8006fa2:	2b10      	cmp	r3, #16
 8006fa4:	d904      	bls.n	8006fb0 <main+0x3f8>
 8006fa6:	4a63      	ldr	r2, [pc, #396]	; (8007134 <main+0x57c>)
 8006fa8:	6afb      	ldr	r3, [r7, #44]	; 0x2c
 8006faa:	4413      	add	r3, r2
 8006fac:	2201      	movs	r2, #1
 8006fae:	701a      	strb	r2, [r3, #0]
 8006fb0:	2300      	movs	r3, #0
 8006fb2:	877b      	strh	r3, [r7, #58]	; 0x3a
 8006fb4:	2300      	movs	r3, #0
 8006fb6:	873b      	strh	r3, [r7, #56]	; 0x38
 8006fb8:	4a5e      	ldr	r2, [pc, #376]	; (8007134 <main+0x57c>)
 8006fba:	6afb      	ldr	r3, [r7, #44]	; 0x2c
 8006fbc:	4413      	add	r3, r2
 8006fbe:	781b      	ldrb	r3, [r3, #0]
 8006fc0:	b2d9      	uxtb	r1, r3
 8006fc2:	4a5d      	ldr	r2, [pc, #372]	; (8007138 <main+0x580>)
 8006fc4:	6afb      	ldr	r3, [r7, #44]	; 0x2c
 8006fc6:	4413      	add	r3, r2
 8006fc8:	460a      	mov	r2, r1
 8006fca:	701a      	strb	r2, [r3, #0]
 8006fcc:	4a59      	ldr	r2, [pc, #356]	; (8007134 <main+0x57c>)
 8006fce:	6afb      	ldr	r3, [r7, #44]	; 0x2c
 8006fd0:	4413      	add	r3, r2
 8006fd2:	781b      	ldrb	r3, [r3, #0]
 8006fd4:	b2db      	uxtb	r3, r3
 8006fd6:	461a      	mov	r2, r3
 8006fd8:	f897 303c 	ldrb.w	r3, [r7, #60]	; 0x3c
 8006fdc:	3301      	adds	r3, #1
 8006fde:	429a      	cmp	r2, r3
 8006fe0:	da14      	bge.n	800700c <main+0x454>
 8006fe2:	4a54      	ldr	r2, [pc, #336]	; (8007134 <main+0x57c>)
 8006fe4:	6afb      	ldr	r3, [r7, #44]	; 0x2c
 8006fe6:	4413      	add	r3, r2
 8006fe8:	781b      	ldrb	r3, [r3, #0]
 8006fea:	b2db      	uxtb	r3, r3
 8006fec:	4619      	mov	r1, r3
 8006fee:	6afb      	ldr	r3, [r7, #44]	; 0x2c
 8006ff0:	3306      	adds	r3, #6
 8006ff2:	4a52      	ldr	r2, [pc, #328]	; (800713c <main+0x584>)
 8006ff4:	f852 3023 	ldr.w	r3, [r2, r3, lsl #2]
 8006ff8:	fb03 f301 	mul.w	r3, r3, r1
 8006ffc:	f897 203c 	ldrb.w	r2, [r7, #60]	; 0x3c
 8007000:	3201      	adds	r2, #1
 8007002:	fbb3 f3f2 	udiv	r3, r3, r2
 8007006:	b29b      	uxth	r3, r3
 8007008:	3314      	adds	r3, #20
 800700a:	877b      	strh	r3, [r7, #58]	; 0x3a
 800700c:	4a49      	ldr	r2, [pc, #292]	; (8007134 <main+0x57c>)
 800700e:	6afb      	ldr	r3, [r7, #44]	; 0x2c
 8007010:	4413      	add	r3, r2
 8007012:	781b      	ldrb	r3, [r3, #0]
 8007014:	b2db      	uxtb	r3, r3
 8007016:	2b01      	cmp	r3, #1
 8007018:	d915      	bls.n	8007046 <main+0x48e>
 800701a:	4a46      	ldr	r2, [pc, #280]	; (8007134 <main+0x57c>)
 800701c:	6afb      	ldr	r3, [r7, #44]	; 0x2c
 800701e:	4413      	add	r3, r2
 8007020:	781b      	ldrb	r3, [r3, #0]
 8007022:	b2db      	uxtb	r3, r3
 8007024:	3b01      	subs	r3, #1
 8007026:	4619      	mov	r1, r3
 8007028:	6afb      	ldr	r3, [r7, #44]	; 0x2c
 800702a:	3306      	adds	r3, #6
 800702c:	4a43      	ldr	r2, [pc, #268]	; (800713c <main+0x584>)
 800702e:	f852 3023 	ldr.w	r3, [r2, r3, lsl #2]
 8007032:	fb03 f301 	mul.w	r3, r3, r1
 8007036:	f897 203c 	ldrb.w	r2, [r7, #60]	; 0x3c
 800703a:	3201      	adds	r2, #1
 800703c:	fbb3 f3f2 	udiv	r3, r3, r2
 8007040:	b29b      	uxth	r3, r3
 8007042:	3b14      	subs	r3, #20
 8007044:	873b      	strh	r3, [r7, #56]	; 0x38
 8007046:	2300      	movs	r3, #0
 8007048:	62bb      	str	r3, [r7, #40]	; 0x28
 800704a:	2300      	movs	r3, #0
 800704c:	633b      	str	r3, [r7, #48]	; 0x30
 800704e:	e022      	b.n	8007096 <main+0x4de>
 8007050:	6afb      	ldr	r3, [r7, #44]	; 0x2c
 8007052:	2b00      	cmp	r3, #0
 8007054:	d10e      	bne.n	8007074 <main+0x4bc>
 8007056:	4b3a      	ldr	r3, [pc, #232]	; (8007140 <main+0x588>)
 8007058:	899b      	ldrh	r3, [r3, #12]
 800705a:	86fb      	strh	r3, [r7, #54]	; 0x36
 800705c:	8efb      	ldrh	r3, [r7, #54]	; 0x36
 800705e:	f5b3 5f80 	cmp.w	r3, #4096	; 0x1000
 8007062:	d302      	bcc.n	800706a <main+0x4b2>
 8007064:	f640 73ff 	movw	r3, #4095	; 0xfff
 8007068:	86fb      	strh	r3, [r7, #54]	; 0x36
 800706a:	8efb      	ldrh	r3, [r7, #54]	; 0x36
 800706c:	6aba      	ldr	r2, [r7, #40]	; 0x28
 800706e:	4413      	add	r3, r2
 8007070:	62bb      	str	r3, [r7, #40]	; 0x28
 8007072:	e00d      	b.n	8007090 <main+0x4d8>
 8007074:	4b32      	ldr	r3, [pc, #200]	; (8007140 <main+0x588>)
 8007076:	89db      	ldrh	r3, [r3, #14]
 8007078:	86fb      	strh	r3, [r7, #54]	; 0x36
 800707a:	8efb      	ldrh	r3, [r7, #54]	; 0x36
 800707c:	f5b3 5f80 	cmp.w	r3, #4096	; 0x1000
 8007080:	d302      	bcc.n	8007088 <main+0x4d0>
 8007082:	f640 73ff 	movw	r3, #4095	; 0xfff
 8007086:	86fb      	strh	r3, [r7, #54]	; 0x36
 8007088:	8efb      	ldrh	r3, [r7, #54]	; 0x36
 800708a:	6aba      	ldr	r2, [r7, #40]	; 0x28
 800708c:	4413      	add	r3, r2
 800708e:	62bb      	str	r3, [r7, #40]	; 0x28
 8007090:	6b3b      	ldr	r3, [r7, #48]	; 0x30
 8007092:	3301      	adds	r3, #1
 8007094:	633b      	str	r3, [r7, #48]	; 0x30
 8007096:	6b3b      	ldr	r3, [r7, #48]	; 0x30
 8007098:	2b09      	cmp	r3, #9
 800709a:	ddd9      	ble.n	8007050 <main+0x498>
 800709c:	4a25      	ldr	r2, [pc, #148]	; (8007134 <main+0x57c>)
 800709e:	6afb      	ldr	r3, [r7, #44]	; 0x2c
 80070a0:	4413      	add	r3, r2
 80070a2:	781b      	ldrb	r3, [r3, #0]
 80070a4:	b2db      	uxtb	r3, r3
 80070a6:	461a      	mov	r2, r3
 80070a8:	f897 303c 	ldrb.w	r3, [r7, #60]	; 0x3c
 80070ac:	3301      	adds	r3, #1
 80070ae:	429a      	cmp	r2, r3
 80070b0:	da15      	bge.n	80070de <main+0x526>
 80070b2:	6abb      	ldr	r3, [r7, #40]	; 0x28
 80070b4:	4a23      	ldr	r2, [pc, #140]	; (8007144 <main+0x58c>)
 80070b6:	fb82 1203 	smull	r1, r2, r2, r3
 80070ba:	1092      	asrs	r2, r2, #2
 80070bc:	17db      	asrs	r3, r3, #31
 80070be:	1ad2      	subs	r2, r2, r3
 80070c0:	8f7b      	ldrh	r3, [r7, #58]	; 0x3a
 80070c2:	429a      	cmp	r2, r3
 80070c4:	dd0b      	ble.n	80070de <main+0x526>
 80070c6:	4a1b      	ldr	r2, [pc, #108]	; (8007134 <main+0x57c>)
 80070c8:	6afb      	ldr	r3, [r7, #44]	; 0x2c
 80070ca:	4413      	add	r3, r2
 80070cc:	781b      	ldrb	r3, [r3, #0]
 80070ce:	b2db      	uxtb	r3, r3
 80070d0:	3301      	adds	r3, #1
 80070d2:	b2d9      	uxtb	r1, r3
 80070d4:	4a17      	ldr	r2, [pc, #92]	; (8007134 <main+0x57c>)
 80070d6:	6afb      	ldr	r3, [r7, #44]	; 0x2c
 80070d8:	4413      	add	r3, r2
 80070da:	460a      	mov	r2, r1
 80070dc:	701a      	strb	r2, [r3, #0]
 80070de:	4a15      	ldr	r2, [pc, #84]	; (8007134 <main+0x57c>)
 80070e0:	6afb      	ldr	r3, [r7, #44]	; 0x2c
 80070e2:	4413      	add	r3, r2
 80070e4:	781b      	ldrb	r3, [r3, #0]
 80070e6:	b2db      	uxtb	r3, r3
 80070e8:	2b01      	cmp	r3, #1
 80070ea:	d915      	bls.n	8007118 <main+0x560>
 80070ec:	6abb      	ldr	r3, [r7, #40]	; 0x28
 80070ee:	4a15      	ldr	r2, [pc, #84]	; (8007144 <main+0x58c>)
 80070f0:	fb82 1203 	smull	r1, r2, r2, r3
 80070f4:	1092      	asrs	r2, r2, #2
 80070f6:	17db      	asrs	r3, r3, #31
 80070f8:	1ad2      	subs	r2, r2, r3
 80070fa:	8f3b      	ldrh	r3, [r7, #56]	; 0x38
 80070fc:	429a      	cmp	r2, r3
 80070fe:	da0b      	bge.n	8007118 <main+0x560>
 8007100:	4a0c      	ldr	r2, [pc, #48]	; (8007134 <main+0x57c>)
 8007102:	6afb      	ldr	r3, [r7, #44]	; 0x2c
 8007104:	4413      	add	r3, r2
 8007106:	781b      	ldrb	r3, [r3, #0]
 8007108:	b2db      	uxtb	r3, r3
 800710a:	3b01      	subs	r3, #1
 800710c:	b2d9      	uxtb	r1, r3
 800710e:	4a09      	ldr	r2, [pc, #36]	; (8007134 <main+0x57c>)
 8007110:	6afb      	ldr	r3, [r7, #44]	; 0x2c
 8007112:	4413      	add	r3, r2
 8007114:	460a      	mov	r2, r1
 8007116:	701a      	strb	r2, [r3, #0]
 8007118:	6afb      	ldr	r3, [r7, #44]	; 0x2c
 800711a:	3301      	adds	r3, #1
 800711c:	62fb      	str	r3, [r7, #44]	; 0x2c
 800711e:	6afb      	ldr	r3, [r7, #44]	; 0x2c
 8007120:	2b01      	cmp	r3, #1
 8007122:	f77f af2d 	ble.w	8006f80 <main+0x3c8>
 8007126:	e64e      	b.n	8006dc6 <main+0x20e>
 8007128:	2000083a 	.word	0x2000083a
 800712c:	200002e0 	.word	0x200002e0
 8007130:	20000296 	.word	0x20000296
 8007134:	20000270 	.word	0x20000270
 8007138:	20000274 	.word	0x20000274
 800713c:	20000250 	.word	0x20000250
 8007140:	20000828 	.word	0x20000828
 8007144:	66666667 	.word	0x66666667

08007148 <delay_ms>:
 8007148:	b580      	push	{r7, lr}
 800714a:	b088      	sub	sp, #32
 800714c:	af00      	add	r7, sp, #0
 800714e:	6078      	str	r0, [r7, #4]
 8007150:	f107 030c 	add.w	r3, r7, #12
 8007154:	4618      	mov	r0, r3
 8007156:	f7f9 ffcd 	bl	80010f4 <RCC_GetClocksFreq>
 800715a:	693b      	ldr	r3, [r7, #16]
 800715c:	4a09      	ldr	r2, [pc, #36]	; (8007184 <delay_ms+0x3c>)
 800715e:	fba2 2303 	umull	r2, r3, r2, r3
 8007162:	0b5b      	lsrs	r3, r3, #13
 8007164:	687a      	ldr	r2, [r7, #4]
 8007166:	fb02 f303 	mul.w	r3, r2, r3
 800716a:	61fb      	str	r3, [r7, #28]
 800716c:	e002      	b.n	8007174 <delay_ms+0x2c>
 800716e:	69fb      	ldr	r3, [r7, #28]
 8007170:	3b01      	subs	r3, #1
 8007172:	61fb      	str	r3, [r7, #28]
 8007174:	69fb      	ldr	r3, [r7, #28]
 8007176:	2b00      	cmp	r3, #0
 8007178:	d1f9      	bne.n	800716e <delay_ms+0x26>
 800717a:	bf00      	nop
 800717c:	3720      	adds	r7, #32
 800717e:	46bd      	mov	sp, r7
 8007180:	bd80      	pop	{r7, pc}
 8007182:	bf00      	nop
 8007184:	d1b71759 	.word	0xd1b71759

08007188 <delay_us>:
 8007188:	b580      	push	{r7, lr}
 800718a:	b088      	sub	sp, #32
 800718c:	af00      	add	r7, sp, #0
 800718e:	6078      	str	r0, [r7, #4]
 8007190:	f107 030c 	add.w	r3, r7, #12
 8007194:	4618      	mov	r0, r3
 8007196:	f7f9 ffad 	bl	80010f4 <RCC_GetClocksFreq>
 800719a:	693b      	ldr	r3, [r7, #16]
 800719c:	4a09      	ldr	r2, [pc, #36]	; (80071c4 <delay_us+0x3c>)
 800719e:	fba2 2303 	umull	r2, r3, r2, r3
 80071a2:	0d9b      	lsrs	r3, r3, #22
 80071a4:	687a      	ldr	r2, [r7, #4]
 80071a6:	fb02 f303 	mul.w	r3, r2, r3
 80071aa:	61fb      	str	r3, [r7, #28]
 80071ac:	e002      	b.n	80071b4 <delay_us+0x2c>
 80071ae:	69fb      	ldr	r3, [r7, #28]
 80071b0:	3b01      	subs	r3, #1
 80071b2:	61fb      	str	r3, [r7, #28]
 80071b4:	69fb      	ldr	r3, [r7, #28]
 80071b6:	2b00      	cmp	r3, #0
 80071b8:	d1f9      	bne.n	80071ae <delay_us+0x26>
 80071ba:	bf00      	nop
 80071bc:	3720      	adds	r7, #32
 80071be:	46bd      	mov	sp, r7
 80071c0:	bd80      	pop	{r7, pc}
 80071c2:	bf00      	nop
 80071c4:	6b5fca6b 	.word	0x6b5fca6b

080071c8 <delay_ns>:
 80071c8:	b590      	push	{r4, r7, lr}
 80071ca:	b089      	sub	sp, #36	; 0x24
 80071cc:	af00      	add	r7, sp, #0
 80071ce:	6078      	str	r0, [r7, #4]
 80071d0:	f107 030c 	add.w	r3, r7, #12
 80071d4:	4618      	mov	r0, r3
 80071d6:	f7f9 ff8d 	bl	80010f4 <RCC_GetClocksFreq>
 80071da:	693b      	ldr	r3, [r7, #16]
 80071dc:	4618      	mov	r0, r3
 80071de:	f04f 0100 	mov.w	r1, #0
 80071e2:	a30b      	add	r3, pc, #44	; (adr r3, 8007210 <delay_ns+0x48>)
 80071e4:	e9d3 2300 	ldrd	r2, r3, [r3]
 80071e8:	f7f9 fbe4 	bl	80009b4 <__aeabi_ldivmod>
 80071ec:	4603      	mov	r3, r0
 80071ee:	460c      	mov	r4, r1
 80071f0:	461a      	mov	r2, r3
 80071f2:	687b      	ldr	r3, [r7, #4]
 80071f4:	fb03 f302 	mul.w	r3, r3, r2
 80071f8:	61fb      	str	r3, [r7, #28]
 80071fa:	e002      	b.n	8007202 <delay_ns+0x3a>
 80071fc:	69fb      	ldr	r3, [r7, #28]
 80071fe:	3b01      	subs	r3, #1
 8007200:	61fb      	str	r3, [r7, #28]
 8007202:	69fb      	ldr	r3, [r7, #28]
 8007204:	2b00      	cmp	r3, #0
 8007206:	d1f9      	bne.n	80071fc <delay_ns+0x34>
 8007208:	bf00      	nop
 800720a:	3724      	adds	r7, #36	; 0x24
 800720c:	46bd      	mov	sp, r7
 800720e:	bd90      	pop	{r4, r7, pc}
 8007210:	540be400 	.word	0x540be400
 8007214:	00000002 	.word	0x00000002

08007218 <Reset_Handler>:
 8007218:	f8df d034 	ldr.w	sp, [pc, #52]	; 8007250 <LoopFillZerobss+0x14>
 800721c:	2100      	movs	r1, #0
 800721e:	e003      	b.n	8007228 <LoopCopyDataInit>

08007220 <CopyDataInit>:
 8007220:	4b0c      	ldr	r3, [pc, #48]	; (8007254 <LoopFillZerobss+0x18>)
 8007222:	585b      	ldr	r3, [r3, r1]
 8007224:	5043      	str	r3, [r0, r1]
 8007226:	3104      	adds	r1, #4

08007228 <LoopCopyDataInit>:
 8007228:	480b      	ldr	r0, [pc, #44]	; (8007258 <LoopFillZerobss+0x1c>)
 800722a:	4b0c      	ldr	r3, [pc, #48]	; (800725c <LoopFillZerobss+0x20>)
 800722c:	1842      	adds	r2, r0, r1
 800722e:	429a      	cmp	r2, r3
 8007230:	d3f6      	bcc.n	8007220 <CopyDataInit>
 8007232:	4a0b      	ldr	r2, [pc, #44]	; (8007260 <LoopFillZerobss+0x24>)
 8007234:	e002      	b.n	800723c <LoopFillZerobss>

08007236 <FillZerobss>:
 8007236:	2300      	movs	r3, #0
 8007238:	f842 3b04 	str.w	r3, [r2], #4

0800723c <LoopFillZerobss>:
 800723c:	4b09      	ldr	r3, [pc, #36]	; (8007264 <LoopFillZerobss+0x28>)
 800723e:	429a      	cmp	r2, r3
 8007240:	d3f9      	bcc.n	8007236 <FillZerobss>
 8007242:	f000 f831 	bl	80072a8 <SystemInit>
 8007246:	f000 f8eb 	bl	8007420 <__libc_init_array>
 800724a:	f7ff fcb5 	bl	8006bb8 <main>
 800724e:	4770      	bx	lr
 8007250:	20020000 	.word	0x20020000
 8007254:	080074b0 	.word	0x080074b0
 8007258:	20000000 	.word	0x20000000
 800725c:	20000278 	.word	0x20000278
 8007260:	20000278 	.word	0x20000278
 8007264:	20000c20 	.word	0x20000c20

08007268 <CAN1_RX0_IRQHandler>:
 8007268:	e7fe      	b.n	8007268 <CAN1_RX0_IRQHandler>

0800726a <NMI_Handler>:
 800726a:	4770      	bx	lr

0800726c <HardFault_Handler>:
 800726c:	e7fe      	b.n	800726c <HardFault_Handler>

0800726e <MemManage_Handler>:
 800726e:	e7fe      	b.n	800726e <MemManage_Handler>

08007270 <BusFault_Handler>:
 8007270:	e7fe      	b.n	8007270 <BusFault_Handler>

08007272 <UsageFault_Handler>:
 8007272:	e7fe      	b.n	8007272 <UsageFault_Handler>

08007274 <SVC_Handler>:
 8007274:	4770      	bx	lr

08007276 <DebugMon_Handler>:
 8007276:	4770      	bx	lr

08007278 <PendSV_Handler>:
 8007278:	4770      	bx	lr

0800727a <_write>:
 800727a:	b510      	push	{r4, lr}
 800727c:	2300      	movs	r3, #0
 800727e:	f04f 4460 	mov.w	r4, #3758096384	; 0xe0000000
 8007282:	4293      	cmp	r3, r2
 8007284:	db01      	blt.n	800728a <_write+0x10>
 8007286:	4610      	mov	r0, r2
 8007288:	bd10      	pop	{r4, pc}
 800728a:	f8d4 0e80 	ldr.w	r0, [r4, #3712]	; 0xe80
 800728e:	07c0      	lsls	r0, r0, #31
 8007290:	d508      	bpl.n	80072a4 <_write+0x2a>
 8007292:	f8d4 0e00 	ldr.w	r0, [r4, #3584]	; 0xe00
 8007296:	07c0      	lsls	r0, r0, #31
 8007298:	d504      	bpl.n	80072a4 <_write+0x2a>
 800729a:	6820      	ldr	r0, [r4, #0]
 800729c:	2800      	cmp	r0, #0
 800729e:	d0fc      	beq.n	800729a <_write+0x20>
 80072a0:	5cc8      	ldrb	r0, [r1, r3]
 80072a2:	7020      	strb	r0, [r4, #0]
 80072a4:	3301      	adds	r3, #1
 80072a6:	e7ec      	b.n	8007282 <_write+0x8>

080072a8 <SystemInit>:
 80072a8:	4a36      	ldr	r2, [pc, #216]	; (8007384 <SystemInit+0xdc>)
 80072aa:	f8d2 3088 	ldr.w	r3, [r2, #136]	; 0x88
 80072ae:	f443 0370 	orr.w	r3, r3, #15728640	; 0xf00000
 80072b2:	f8c2 3088 	str.w	r3, [r2, #136]	; 0x88
 80072b6:	4b34      	ldr	r3, [pc, #208]	; (8007388 <SystemInit+0xe0>)
 80072b8:	681a      	ldr	r2, [r3, #0]
 80072ba:	2100      	movs	r1, #0
 80072bc:	f042 0201 	orr.w	r2, r2, #1
 80072c0:	601a      	str	r2, [r3, #0]
 80072c2:	6099      	str	r1, [r3, #8]
 80072c4:	681a      	ldr	r2, [r3, #0]
 80072c6:	f022 7284 	bic.w	r2, r2, #17301504	; 0x1080000
 80072ca:	f422 3280 	bic.w	r2, r2, #65536	; 0x10000
 80072ce:	601a      	str	r2, [r3, #0]
 80072d0:	4a2e      	ldr	r2, [pc, #184]	; (800738c <SystemInit+0xe4>)
 80072d2:	605a      	str	r2, [r3, #4]
 80072d4:	681a      	ldr	r2, [r3, #0]
 80072d6:	b082      	sub	sp, #8
 80072d8:	f422 2280 	bic.w	r2, r2, #262144	; 0x40000
 80072dc:	601a      	str	r2, [r3, #0]
 80072de:	60d9      	str	r1, [r3, #12]
 80072e0:	9100      	str	r1, [sp, #0]
 80072e2:	9101      	str	r1, [sp, #4]
 80072e4:	681a      	ldr	r2, [r3, #0]
 80072e6:	f442 3280 	orr.w	r2, r2, #65536	; 0x10000
 80072ea:	601a      	str	r2, [r3, #0]
 80072ec:	4619      	mov	r1, r3
 80072ee:	681a      	ldr	r2, [r3, #0]
 80072f0:	f402 3200 	and.w	r2, r2, #131072	; 0x20000
 80072f4:	9201      	str	r2, [sp, #4]
 80072f6:	9a00      	ldr	r2, [sp, #0]
 80072f8:	3201      	adds	r2, #1
 80072fa:	9200      	str	r2, [sp, #0]
 80072fc:	9a01      	ldr	r2, [sp, #4]
 80072fe:	b91a      	cbnz	r2, 8007308 <SystemInit+0x60>
 8007300:	9a00      	ldr	r2, [sp, #0]
 8007302:	f5b2 6fa0 	cmp.w	r2, #1280	; 0x500
 8007306:	d1f2      	bne.n	80072ee <SystemInit+0x46>
 8007308:	680b      	ldr	r3, [r1, #0]
 800730a:	f413 3300 	ands.w	r3, r3, #131072	; 0x20000
 800730e:	bf18      	it	ne
 8007310:	2301      	movne	r3, #1
 8007312:	9301      	str	r3, [sp, #4]
 8007314:	9b01      	ldr	r3, [sp, #4]
 8007316:	2b01      	cmp	r3, #1
 8007318:	d12e      	bne.n	8007378 <SystemInit+0xd0>
 800731a:	4b1b      	ldr	r3, [pc, #108]	; (8007388 <SystemInit+0xe0>)
 800731c:	491c      	ldr	r1, [pc, #112]	; (8007390 <SystemInit+0xe8>)
 800731e:	6c1a      	ldr	r2, [r3, #64]	; 0x40
 8007320:	f042 5280 	orr.w	r2, r2, #268435456	; 0x10000000
 8007324:	641a      	str	r2, [r3, #64]	; 0x40
 8007326:	680a      	ldr	r2, [r1, #0]
 8007328:	f442 4240 	orr.w	r2, r2, #49152	; 0xc000
 800732c:	600a      	str	r2, [r1, #0]
 800732e:	689a      	ldr	r2, [r3, #8]
 8007330:	609a      	str	r2, [r3, #8]
 8007332:	689a      	ldr	r2, [r3, #8]
 8007334:	f442 4200 	orr.w	r2, r2, #32768	; 0x8000
 8007338:	609a      	str	r2, [r3, #8]
 800733a:	689a      	ldr	r2, [r3, #8]
 800733c:	f442 52a0 	orr.w	r2, r2, #5120	; 0x1400
 8007340:	609a      	str	r2, [r3, #8]
 8007342:	4a14      	ldr	r2, [pc, #80]	; (8007394 <SystemInit+0xec>)
 8007344:	605a      	str	r2, [r3, #4]
 8007346:	681a      	ldr	r2, [r3, #0]
 8007348:	f042 7280 	orr.w	r2, r2, #16777216	; 0x1000000
 800734c:	601a      	str	r2, [r3, #0]
 800734e:	681a      	ldr	r2, [r3, #0]
 8007350:	0192      	lsls	r2, r2, #6
 8007352:	d5fc      	bpl.n	800734e <SystemInit+0xa6>
 8007354:	4a10      	ldr	r2, [pc, #64]	; (8007398 <SystemInit+0xf0>)
 8007356:	f240 6105 	movw	r1, #1541	; 0x605
 800735a:	6011      	str	r1, [r2, #0]
 800735c:	689a      	ldr	r2, [r3, #8]
 800735e:	f022 0203 	bic.w	r2, r2, #3
 8007362:	609a      	str	r2, [r3, #8]
 8007364:	689a      	ldr	r2, [r3, #8]
 8007366:	f042 0202 	orr.w	r2, r2, #2
 800736a:	609a      	str	r2, [r3, #8]
 800736c:	4a06      	ldr	r2, [pc, #24]	; (8007388 <SystemInit+0xe0>)
 800736e:	6893      	ldr	r3, [r2, #8]
 8007370:	f003 030c 	and.w	r3, r3, #12
 8007374:	2b08      	cmp	r3, #8
 8007376:	d1fa      	bne.n	800736e <SystemInit+0xc6>
 8007378:	4b02      	ldr	r3, [pc, #8]	; (8007384 <SystemInit+0xdc>)
 800737a:	f04f 6200 	mov.w	r2, #134217728	; 0x8000000
 800737e:	609a      	str	r2, [r3, #8]
 8007380:	b002      	add	sp, #8
 8007382:	4770      	bx	lr
 8007384:	e000ed00 	.word	0xe000ed00
 8007388:	40023800 	.word	0x40023800
 800738c:	24003010 	.word	0x24003010
 8007390:	40007000 	.word	0x40007000
 8007394:	07405419 	.word	0x07405419
 8007398:	40023c00 	.word	0x40023c00

0800739c <puts>:
 800739c:	b538      	push	{r3, r4, r5, lr}
 800739e:	4605      	mov	r5, r0
 80073a0:	f7f8 ff12 	bl	80001c8 <strlen>
 80073a4:	4629      	mov	r1, r5
 80073a6:	4602      	mov	r2, r0
 80073a8:	4604      	mov	r4, r0
 80073aa:	2001      	movs	r0, #1
 80073ac:	f7ff ff65 	bl	800727a <_write>
 80073b0:	2201      	movs	r2, #1
 80073b2:	4605      	mov	r5, r0
 80073b4:	4905      	ldr	r1, [pc, #20]	; (80073cc <puts+0x30>)
 80073b6:	4610      	mov	r0, r2
 80073b8:	f7ff ff5f 	bl	800727a <_write>
 80073bc:	3401      	adds	r4, #1
 80073be:	4428      	add	r0, r5
 80073c0:	1a20      	subs	r0, r4, r0
 80073c2:	bf18      	it	ne
 80073c4:	f04f 30ff 	movne.w	r0, #4294967295	; 0xffffffff
 80073c8:	bd38      	pop	{r3, r4, r5, pc}
 80073ca:	bf00      	nop
 80073cc:	0800749b 	.word	0x0800749b

080073d0 <versionInit>:
 80073d0:	b507      	push	{r0, r1, r2, lr}
 80073d2:	2101      	movs	r1, #1
 80073d4:	2002      	movs	r0, #2
 80073d6:	f7f9 fed1 	bl	800117c <RCC_AHB1PeriphClockCmd>
 80073da:	f44f 4380 	mov.w	r3, #16384	; 0x4000
 80073de:	9300      	str	r3, [sp, #0]
 80073e0:	2300      	movs	r3, #0
 80073e2:	f88d 3004 	strb.w	r3, [sp, #4]
 80073e6:	f88d 3006 	strb.w	r3, [sp, #6]
 80073ea:	4669      	mov	r1, sp
 80073ec:	2301      	movs	r3, #1
 80073ee:	4805      	ldr	r0, [pc, #20]	; (8007404 <versionInit+0x34>)
 80073f0:	f88d 3005 	strb.w	r3, [sp, #5]
 80073f4:	f88d 3007 	strb.w	r3, [sp, #7]
 80073f8:	f7f9 fe08 	bl	800100c <GPIO_Init>
 80073fc:	b003      	add	sp, #12
 80073fe:	f85d fb04 	ldr.w	pc, [sp], #4
 8007402:	bf00      	nop
 8007404:	40020400 	.word	0x40020400

08007408 <versionRevised>:
 8007408:	b508      	push	{r3, lr}
 800740a:	f44f 4180 	mov.w	r1, #16384	; 0x4000
 800740e:	4803      	ldr	r0, [pc, #12]	; (800741c <versionRevised+0x14>)
 8007410:	f7f9 fe53 	bl	80010ba <GPIO_ReadInputDataBit>
 8007414:	fab0 f080 	clz	r0, r0
 8007418:	0940      	lsrs	r0, r0, #5
 800741a:	bd08      	pop	{r3, pc}
 800741c:	40020400 	.word	0x40020400

08007420 <__libc_init_array>:
 8007420:	b570      	push	{r4, r5, r6, lr}
 8007422:	4e0d      	ldr	r6, [pc, #52]	; (8007458 <__libc_init_array+0x38>)
 8007424:	4c0d      	ldr	r4, [pc, #52]	; (800745c <__libc_init_array+0x3c>)
 8007426:	1ba4      	subs	r4, r4, r6
 8007428:	10a4      	asrs	r4, r4, #2
 800742a:	2500      	movs	r5, #0
 800742c:	42a5      	cmp	r5, r4
 800742e:	d109      	bne.n	8007444 <__libc_init_array+0x24>
 8007430:	4e0b      	ldr	r6, [pc, #44]	; (8007460 <__libc_init_array+0x40>)
 8007432:	4c0c      	ldr	r4, [pc, #48]	; (8007464 <__libc_init_array+0x44>)
 8007434:	f000 f820 	bl	8007478 <_init>
 8007438:	1ba4      	subs	r4, r4, r6
 800743a:	10a4      	asrs	r4, r4, #2
 800743c:	2500      	movs	r5, #0
 800743e:	42a5      	cmp	r5, r4
 8007440:	d105      	bne.n	800744e <__libc_init_array+0x2e>
 8007442:	bd70      	pop	{r4, r5, r6, pc}
 8007444:	f856 3025 	ldr.w	r3, [r6, r5, lsl #2]
 8007448:	4798      	blx	r3
 800744a:	3501      	adds	r5, #1
 800744c:	e7ee      	b.n	800742c <__libc_init_array+0xc>
 800744e:	f856 3025 	ldr.w	r3, [r6, r5, lsl #2]
 8007452:	4798      	blx	r3
 8007454:	3501      	adds	r5, #1
 8007456:	e7f2      	b.n	800743e <__libc_init_array+0x1e>
 8007458:	080074a8 	.word	0x080074a8
 800745c:	080074a8 	.word	0x080074a8
 8007460:	080074a8 	.word	0x080074a8
 8007464:	080074ac 	.word	0x080074ac

08007468 <memset>:
 8007468:	4402      	add	r2, r0
 800746a:	4603      	mov	r3, r0
 800746c:	4293      	cmp	r3, r2
 800746e:	d100      	bne.n	8007472 <memset+0xa>
 8007470:	4770      	bx	lr
 8007472:	f803 1b01 	strb.w	r1, [r3], #1
 8007476:	e7f9      	b.n	800746c <memset+0x4>

08007478 <_init>:
 8007478:	b5f8      	push	{r3, r4, r5, r6, r7, lr}
 800747a:	bf00      	nop
 800747c:	bcf8      	pop	{r3, r4, r5, r6, r7}
 800747e:	bc08      	pop	{r3}
 8007480:	469e      	mov	lr, r3
 8007482:	4770      	bx	lr

08007484 <_fini>:
 8007484:	b5f8      	push	{r3, r4, r5, r6, r7, lr}
 8007486:	bf00      	nop
 8007488:	bcf8      	pop	{r3, r4, r5, r6, r7}
 800748a:	bc08      	pop	{r3}
 800748c:	469e      	mov	lr, r3
 800748e:	4770      	bx	lr
